LIBRARY shareddebug/omniORB421_vc14_rtd
VERSION 2.1
EXPORTS
??$__vcrt_va_start_verify_argument_type@QBD@@YAXXZ
??$omnicopy@PAKPAK@@YAPAKPAK00@Z
??$omnicopy@PAPAUEndpointURI@Options@omniObjAdapter@omni@@PAPAU1234@@@YAPAPAUEndpointURI@Options@omniObjAdapter@omni@@PAPAU0123@00@Z
??$omnicopy@PAPAUHandlerValuePair@orbOptions@omni@@PAPAU123@@@YAPAPAUHandlerValuePair@orbOptions@omni@@PAPAU012@00@Z
??$omnicopy@PAPAURuleActionPair@transportRules@omni@@PAPAU123@@@YAPAPAURuleActionPair@transportRules@omni@@PAPAU012@00@Z
??$omnicopy@PAPAVHandler@orbOptions@omni@@PAPAV123@@@YAPAPAVHandler@orbOptions@omni@@PAPAV012@00@Z
??$omnicopy@PAPAVObject@CORBA@@PAPAV12@@@YAPAPAVObject@CORBA@@PAPAV01@00@Z
??$omnicopy@PAPAVRuleType@transportRules@omni@@PAPAV123@@@YAPAPAVRuleType@transportRules@omni@@PAPAV012@00@Z
??$omnicopy@PAPAVURIHandler@omniURI@omni@@PAPAV123@@@YAPAPAVURIHandler@omniURI@omni@@PAPAV012@00@Z
??$omnicopy@PAPAVgiopActiveCollection@omni@@PAPAV12@@@YAPAPAVgiopActiveCollection@omni@@PAPAV01@00@Z
??$omnicopy@PAPAVgiopAddress@omni@@PAPAV12@@@YAPAPAVgiopAddress@omni@@PAPAV01@00@Z
??$omnicopy@PAPAVgiopEndpoint@omni@@PAPAV12@@@YAPAPAVgiopEndpoint@omni@@PAPAV01@00@Z
??$omnicopy@PAPAVgiopStrand@omni@@PAPAV12@@@YAPAPAVgiopStrand@omni@@PAPAV01@00@Z
??$omnicopy@PAPAVomniInitialiser@omni@@PAPAV12@@@YAPAPAVomniInitialiser@omni@@PAPAV01@00@Z
??$omnicopy@PAPAVomniObjRef@@PAPAV1@@@YAPAPAVomniObjRef@@PAPAV0@00@Z
??$omnicopy@PAPAVomniObjTableEntry@@PAPAV1@@@YAPAPAVomniObjTableEntry@@PAPAV0@00@Z
??$omnicopy@PAPAVomniTrackedObject@omni@@PAPAV12@@@YAPAPAVomniTrackedObject@omni@@PAPAV01@00@Z
??$omnicopy@PAPAVorbServer@omni@@PAPAV12@@@YAPAPAVorbServer@omni@@PAPAV01@00@Z
??$omnicopy@PAPBDPAPBD@@YAPAPBDPAPBD00@Z
??$omnicopy@PAUresolvePseudoEntry@omni@@PAU12@@@YAPAUresolvePseudoEntry@omni@@PAU01@00@Z
??0?$Servant_var@VServantBase@PortableServer@@@PortableServer@@QAE@PAVServantBase@1@@Z
??0?$_CORBA_ConstrType_Variable_OUT_arg@UBinding@CosNaming@@V?$_CORBA_ConstrType_Variable_Var@UBinding@CosNaming@@@@@@QAE@AAPAUBinding@CosNaming@@@Z
??0?$_CORBA_ConstrType_Variable_Var@UBinding@CosNaming@@@@QAE@XZ
??0?$_CORBA_ObjRef_Element@VPOA@PortableServer@@VPOA_Helper@2@@@QAE@AAPAVPOA@PortableServer@@_N@Z
??0?$_CORBA_ObjRef_Member@V_objref_NamingContext@CosNaming@@VNamingContext_Helper@2@@@QAE@XZ
??0?$_CORBA_ObjRef_OUT_arg@V_objref_BindingIterator@CosNaming@@VBindingIterator_Helper@2@@@QAE@AAPAV_objref_BindingIterator@CosNaming@@@Z
??0?$_CORBA_ObjRef_Var@VServantActivator@PortableServer@@VServantActivator_Helper@2@@@QAE@PAVServantActivator@PortableServer@@@Z
??0?$_CORBA_ObjRef_Var@VServantLocator@PortableServer@@VServantLocator_Helper@2@@@QAE@PAVServantLocator@PortableServer@@@Z
??0?$_CORBA_ObjRef_Var@V_objref_BindingIterator@CosNaming@@VBindingIterator_Helper@2@@@QAE@XZ
??0?$_CORBA_ObjRef_Var@V_objref_NamingContext@CosNaming@@VNamingContext_Helper@2@@@QAE@PAV_objref_NamingContext@CosNaming@@@Z
??0?$_CORBA_ObjRef_Var@V_objref_NamingContext@CosNaming@@VNamingContext_Helper@2@@@QAE@XZ
??0?$_CORBA_PseudoObj_Member@VPolicy@CORBA@@V?$_CORBA_PseudoObj_Var@VPolicy@CORBA@@@@@@QAE@XZ
??0?$_CORBA_PseudoObj_Var@VBidirectionalPolicy@BiDirPolicy@@@@QAE@XZ
??0?$_CORBA_PseudoObj_Var@VEndPointPublishPolicy@omniPolicy@@@@QAE@PAVEndPointPublishPolicy@omniPolicy@@@Z
??0?$_CORBA_PseudoObj_Var@VIdAssignmentPolicy@PortableServer@@@@QAE@XZ
??0?$_CORBA_PseudoObj_Var@VIdUniquenessPolicy@PortableServer@@@@QAE@XZ
??0?$_CORBA_PseudoObj_Var@VImplicitActivationPolicy@PortableServer@@@@QAE@XZ
??0?$_CORBA_PseudoObj_Var@VLifespanPolicy@PortableServer@@@@QAE@XZ
??0?$_CORBA_PseudoObj_Var@VLocalShortcutPolicy@omniPolicy@@@@QAE@XZ
??0?$_CORBA_PseudoObj_Var@VPOA@PortableServer@@@@QAE@PAVPOA@PortableServer@@@Z
??0?$_CORBA_PseudoObj_Var@VPOA@PortableServer@@@@QAE@XZ
??0?$_CORBA_PseudoObj_Var@VRequestProcessingPolicy@PortableServer@@@@QAE@XZ
??0?$_CORBA_PseudoObj_Var@VServantRetentionPolicy@PortableServer@@@@QAE@XZ
??0?$_CORBA_PseudoObj_Var@VThreadPolicy@PortableServer@@@@QAE@XZ
??0?$_CORBA_PseudoValue_Sequence@PAVIORExtraInfo@omniIOR@@@@QAE@XZ
??0?$_CORBA_PseudoValue_Sequence@PAVomniOrbPOA@omni@@@@QAE@XZ
??0?$_CORBA_PseudoValue_Sequence@UserviceRecord@omni@@@@QAE@XZ
??0?$_CORBA_Pseudo_Unbounded_Sequence@VPolicy@CORBA@@V?$_CORBA_PseudoObj_Member@VPolicy@CORBA@@V?$_CORBA_PseudoObj_Var@VPolicy@CORBA@@@@@@@@QAE@ABV0@@Z
??0?$_CORBA_Pseudo_Unbounded_Sequence@VPolicy@CORBA@@V?$_CORBA_PseudoObj_Member@VPolicy@CORBA@@V?$_CORBA_PseudoObj_Var@VPolicy@CORBA@@@@@@@@QAE@K@Z
??0?$_CORBA_Pseudo_Unbounded_Sequence@VPolicy@CORBA@@V?$_CORBA_PseudoObj_Member@VPolicy@CORBA@@V?$_CORBA_PseudoObj_Var@VPolicy@CORBA@@@@@@@@QAE@XZ
??0?$_CORBA_Sequence@E@@IAE@K_N@Z
??0?$_CORBA_Sequence@E@@IAE@XZ
??0?$_CORBA_Sequence@K@@IAE@XZ
??0?$_CORBA_Sequence@UAddress@IIOP@@@@IAE@K_N@Z
??0?$_CORBA_Sequence@UAddress@IIOP@@@@IAE@XZ
??0?$_CORBA_Sequence@UBinding@CosNaming@@@@IAE@XZ
??0?$_CORBA_Sequence@UNameComponent@CosNaming@@@@IAE@XZ
??0?$_CORBA_Sequence@UServiceContext@IOP@@@@IAE@K_N@Z
??0?$_CORBA_Sequence@UServiceContext@IOP@@@@IAE@XZ
??0?$_CORBA_Sequence@UTaggedComponent@IOP@@@@IAE@K_N@Z
??0?$_CORBA_Sequence@UTaggedComponent@IOP@@@@IAE@XZ
??0?$_CORBA_Sequence@UTaggedProfile@IOP@@@@IAE@KKPAUTaggedProfile@IOP@@_N1@Z
??0?$_CORBA_Sequence@UTaggedProfile@IOP@@@@IAE@XZ
??0?$_CORBA_Sequence@V_CORBA_Unbounded_Sequence_Octet@@@@IAE@XZ
??0?$_CORBA_Sequence_ObjRef@VPOA@PortableServer@@V?$_CORBA_ObjRef_Element@VPOA@PortableServer@@VPOA_Helper@2@@@VPOA_Helper@2@@@IAE@XZ
??0?$_CORBA_Unbounded_Sequence@K@@QAE@XZ
??0?$_CORBA_Unbounded_Sequence@UAddress@IIOP@@@@QAE@K@Z
??0?$_CORBA_Unbounded_Sequence@UAddress@IIOP@@@@QAE@XZ
??0?$_CORBA_Unbounded_Sequence@UBinding@CosNaming@@@@QAE@XZ
??0?$_CORBA_Unbounded_Sequence@UNameComponent@CosNaming@@@@QAE@XZ
??0?$_CORBA_Unbounded_Sequence@UServiceContext@IOP@@@@QAE@K@Z
??0?$_CORBA_Unbounded_Sequence@UServiceContext@IOP@@@@QAE@XZ
??0?$_CORBA_Unbounded_Sequence@UTaggedComponent@IOP@@@@QAE@K@Z
??0?$_CORBA_Unbounded_Sequence@UTaggedComponent@IOP@@@@QAE@XZ
??0?$_CORBA_Unbounded_Sequence@UTaggedProfile@IOP@@@@QAE@KKPAUTaggedProfile@IOP@@_N@Z
??0?$_CORBA_Unbounded_Sequence@UTaggedProfile@IOP@@@@QAE@XZ
??0?$_CORBA_Unbounded_Sequence@V_CORBA_Unbounded_Sequence_Octet@@@@QAE@XZ
??0?$_CORBA_Unbounded_Sequence_ObjRef@VPOA@PortableServer@@V?$_CORBA_ObjRef_Element@VPOA@PortableServer@@VPOA_Helper@2@@@VPOA_Helper@2@@@QAE@XZ
??0?$_CORBA_Unbounded_Sequence_w_FixSizeElement@K$03$03@@QAE@XZ
??0?$omnivector@K@@QAE@XZ
??0?$omnivector@PAUEndpointURI@Options@omniObjAdapter@omni@@@@QAE@XZ
??0?$omnivector@PAUHandlerValuePair@orbOptions@omni@@@@QAE@XZ
??0?$omnivector@PAURuleActionPair@transportRules@omni@@@@QAE@XZ
??0?$omnivector@PAVHandler@orbOptions@omni@@@@QAE@XZ
??0?$omnivector@PAVObject@CORBA@@@@QAE@XZ
??0?$omnivector@PAVRuleType@transportRules@omni@@@@QAE@XZ
??0?$omnivector@PAVURIHandler@omniURI@omni@@@@QAE@XZ
??0?$omnivector@PAVgiopActiveCollection@omni@@@@QAE@XZ
??0?$omnivector@PAVgiopAddress@omni@@@@QAE@XZ
??0?$omnivector@PAVgiopEndpoint@omni@@@@QAE@XZ
??0?$omnivector@PAVgiopStrand@omni@@@@QAE@XZ
??0?$omnivector@PAVomniInitialiser@omni@@@@QAE@XZ
??0?$omnivector@PAVomniObjRef@@@@QAE@XZ
??0?$omnivector@PAVomniObjTableEntry@@@@QAE@XZ
??0?$omnivector@PAVomniTrackedObject@omni@@@@QAE@XZ
??0?$omnivector@PAVorbServer@omni@@@@QAE@XZ
??0?$omnivector@PBD@@QAE@XZ
??0?$omnivector@UresolvePseudoEntry@omni@@@@QAE@XZ
??0AdapterActivator@PortableServer@@IAE@XZ
??0AdapterAlreadyExists@POA@PortableServer@@QAE@ABV012@@Z
??0AdapterAlreadyExists@POA@PortableServer@@QAE@XZ
??0AdapterInactive@POA@PortableServer@@QAE@ABV012@@Z
??0AdapterInactive@POAManager@PortableServer@@QAE@ABV012@@Z
??0AdapterInactive@POAManager@PortableServer@@QAE@XZ
??0AdapterNonExistent@POA@PortableServer@@QAE@ABV012@@Z
??0AdapterNonExistent@POA@PortableServer@@QAE@XZ
??0AddrInfo@LibcWrapper@omni@@QAE@XZ
??0AddrInfo_var@LibcWrapper@omni@@QAE@PAVAddrInfo@12@@Z
??0AddrInfo_var@LibcWrapper@omni@@QAE@XZ
??0Address@IIOP@@QAE@ABU01@@Z
??0Address@IIOP@@QAE@XZ
??0AlreadyBound@NamingContext@CosNaming@@QAE@ABV012@@Z
??0AlreadyBound@NamingContext@CosNaming@@QAE@XZ
??0AsyncRequest@omni@@QAE@PAVomniObjRef@@PAVomniAsyncCallDescriptor@@ABUomni_time_t@@_N@Z
??0BAD_CONTEXT@CORBA@@QAE@ABV01@@Z
??0BAD_CONTEXT@CORBA@@QAE@KW4CompletionStatus@1@@Z
??0BAD_INV_ORDER@CORBA@@QAE@ABV01@@Z
??0BAD_INV_ORDER@CORBA@@QAE@KW4CompletionStatus@1@@Z
??0BAD_OPERATION@CORBA@@QAE@ABV01@@Z
??0BAD_OPERATION@CORBA@@QAE@KW4CompletionStatus@1@@Z
??0BAD_PARAM@CORBA@@QAE@ABV01@@Z
??0BAD_PARAM@CORBA@@QAE@KW4CompletionStatus@1@@Z
??0BAD_QOS@CORBA@@QAE@ABV01@@Z
??0BAD_QOS@CORBA@@QAE@KW4CompletionStatus@1@@Z
??0BAD_TYPECODE@CORBA@@QAE@ABV01@@Z
??0BAD_TYPECODE@CORBA@@QAE@KW4CompletionStatus@1@@Z
??0BOA@CORBA@@IAE@H@Z
??0BOA_var@CORBA@@QAE@PAVBOA@1@@Z
??0BadParam@orbOptions@omni@@QAE@ABV012@@Z
??0BadParam@orbOptions@omni@@QAE@PBD00@Z
??0Base@omniCodeSet@omni@@IAE@KPBDW4Kind@12@@Z
??0BiDirClientRope@omni@@QAE@ABV?$omnivector@PAVgiopAddress@omni@@@@PAVIORInfo@omniIOR@@@Z
??0BiDirInfo@omni@@QAE@PAD@Z
??0BiDirServerRope@omni@@QAE@PAVgiopStrand@1@PAVgiopAddress@1@@Z
??0BidirectionalPolicy@BiDirPolicy@@QAE@G@Z
??0BidirectionalPolicy@BiDirPolicy@@QAE@XZ
??0Binding@CosNaming@@QAE@XZ
??0BindingList@CosNaming@@QAE@XZ
??0BindingList_out@CosNaming@@QAE@AAPAVBindingList@1@@Z
??0BindingList_var@CosNaming@@QAE@XZ
??0BufferC@omniCodeSetUtil@omni@@QAE@K@Z
??0BufferCompressor@omni@@QAE@PAVgiopStream@1@PAVgiopCompressor@1@PAUgiopStream_Buffer@1@@Z
??0BufferU@omniCodeSetUtil@omni@@QAE@K@Z
??0CODESET_INCOMPATIBLE@CORBA@@QAE@ABV01@@Z
??0CODESET_INCOMPATIBLE@CORBA@@QAE@KW4CompletionStatus@1@@Z
??0COMM_FAILURE@CORBA@@QAE@ABV01@@Z
??0COMM_FAILURE@CORBA@@QAE@KW4CompletionStatus@1@@Z
??0CORBA_InitialReferences_i@omni@@QAE@XZ
??0CS_8859_1_init@omni@@QAE@XZ
??0CS_UTF_16_init@omni@@QAE@XZ
??0CS_UTF_8_init@omni@@QAE@XZ
??0CannotProceed@NamingContext@CosNaming@@QAE@ABV012@@Z
??0CannotProceed@NamingContext@CosNaming@@QAE@PAV_objref_NamingContext@2@VName@2@@Z
??0CannotProceed@NamingContext@CosNaming@@QAE@XZ
??0CodeSetComponent@CONV_FRAME@omni@@QAE@XZ
??0CodeSetComponentInfo@CONV_FRAME@omni@@QAE@XZ
??0CommFailure@giopStream@omni@@QAE@ABV012@@Z
??0CommFailure@giopStream@omni@@QAE@KW4CompletionStatus@CORBA@@_N@Z
??0Current@CORBA@@IAE@H@Z
??0Current@PortableServer@@IAE@H@Z
??0DATA_CONVERSION@CORBA@@QAE@ABV01@@Z
??0DATA_CONVERSION@CORBA@@QAE@KW4CompletionStatus@1@@Z
??0DefaultInitRefHandler@omni@@QAE@XZ
??0EndPointPublishPolicy@omniPolicy@@QAE@ABVStringSeq@CORBA@@@Z
??0EndPointPublishPolicy@omniPolicy@@QAE@XZ
??0EndpointURI@Options@omniObjAdapter@omni@@QAE@XZ
??0Exception@CORBA@@IAE@XZ
??0Exception@CORBA@@QAE@ABV01@@Z
??0FREE_MEM@CORBA@@QAE@ABV01@@Z
??0FREE_MEM@CORBA@@QAE@KW4CompletionStatus@1@@Z
??0Fixed@CORBA@@QAE@ABV01@@Z
??0Fixed@CORBA@@QAE@H@Z
??0Fixed@CORBA@@QAE@I@Z
??0Fixed@CORBA@@QAE@J@Z
??0Fixed@CORBA@@QAE@K@Z
??0Fixed@CORBA@@QAE@N@Z
??0Fixed@CORBA@@QAE@PBD@Z
??0Fixed@CORBA@@QAE@PBEGG_N@Z
??0Fixed@CORBA@@QAE@_J@Z
??0Fixed@CORBA@@QAE@_K@Z
??0ForwardRequest@PortableServer@@QAE@ABV01@@Z
??0ForwardRequest@PortableServer@@QAE@PAVObject@CORBA@@@Z
??0FullAddrInfo@omni@@QAE@PAUaddrinfo@@_N@Z
??0GIOP_C@omni@@QAE@PAVgiopRope@1@PAVgiopStrand@1@@Z
??0GIOP_S@omni@@QAE@ABV01@@Z
??0GIOP_S@omni@@QAE@PAVgiopStrand@1@@Z
??0GIOP_S_Holder@omni@@QAE@PAVgiopStrand@1@PAVgiopWorker@1@@Z
??0Handler@orbOptions@omni@@IAE@PBD0_N01@Z
??0HandlerValuePair@orbOptions@omni@@QAE@PAVHandler@12@PBDW4Source@12@@Z
??0HolderC@omniCodeSetUtil@omni@@QAE@PAD@Z
??0HolderU@omniCodeSetUtil@omni@@QAE@PA_W@Z
??0HolderW@omniCodeSetUtil@omni@@QAE@PA_W@Z
??0IMP_LIMIT@CORBA@@QAE@ABV01@@Z
??0IMP_LIMIT@CORBA@@QAE@KW4CompletionStatus@1@@Z
??0INITIALIZE@CORBA@@QAE@ABV01@@Z
??0INITIALIZE@CORBA@@QAE@KW4CompletionStatus@1@@Z
??0INTERNAL@CORBA@@QAE@ABV01@@Z
??0INTERNAL@CORBA@@QAE@KW4CompletionStatus@1@@Z
??0INTF_REPOS@CORBA@@QAE@ABV01@@Z
??0INTF_REPOS@CORBA@@QAE@KW4CompletionStatus@1@@Z
??0INVALID_TRANSACTION@CORBA@@QAE@ABV01@@Z
??0INVALID_TRANSACTION@CORBA@@QAE@KW4CompletionStatus@1@@Z
??0INV_FLAG@CORBA@@QAE@ABV01@@Z
??0INV_FLAG@CORBA@@QAE@KW4CompletionStatus@1@@Z
??0INV_IDENT@CORBA@@QAE@ABV01@@Z
??0INV_IDENT@CORBA@@QAE@KW4CompletionStatus@1@@Z
??0INV_OBJREF@CORBA@@QAE@ABV01@@Z
??0INV_OBJREF@CORBA@@QAE@KW4CompletionStatus@1@@Z
??0INV_POLICY@CORBA@@QAE@ABV01@@Z
??0INV_POLICY@CORBA@@QAE@KW4CompletionStatus@1@@Z
??0IOP_C@omni@@QAE@XZ
??0IOP_C_Holder@omni@@QAE@PBVomniIOR@@PBEKPAVRope@1@PAVomniCallDescriptor@@@Z
??0IOP_S@omni@@QAE@XZ
??0IOR@IOP@@QAE@XZ
??0IORAddressingInfo@GIOP@@QAE@XZ
??0IORExtraInfo@omniIOR@@QAE@K@Z
??0IORInfo@omniIOR@@QAE@XZ
??0IORPublish@omni@@QAE@XZ
??0IdAssignmentPolicy@PortableServer@@QAE@W4IdAssignmentPolicyValue@1@@Z
??0IdAssignmentPolicy@PortableServer@@QAE@XZ
??0IdUniquenessPolicy@PortableServer@@QAE@W4IdUniquenessPolicyValue@1@@Z
??0IdUniquenessPolicy@PortableServer@@QAE@XZ
??0IiopObjAddr@corbalocURIHandler@omni@@QAE@AAPBD@Z
??0ImplicitActivationPolicy@PortableServer@@QAE@W4ImplicitActivationPolicyValue@1@@Z
??0ImplicitActivationPolicy@PortableServer@@QAE@XZ
??0InitRefHandler@omni@@QAE@XZ
??0InvalidAddress@NamingContextExt@CosNaming@@QAE@ABV012@@Z
??0InvalidAddress@NamingContextExt@CosNaming@@QAE@XZ
??0InvalidName@NamingContext@CosNaming@@QAE@ABV012@@Z
??0InvalidName@NamingContext@CosNaming@@QAE@XZ
??0InvalidName@ORB@CORBA@@QAE@ABV012@@Z
??0InvalidName@ORB@CORBA@@QAE@XZ
??0InvalidPolicy@POA@PortableServer@@QAE@ABV012@@Z
??0InvalidPolicy@POA@PortableServer@@QAE@G@Z
??0LOCATION_FORWARD@omniORB@@QAE@ABV01@@Z
??0LOCATION_FORWARD@omniORB@@QAE@PAVObject@CORBA@@_N@Z
??0LifespanPolicy@PortableServer@@QAE@W4LifespanPolicyValue@1@@Z
??0LifespanPolicy@PortableServer@@QAE@XZ
??0Link@giopServer@omni@@QAE@XZ
??0LocalObject@CORBA@@IAE@XZ
??0LocalShortcutPolicy@omniPolicy@@QAE@G@Z
??0LocalShortcutPolicy@omniPolicy@@QAE@XZ
??0MARSHAL@CORBA@@QAE@ABV01@@Z
??0MARSHAL@CORBA@@QAE@KW4CompletionStatus@1@@Z
??0NCS_C@omniCodeSet@omni@@QAE@KPBDW4Kind@12@@Z
??0NCS_C_8bit@omniCodeSet@omni@@QAE@KPBDPB_WPAPBE@Z
??0NCS_C_UTF_8@omni@@QAE@XZ
??0NCS_W@omniCodeSet@omni@@QAE@KPBDW4Kind@12@@Z
??0NCS_W_UTF_16@omni@@QAE@XZ
??0NO_IMPLEMENT@CORBA@@QAE@ABV01@@Z
??0NO_IMPLEMENT@CORBA@@QAE@KW4CompletionStatus@1@@Z
??0NO_MEMORY@CORBA@@QAE@ABV01@@Z
??0NO_MEMORY@CORBA@@QAE@KW4CompletionStatus@1@@Z
??0NO_PERMISSION@CORBA@@QAE@ABV01@@Z
??0NO_PERMISSION@CORBA@@QAE@KW4CompletionStatus@1@@Z
??0NO_RESOURCES@CORBA@@QAE@ABV01@@Z
??0NO_RESOURCES@CORBA@@QAE@KW4CompletionStatus@1@@Z
??0NO_RESPONSE@CORBA@@QAE@ABV01@@Z
??0NO_RESPONSE@CORBA@@QAE@KW4CompletionStatus@1@@Z
??0Name@CosNaming@@QAE@XZ
??0NameComponent@CosNaming@@QAE@XZ
??0Name_var@CosNaming@@QAE@PAVName@1@@Z
??0Name_var@CosNaming@@QAE@XZ
??0NoContext@Current@PortableServer@@QAE@ABV012@@Z
??0NoContext@Current@PortableServer@@QAE@XZ
??0NoServant@POA@PortableServer@@QAE@ABV012@@Z
??0NoServant@POA@PortableServer@@QAE@XZ
??0NotEmpty@NamingContext@CosNaming@@QAE@ABV012@@Z
??0NotEmpty@NamingContext@CosNaming@@QAE@XZ
??0NotFound@NamingContext@CosNaming@@QAE@ABV012@@Z
??0NotFound@NamingContext@CosNaming@@QAE@W4NotFoundReason@12@VName@2@@Z
??0NotFound@NamingContext@CosNaming@@QAE@XZ
??0OBJECT_NOT_EXIST@CORBA@@QAE@ABV01@@Z
??0OBJECT_NOT_EXIST@CORBA@@QAE@KW4CompletionStatus@1@@Z
??0OBJ_ADAPTER@CORBA@@QAE@ABV01@@Z
??0OBJ_ADAPTER@CORBA@@QAE@KW4CompletionStatus@1@@Z
??0ORB@CORBA@@IAE@H@Z
??0ObjAddr@corbalocURIHandler@omni@@QAE@XZ
??0ObjAddrList@corbalocURIHandler@omni@@QAE@XZ
??0ObjIdList@CORBA_InitialReferences@@QAE@K@Z
??0ObjIdList@CORBA_InitialReferences@@QAE@XZ
??0ObjIdList_var@CORBA_InitialReferences@@QAE@XZ
??0Object@CORBA@@QAE@XZ
??0ObjectAlreadyActive@POA@PortableServer@@QAE@ABV012@@Z
??0ObjectAlreadyActive@POA@PortableServer@@QAE@XZ
??0ObjectId@PortableServer@@QAE@K@Z
??0ObjectId@PortableServer@@QAE@XZ
??0ObjectIdList@ORB@CORBA@@QAE@K@Z
??0ObjectNotActive@POA@PortableServer@@QAE@ABV012@@Z
??0ObjectNotActive@POA@PortableServer@@QAE@XZ
??0Object_Member@CORBA@@QAE@XZ
??0Object_var@CORBA@@QAE@PAVObject@1@@Z
??0Object_var@CORBA@@QAE@XZ
??0OctetSeq@CORBA@@QAE@K@Z
??0Options@omniObjAdapter@omni@@QAE@XZ
??0PERSIST_STORE@CORBA@@QAE@ABV01@@Z
??0PERSIST_STORE@CORBA@@QAE@KW4CompletionStatus@1@@Z
??0POA@PortableServer@@IAE@H@Z
??0POAList@PortableServer@@QAE@XZ
??0POAManager@PortableServer@@IAE@H@Z
??0POA_CORBA_InitialReferences@@QAE@XZ
??0Parsed@corbalocURIHandler@omni@@QAE@AAPBDPBD@Z
??0Policy@CORBA@@QAE@K@Z
??0Policy@CORBA@@QAE@XZ
??0PolicyError@CORBA@@QAE@ABV01@@Z
??0PolicyError@CORBA@@QAE@F@Z
??0PostInvokeHook@omniCallHandle@@QAE@XZ
??0ProfileBody@IIOP@@QAE@XZ
??0REBIND@CORBA@@QAE@ABV01@@Z
??0REBIND@CORBA@@QAE@KW4CompletionStatus@1@@Z
??0RequestProcessingPolicy@PortableServer@@QAE@W4RequestProcessingPolicyValue@1@@Z
??0RequestProcessingPolicy@PortableServer@@QAE@XZ
??0RirObjAddr@corbalocURIHandler@omni@@QAE@AAPBD@Z
??0Rope@omni@@QAE@XZ
??0RopeLink@omni@@QAE@XZ
??0Rule@transportRules@omni@@QAE@PBD@Z
??0RuleActionPair@transportRules@omni@@QAE@PAVRule@12@ABVStringSeq@CORBA@@@Z
??0RuleType@transportRules@omni@@QAE@XZ
??0SLPostInvokeHook@omniOrbPOA@omni@@QAE@PAV12@PAVServantLocator@PortableServer@@AAVObjectId@4@PBDPAXPAVServantBase@4@@Z
??0Scavenger@omni@@QAE@XZ
??0ServantActivator@PortableServer@@IAE@XZ
??0ServantAlreadyActive@POA@PortableServer@@QAE@ABV012@@Z
??0ServantAlreadyActive@POA@PortableServer@@QAE@XZ
??0ServantBase@PortableServer@@IAE@XZ
??0ServantLocator@PortableServer@@IAE@XZ
??0ServantManager@PortableServer@@IAE@XZ
??0ServantNotActive@POA@PortableServer@@QAE@ABV012@@Z
??0ServantNotActive@POA@PortableServer@@QAE@XZ
??0ServantRetentionPolicy@PortableServer@@QAE@W4ServantRetentionPolicyValue@1@@Z
??0ServantRetentionPolicy@PortableServer@@QAE@XZ
??0ServiceContext@IOP@@QAE@XZ
??0SocketCollection@omni@@QAE@XZ
??0SocketHolder@omni@@QAE@I@Z
??0SsliopObjAddr@corbalocURIHandler@omni@@QAE@AAPBD@Z
??0Strand@omni@@QAE@XZ
??0StrandList@omni@@QAE@XZ
??0StreamAdapterStateCopier@omni@@QAE@PAVcdrStreamAdapter@@@Z
??0StringSeq@CORBA@@QAE@ABV01@@Z
??0StringSeq@CORBA@@QAE@K@Z
??0StringSeq@CORBA@@QAE@XZ
??0StringSeq_var@CORBA@@QAE@PAVStringSeq@1@@Z
??0StringSeq_var@CORBA@@QAE@XZ
??0SystemException@CORBA@@QAE@ABV01@@Z
??0SystemException@CORBA@@QAE@KW4CompletionStatus@1@@Z
??0TCS_C@omniCodeSet@omni@@QAE@KPBDW4Kind@12@UVersion@GIOP@@@Z
??0TCS_C_8bit@omniCodeSet@omni@@QAE@KPBDUVersion@GIOP@@PB_WPAPBE@Z
??0TCS_C_UTF_8@omni@@QAE@UVersion@GIOP@@@Z
??0TCS_W@omniCodeSet@omni@@QAE@KPBDW4Kind@12@UVersion@GIOP@@@Z
??0TCS_W_UTF_16@omni@@QAE@XZ
??0TIMEOUT@CORBA@@QAE@ABV01@@Z
??0TIMEOUT@CORBA@@QAE@KW4CompletionStatus@1@@Z
??0TRANSACTION_MODE@CORBA@@QAE@ABV01@@Z
??0TRANSACTION_MODE@CORBA@@QAE@KW4CompletionStatus@1@@Z
??0TRANSACTION_REQUIRED@CORBA@@QAE@ABV01@@Z
??0TRANSACTION_REQUIRED@CORBA@@QAE@KW4CompletionStatus@1@@Z
??0TRANSACTION_ROLLEDBACK@CORBA@@QAE@ABV01@@Z
??0TRANSACTION_ROLLEDBACK@CORBA@@QAE@KW4CompletionStatus@1@@Z
??0TRANSACTION_UNAVAILABLE@CORBA@@QAE@ABV01@@Z
??0TRANSACTION_UNAVAILABLE@CORBA@@QAE@KW4CompletionStatus@1@@Z
??0TRANSIENT@CORBA@@QAE@ABV01@@Z
??0TRANSIENT@CORBA@@QAE@KW4CompletionStatus@1@@Z
??0TaggedComponent@IOP@@QAE@XZ
??0TaggedProfile@IOP@@QAE@XZ
??0TaggedProfileList_var@IOP@@QAE@PAV?$_CORBA_Unbounded_Sequence@UTaggedProfile@IOP@@@@@Z
??0TaggedProfileList_var@IOP@@QAE@XZ
??0Task@omniServantActivatorTaskQueue@omni@@QAE@XZ
??0ThreadPolicy@PortableServer@@QAE@W4ThreadPolicyValue@1@@Z
??0ThreadPolicy@PortableServer@@QAE@XZ
??0UNKNOWN@CORBA@@QAE@ABV01@@Z
??0UNKNOWN@CORBA@@QAE@KW4CompletionStatus@1@@Z
??0URIHandler@omniURI@omni@@QAE@XZ
??0UiopObjAddr@corbalocURIHandler@omni@@QAE@AAPBD@Z
??0Unknown@orbOptions@omni@@QAE@ABV012@@Z
??0Unknown@orbOptions@omni@@QAE@PBD0@Z
??0UserException@CORBA@@IAE@XZ
??0UserException@CORBA@@QAE@ABV01@@Z
??0WrongAdapter@POA@PortableServer@@QAE@ABV012@@Z
??0WrongAdapter@POA@PortableServer@@QAE@XZ
??0WrongPolicy@POA@PortableServer@@QAE@ABV012@@Z
??0WrongPolicy@POA@PortableServer@@QAE@XZ
??0_0RL_cd_3c165f58b5a16b59_00000000@@QAE@P6AXPAVomniCallDescriptor@@PAVomniServant@@@ZPBDI_NPAVPOA@PortableServer@@3@Z
??0_0RL_cd_3c165f58b5a16b59_20000000@@QAE@P6AXPAVomniCallDescriptor@@PAVomniServant@@@ZPBDI_NABVObjectId@PortableServer@@PAVPOA@4@@Z
??0_0RL_cd_3c165f58b5a16b59_40000000@@QAE@P6AXPAVomniCallDescriptor@@PAVomniServant@@@ZPBDI_NABVObjectId@PortableServer@@PAVPOA@4@PAVServantBase@4@44@Z
??0_0RL_cd_3c165f58b5a16b59_60000000@@QAE@P6AXPAVomniCallDescriptor@@PAVomniServant@@@ZPBDI_NABVObjectId@PortableServer@@PAVPOA@4@3AAPAX@Z
??0_0RL_cd_3c165f58b5a16b59_80000000@@QAE@P6AXPAVomniCallDescriptor@@PAVomniServant@@@ZPBDI_NABVObjectId@PortableServer@@PAVPOA@4@3PAXPAVServantBase@4@@Z
??0_0RL_cd_69ceca6a39f685b5_00000000@@QAE@P6AXPAVomniCallDescriptor@@PAVomniServant@@@ZPBDI_N@Z
??0_0RL_cd_69ceca6a39f685b5_01000000@@QAE@P6AXPAVomniCallDescriptor@@PAVomniServant@@@ZPBDI_N@Z
??0_0RL_cd_69ceca6a39f685b5_02000000@@QAE@P6AXPAVomniCallDescriptor@@PAVomniServant@@@ZPBDI_N@Z
??0_0RL_cd_69ceca6a39f685b5_20000000@@QAE@P6AXPAVomniCallDescriptor@@PAVomniServant@@@ZPBDI_N@Z
??0_0RL_cd_69ceca6a39f685b5_21000000@@QAE@P6AXPAVomniCallDescriptor@@PAVomniServant@@@ZPBDI_N@Z
??0_0RL_cd_69ceca6a39f685b5_40000000@@QAE@P6AXPAVomniCallDescriptor@@PAVomniServant@@@ZPBDI_N@Z
??0_0RL_cd_69ceca6a39f685b5_41000000@@QAE@P6AXPAVomniCallDescriptor@@PAVomniServant@@@ZPBDI_N@Z
??0_0RL_cd_69ceca6a39f685b5_60000000@@QAE@P6AXPAVomniCallDescriptor@@PAVomniServant@@@ZPBDI_N@Z
??0_0RL_cd_69ceca6a39f685b5_61000000@@QAE@P6AXPAVomniCallDescriptor@@PAVomniServant@@@ZPBDI_N@Z
??0_0RL_cd_69ceca6a39f685b5_80000000@@QAE@P6AXPAVomniCallDescriptor@@PAVomniServant@@@ZPBDI_N@Z
??0_0RL_cd_69ceca6a39f685b5_81000000@@QAE@P6AXPAVomniCallDescriptor@@PAVomniServant@@@ZPBDI_N@Z
??0_0RL_cd_69ceca6a39f685b5_a0000000@@QAE@P6AXPAVomniCallDescriptor@@PAVomniServant@@@ZPBDI_N@Z
??0_0RL_cd_69ceca6a39f685b5_a1000000@@QAE@P6AXPAVomniCallDescriptor@@PAVomniServant@@@ZPBDI_N@Z
??0_0RL_cd_69ceca6a39f685b5_c0000000@@QAE@P6AXPAVomniCallDescriptor@@PAVomniServant@@@ZPBDI_N@Z
??0_0RL_cd_69ceca6a39f685b5_c1000000@@QAE@P6AXPAVomniCallDescriptor@@PAVomniServant@@@ZPBDI_N@Z
??0_0RL_cd_69ceca6a39f685b5_e0000000@@QAE@P6AXPAVomniCallDescriptor@@PAVomniServant@@@ZPBDI_N@Z
??0_0RL_cd_69ceca6a39f685b5_e1000000@@QAE@P6AXPAVomniCallDescriptor@@PAVomniServant@@@ZPBDI_N@Z
??0_0RL_cd_96f078e2247ab9da_00000000@@QAE@P6AXPAVomniCallDescriptor@@PAVomniServant@@@ZPBDI_N@Z
??0_0RL_cd_96f078e2247ab9da_20000000@@QAE@P6AXPAVomniCallDescriptor@@PAVomniServant@@@ZPBDI_N@Z
??0_CORBA_Sequence_Octet@@IAE@K_N@Z
??0_CORBA_Sequence_Octet@@IAE@XZ
??0_CORBA_Sequence_String@@IAE@ABV0@@Z
??0_CORBA_Sequence_String@@IAE@K_N@Z
??0_CORBA_Sequence_String@@IAE@XZ
??0_CORBA_String_element@@QAE@AAPAD_N@Z
??0_CORBA_String_member@@QAE@ABV0@@Z
??0_CORBA_String_member@@QAE@XZ
??0_CORBA_String_var@@QAE@ABV0@@Z
??0_CORBA_String_var@@QAE@PAD@Z
??0_CORBA_String_var@@QAE@PBD@Z
??0_CORBA_String_var@@QAE@XZ
??0_CORBA_Unbounded_Sequence_Octet@@QAE@K@Z
??0_CORBA_Unbounded_Sequence_Octet@@QAE@XZ
??0_CORBA_Unbounded_Sequence_String@@QAE@ABV0@@Z
??0_CORBA_Unbounded_Sequence_String@@QAE@K@Z
??0_CORBA_Unbounded_Sequence_String@@QAE@XZ
??0_CORBA_WString_element@@QAE@AAPA_W_N@Z
??0_cCORBA_mObject_i_cstring@omniStdCallDesc@@QAE@P6AXPAVomniCallDescriptor@@PAVomniServant@@@ZPBDI3_N@Z
??0_impl_CORBA_InitialReferences@@QAE@XZ
??0_objref_AdapterActivator@PortableServer@@QAE@PAVomniIOR@@PAVomniIdentity@@@Z
??0_objref_AdapterActivator@PortableServer@@QAE@XZ
??0_objref_BindingIterator@CosNaming@@QAE@PAVomniIOR@@PAVomniIdentity@@@Z
??0_objref_BindingIterator@CosNaming@@QAE@XZ
??0_objref_CORBA_InitialReferences@@QAE@PAVomniIOR@@PAVomniIdentity@@@Z
??0_objref_CORBA_InitialReferences@@QAE@XZ
??0_objref_NamingContext@CosNaming@@QAE@PAVomniIOR@@PAVomniIdentity@@@Z
??0_objref_NamingContext@CosNaming@@QAE@XZ
??0_objref_NamingContextExt@CosNaming@@QAE@PAVomniIOR@@PAVomniIdentity@@@Z
??0_objref_NamingContextExt@CosNaming@@QAE@XZ
??0_objref_ServantActivator@PortableServer@@QAE@PAVomniIOR@@PAVomniIdentity@@@Z
??0_objref_ServantActivator@PortableServer@@QAE@XZ
??0_objref_ServantLocator@PortableServer@@QAE@PAVomniIOR@@PAVomniIdentity@@@Z
??0_objref_ServantLocator@PortableServer@@QAE@XZ
??0_objref_ServantManager@PortableServer@@QAE@PAVomniIOR@@PAVomniIdentity@@@Z
??0_objref_ServantManager@PortableServer@@QAE@XZ
??0_omniFinalCleanup@@QAE@XZ
??0_pof_AdapterActivator@PortableServer@@QAE@XZ
??0_pof_BindingIterator@CosNaming@@QAE@XZ
??0_pof_CORBA_InitialReferences@@QAE@XZ
??0_pof_NamingContext@CosNaming@@QAE@XZ
??0_pof_NamingContextExt@CosNaming@@QAE@XZ
??0_pof_ServantActivator@PortableServer@@QAE@XZ
??0_pof_ServantLocator@PortableServer@@QAE@XZ
??0_pof_ServantManager@PortableServer@@QAE@XZ
??0abortOnInternalErrorHandler@@QAE@XZ
??0abortOnNativeExceptionHandler@@QAE@XZ
??0acceptBiDirectionalGIOPHandler@omni@@QAE@XZ
??0acceptMisalignedTcIndirectionsHandler@omni@@QAE@XZ
??0bootstrapAgentHostnameHandler@omni@@QAE@XZ
??0bootstrapAgentPortHandler@omni@@QAE@XZ
??0builtinIPv4Rule@omni@@QAE@PBDKK@Z
??0builtinIPv6Rule@omni@@QAE@PBDAAY0BA@$$CBEK@Z
??0builtinLocalHostRule@omni@@QAE@PBD@Z
??0builtinMatchAllRule@omni@@QAE@PBD@Z
??0builtinRuleType@omni@@QAE@XZ
??0cdrCountingStream@@QAE@PAVTCS_C@omniCodeSet@omni@@PAVTCS_W@23@I@Z
??0cdrEncapsulationStream@@QAE@AAVcdrStream@@K@Z
??0cdrEncapsulationStream@@QAE@ABV_CORBA_Unbounded_Sequence_Octet@@_N@Z
??0cdrEncapsulationStream@@QAE@K_N@Z
??0cdrEncapsulationStream@@QAE@PBEK_N@Z
??0cdrMemoryStream@@QAE@ABV0@_N@Z
??0cdrMemoryStream@@QAE@K_N@Z
??0cdrMemoryStream@@QAE@PAX@Z
??0cdrMemoryStream@@QAE@PAXI@Z
??0cdrStream@@QAE@XZ
??0clientCallTimeOutPeriodHandler@omni@@QAE@XZ
??0clientConnectTimeOutPeriodHandler@omni@@QAE@XZ
??0clientTransportRuleHandler@omni@@QAE@XZ
??0configFileHandler@omni@@QAE@XZ
??0connectionState@giopServer@omni@@QAE@PAVgiopConnection@2@PAVgiopStrand@2@@Z
??0connectionWatchImmediateHandler@omni@@QAE@XZ
??0connectionWatchPeriodHandler@omni@@QAE@XZ
??0copyValuesInLocalCallsHandler@omni@@QAE@XZ
??0corbalocURIHandler@omni@@QAE@XZ
??0corbanameURIHandler@omni@@QAE@XZ
??0diiThrowsSysExceptionsHandler@omni@@QAE@XZ
??0dumpConfigurationHandler@omni@@QAE@XZ
??0endpointHandler@omni@@QAE@XZ
??0endpointNoListenHandler@omni@@QAE@XZ
??0endpointNoPublishHandler@omni@@QAE@XZ
??0endpointPublishAllIFsHandler@omni@@QAE@XZ
??0endpointPublishHandler@omni@@QAE@XZ
??0exceptionStatus@logger@omniORB@@QAE@W4CompletionStatus@CORBA@@K@Z
??0exceptionStatus@logger@omniORB@@QAE@W4CompletionStatus@CORBA@@PBD@Z
??0fatalException@omniORB@@QAE@PBDH0@Z
??0giopActiveCollection@omni@@QAE@XZ
??0giopActiveConnection@omni@@QAE@XZ
??0giopAddress@omni@@QAE@XZ
??0giopConnection@omni@@QAE@XZ
??0giopEndpoint@omni@@QAE@XZ
??0giopMaxMsgSizeHandler@omni@@QAE@XZ
??0giopMonitor@omni@@QAE@PAVgiopActiveCollection@1@PAVgiopServer@1@@Z
??0giopRendezvouser@omni@@QAE@PAVgiopEndpoint@1@PAVgiopServer@1@_N@Z
??0giopRope@omni@@QAE@ABV?$omnivector@PAVgiopAddress@omni@@@@PAVIORInfo@omniIOR@@@Z
??0giopRope@omni@@QAE@PAVgiopAddress@1@@Z
??0giopServer@omni@@AAE@XZ
??0giopStrand@omni@@QAE@PAVgiopConnection@1@PAVgiopServer@1@@Z
??0giopStrand@omni@@QAE@PBVgiopAddress@1@@Z
??0giopStream@omni@@QAE@PAVgiopStrand@1@@Z
??0giopStreamImpl@omni@@QAE@ABUVersion@GIOP@@@Z
??0giopStreamList@omni@@QAE@XZ
??0giopTargetAddressModeHandler@omni@@QAE@XZ
??0giopTransportImpl@omni@@QAE@PBD@Z
??0giopWorker@omni@@QAE@PAVgiopStrand@1@PAVgiopServer@1@_N@Z
??0helpHandler@omni@@QAE@XZ
??0idHandler@omni@@QAE@XZ
??0idleThreadTimeoutHandler@omni@@QAE@XZ
??0immediateRopeSwitchHandler@omni@@QAE@XZ
??0inConScanPeriodHandler@omni@@QAE@XZ
??0info_T@assignAMIThread_T@omniInterceptors@omni@@QAE@XZ
??0info_T@assignUpcallThread_T@omniInterceptors@omni@@QAE@XZ
??0info_T@clientOpenConnection_T@omniInterceptors@omni@@QAE@AAVGIOP_C@3@@Z
??0info_T@clientReceiveReply_T@omniInterceptors@omni@@QAE@AAVGIOP_C@3@AAV?$_CORBA_Unbounded_Sequence@UServiceContext@IOP@@@@@Z
??0info_T@clientSendRequest_T@omniInterceptors@omni@@QAE@AAVGIOP_C@3@@Z
??0info_T@createIdentity_T@omniInterceptors@omni@@QAE@PAVomniIOR@@PBDAAPAVomniIdentity@@_N@Z
??0info_T@createORBServer_T@omniInterceptors@omni@@QAE@AAV?$omnivector@PAVorbServer@omni@@@@@Z
??0info_T@createRope_T@omniInterceptors@omni@@QAE@ABV?$omnivector@PAVgiopAddress@omni@@@@PAVIORInfo@omniIOR@@AAPAVgiopRope@3@@Z
??0info_T@createThread_T@omniInterceptors@omni@@QAE@XZ
??0info_T@decodeIOR_T@omniInterceptors@omni@@QAE@ABUProfileBody@IIOP@@AAVomniIOR@@_N@Z
??0info_T@encodeIOR_T@omniInterceptors@omni@@QAE@AAVomniIOR@@AAUProfileBody@IIOP@@ABVomniIORHints@@_N@Z
??0info_T@serverAcceptConnection_T@omniInterceptors@omni@@QAE@AAVgiopStrand@3@@Z
??0info_T@serverReceiveRequest_T@omniInterceptors@omni@@QAE@AAVGIOP_S@3@@Z
??0info_T@serverSendException_T@omniInterceptors@omni@@QAE@AAVGIOP_S@3@PBVException@CORBA@@@Z
??0info_T@serverSendReply_T@omniInterceptors@omni@@QAE@AAVGIOP_S@3@@Z
??0iorURIHandler@omni@@QAE@XZ
??0lcdModeHandler@omni@@QAE@XZ
??0listenBacklogHandler@omni@@QAE@XZ
??0logger@omniORB@@QAE@PBD@Z
??0maxClientThreadPoolSizeHandler@omni@@QAE@XZ
??0maxGIOPConnectionPerServerHandler@omni@@QAE@XZ
??0maxGIOPVersionHandler@omni@@QAE@XZ
??0maxInterleavedCallsPerConnectionHandler@omni@@QAE@XZ
??0maxServerThreadPerConnectionHandler@omni@@QAE@XZ
??0maxServerThreadPoolSizeHandler@omni@@QAE@XZ
??0maxSocketRecvHandler@omni@@QAE@XZ
??0maxSocketSendHandler@omni@@QAE@XZ
??0nativeCharCodeSetHandler@@QAE@XZ
??0nativeWCharCodeSetHandler@@QAE@XZ
??0objectTableSizeHandler@@QAE@XZ
??0offerBiDirectionalGIOPHandler@omni@@QAE@XZ
??0omniAnonObjRef@omni@@QAE@PAVomniIOR@@PAVomniIdentity@@@Z
??0omniAnonObjRef_pof@omni@@QAE@XZ
??0omniAsyncDedicated@@QAE@PAVomniAsyncInvoker@@@Z
??0omniAsyncInvoker@@QAE@XZ
??0omniAsyncPool@@QAE@PAVomniAsyncInvoker@@PBDI@Z
??0omniAsyncPoolClient@@QAE@PAVomniAsyncInvoker@@@Z
??0omniAsyncPoolGeneral@@QAE@PAVomniAsyncInvoker@@@Z
??0omniAsyncPoolServer@@QAE@PAVomniAsyncInvoker@@@Z
??0omniAsyncWorker@@QAE@PAVomniAsyncInvoker@@@Z
??0omniAsyncWorkerInfo@@QAE@PAVomniAsyncWorker@@@Z
??0omniCallDescriptor@@QAE@P6AXPAV0@PAVomniServant@@@ZPBDI_NPBQBDH4@Z
??0omniCallHandle@@QAE@PAVIOP_S@omni@@PAVomni_thread@@@Z
??0omniCallHandle@@QAE@PAVomniCallDescriptor@@_N@Z
??0omniClientWorkerInfo@@QAE@PAVomniAsyncWorker@@@Z
??0omniCurrent@@QAE@PAVomni_thread@@@Z
??0omniEtherealiser@@QAE@PAVomniObjTableEntry@@PAVServantActivator@PortableServer@@PAVomniOrbPOA@omni@@PBEH_N@Z
??0omniExHandlers@@AAE@XZ
??0omniExHandlers_iterator@@QAE@XZ
??0omniIOR@@QAE@PADPAUTaggedProfile@IOP@@KK@Z
??0omniIOR@@QAE@PADPAV?$_CORBA_Unbounded_Sequence@UTaggedProfile@IOP@@@@@Z
??0omniIOR@@QAE@PBDABV_CORBA_Unbounded_Sequence_Octet@@PBUAddress@IIOP@@KUVersion@GIOP@@W4interceptorOption@0@PBV?$_CORBA_Unbounded_Sequence@UTaggedComponent@IOP@@@@@Z
??0omniIOR@@QAE@PBDPBEHABVomniIORHints@@@Z
??0omniIORHints@@QAE@PBV?$_CORBA_Pseudo_Unbounded_Sequence@VPolicy@CORBA@@V?$_CORBA_PseudoObj_Member@VPolicy@CORBA@@V?$_CORBA_PseudoObj_Var@VPolicy@CORBA@@@@@@@@@Z
??0omniIOR_var@@QAE@PAVomniIOR@@@Z
??0omniIOR_var@@QAE@XZ
??0omniIdentity@@IAE@AAVomniObjKey@@@Z
??0omniIdentity@@IAE@PBEH@Z
??0omniIdentity@@IAE@XZ
??0omniInProcessIdentity@@QAE@PBEH@Z
??0omniInProcessIdentity_RefHolder@omni@@QAE@PAVomniInProcessIdentity@@@Z
??0omniInitialiser@omni@@QAE@XZ
??0omniInterceptors@omni@@AAE@XZ
??0omniLocalIdentity@@QAE@AAVomniObjKey@@PAVomniServant@@PAVomniObjAdapter@omni@@@Z
??0omniLocalIdentity@@QAE@PBEHPAVomniServant@@PAVomniObjAdapter@omni@@@Z
??0omniLocalIdentity_RefHolder@omni@@QAE@PAVomniLocalIdentity@@@Z
??0omniLocalOnlyCallDescriptor@@QAE@P6AXPAVomniCallDescriptor@@PAVomniServant@@@ZPBDI_N@Z
??0omniNilCurrent@@QAE@XZ
??0omniObjAdapter@omni@@IAE@H@Z
??0omniObjAdapter_var@omni@@QAE@PAVomniObjAdapter@1@@Z
??0omniObjKey@@QAE@AAV0@H@Z
??0omniObjKey@@QAE@PBEH@Z
??0omniObjKey@@QAE@XZ
??0omniObjRef@@IAE@PBDPAVomniIOR@@PAVomniIdentity@@_N@Z
??0omniObjRef@@IAE@XZ
??0omniObjTableEntry@@QAE@AAVomniObjKey@@@Z
??0omniOrbBOA@omni@@QAE@H@Z
??0omniOrbBoaServant@@QAE@XZ
??0omniOrbORB@@QAE@H@Z
??0omniOrbPOA@omni@@QAE@PBDPAVomniOrbPOAManager@1@ABUPolicies@01@ABV?$_CORBA_Pseudo_Unbounded_Sequence@VPolicy@CORBA@@V?$_CORBA_PseudoObj_Member@VPolicy@CORBA@@V?$_CORBA_PseudoObj_Var@VPolicy@CORBA@@@@@@@@PAV01@@Z
??0omniOrbPOA@omni@@QAE@XZ
??0omniOrbPOACurrent@omni@@QAE@_N@Z
??0omniOrbPOAManager@omni@@QAE@H@Z
??0omniRemoteIdentity@@QAE@PAVomniIOR@@PBEKPAVRope@omni@@@Z
??0omniRemoteIdentity_RefHolder@omni@@QAE@PAVomniRemoteIdentity@@@Z
??0omniServant@@IAE@XZ
??0omniServantActivatorTaskQueue@omni@@QAE@XZ
??0omniServerWorkerInfo@@QAE@PAVomniAsyncWorker@@@Z
??0omniShutdownIdentity@@AAE@XZ
??0omniTask@@QAE@W4Category@0@W4Purpose@0@@Z
??0omniTaskLink@@QAE@XZ
??0omni_ObjRef_initialiser@omni@@QAE@XZ
??0omni_cdrStream_initialiser@omni@@QAE@XZ
??0omni_codeSet_initialiser@omni@@QAE@XZ
??0omni_corbaOrb_initialiser@omni@@QAE@XZ
??0omni_dynamiclib_initialiser@omni@@QAE@XZ
??0omni_giopEndpoint_initialiser@omni@@QAE@XZ
??0omni_giopImpl10_initialiser@omni@@QAE@XZ
??0omni_giopImpl11_initialiser@omni@@QAE@XZ
??0omni_giopImpl12_initialiser@omni@@QAE@XZ
??0omni_giopRope_initialiser@omni@@QAE@XZ
??0omni_giopStrand_initialiser@omni@@QAE@XZ
??0omni_giopStreamImpl_initialiser@omni@@QAE@XZ
??0omni_giopbidir_initialiser@omni@@QAE@XZ
??0omni_giopserver_initialiser@omni@@QAE@XZ
??0omni_hooked_initialiser@omni@@QAE@XZ
??0omni_initRefs_initialiser@omni@@QAE@XZ
??0omni_interceptor_initialiser@omni@@QAE@XZ
??0omni_interface_CallDesc@omni@@QAE@PBDH_N@Z
??0omni_invoker_initialiser@omni@@QAE@XZ
??0omni_ior_initialiser@omni@@QAE@XZ
??0omni_is_a_CallDesc@omni@@QAE@PBDH0_N@Z
??0omni_mutex_lock@@QAE@AAVomni_mutex@@@Z
??0omni_non_existent_CallDesc@omni@@QAE@PBDH_N@Z
??0omni_objadpt_initialiser@omni@@QAE@XZ
??0omni_omniCurrent_initialiser@omni@@QAE@XZ
??0omni_omniIOR_initialiser@omni@@QAE@XZ
??0omni_omniInternal_initialiser@omni@@QAE@XZ
??0omni_omniTransport_initialiser@omni@@QAE@XZ
??0omni_optional_lock@@QAE@AAVomni_tracedmutex@@HH@Z
??0omni_optional_rlock@@QAE@PAVomni_rmutex@@HH@Z
??0omni_orbOptions_initialiser@omni@@QAE@XZ
??0omni_poa_initialiser@omni@@QAE@XZ
??0omni_refcount@@QAE@H@Z
??0omni_rmutex@@QAE@XZ
??0omni_time_t@@QAE@KK@Z
??0omni_tracedcondition@@QAE@PAVomni_tracedmutex@@PBD@Z
??0omni_tracedmutex@@QAE@PBD@Z
??0omni_tracedmutex_unlock@@QAE@AAVomni_tracedmutex@@@Z
??0omni_transportRules_initialiser@omni@@QAE@XZ
??0omni_uri_initialiser@omni@@QAE@XZ
??0oneCallPerConnectionHandler@omni@@QAE@XZ
??0orbOptions@omni@@AAE@XZ
??0orbServer@omni@@QAE@XZ
??0outConScanPeriodHandler@omni@@QAE@XZ
??0poaCurrentStackInsert@omni@@QAE@PAVomniCallDescriptor@@PAVomni_thread@@@Z
??0poaHoldRequestTimeoutHandler@omni@@QAE@XZ
??0poaUniquePersistentSystemIdsHandler@omni@@QAE@XZ
??0principalHandler@omni@@QAE@XZ
??0proxyObjectFactory@omni@@QAE@PBD@Z
??0resetTimeOutOnRetriesHandler@omni@@QAE@XZ
??0resolvePseudoEntry@omni@@QAE@PBDP6APAVObject@CORBA@@XZ@Z
??0resolvePseudoEntry@omni@@QAE@XZ
??0scanGranularityHandler@omni@@QAE@XZ
??0serverCallTimeOutPeriodHandler@omni@@QAE@XZ
??0serverTransportRuleHandler@omni@@QAE@XZ
??0serviceRecord@omni@@QAE@XZ
??0socketSendBufferHandler@omni@@QAE@XZ
??0strictIIOPHandler@omni@@QAE@XZ
??0supportBootstrapAgentHandler@omni@@QAE@XZ
??0supportCurrentHandler@@QAE@XZ
??0supportPerThreadTimeOutHandler@omni@@QAE@XZ
??0tcAliasExpandHandler@omni@@QAE@XZ
??0tcpActiveCollection@omni@@QAE@XZ
??0tcpActiveConnection@omni@@QAE@I@Z
??0tcpAddress@omni@@QAE@ABUAddress@IIOP@@@Z
??0tcpConnection@omni@@QAE@IPAVSocketCollection@1@@Z
??0tcpEndpoint@omni@@QAE@PBD@Z
??0tcpTransportImpl@omni@@QAE@XZ
??0terminateProcessing@GIOP_S@omni@@QAE@XZ
??0threadPerConnectionLowerLimitHandler@omni@@QAE@XZ
??0threadPerConnectionPolicyHandler@omni@@QAE@XZ
??0threadPerConnectionUpperLimitHandler@omni@@QAE@XZ
??0threadPoolWatchConnectionHandler@omni@@QAE@XZ
??0throwTransientOnTimeOutHandler@@QAE@XZ
??0traceExceptionsHandler@@QAE@XZ
??0traceFileHandler@@QAE@XZ
??0traceInvocationReturnsHandler@@QAE@XZ
??0traceInvocationsHandler@@QAE@XZ
??0traceLevelHandler@@QAE@XZ
??0traceLockingHandler@@QAE@XZ
??0traceThreadIdHandler@@QAE@XZ
??0traceTimeHandler@@QAE@XZ
??0transportRules@omni@@QAE@XZ
??0unixTransportDirectoryHandler@omni@@QAE@XZ
??0unixTransportPermissionHandler@omni@@QAE@XZ
??0useTypeCodeIndirectionsHandler@omni@@QAE@XZ
??0validateUTF8Handler@omni@@QAE@XZ
??0value_t@omni_thread@@QAE@XZ
??0verifyObjectExistsAndTypeHandler@omni@@QAE@XZ
??1?$Servant_var@VServantBase@PortableServer@@@PortableServer@@QAE@XZ
??1?$_CORBA_ConstrType_Variable_Var@UBinding@CosNaming@@@@QAE@XZ
??1?$_CORBA_ObjRef_Element@VPOA@PortableServer@@VPOA_Helper@2@@@QAE@XZ
??1?$_CORBA_ObjRef_Member@V_objref_Contained@CORBA@@VContained_Helper@2@@@QAE@XZ
??1?$_CORBA_ObjRef_Member@V_objref_IDLType@CORBA@@VIDLType_Helper@2@@@QAE@XZ
??1?$_CORBA_ObjRef_Member@V_objref_NamingContext@CosNaming@@VNamingContext_Helper@2@@@QAE@XZ
??1?$_CORBA_ObjRef_OUT_arg@V_objref_BindingIterator@CosNaming@@VBindingIterator_Helper@2@@@QAE@XZ
??1?$_CORBA_ObjRef_Var@VServantActivator@PortableServer@@VServantActivator_Helper@2@@@QAE@XZ
??1?$_CORBA_ObjRef_Var@VServantLocator@PortableServer@@VServantLocator_Helper@2@@@QAE@XZ
??1?$_CORBA_ObjRef_Var@V_objref_BindingIterator@CosNaming@@VBindingIterator_Helper@2@@@QAE@XZ
??1?$_CORBA_ObjRef_Var@V_objref_NamingContext@CosNaming@@VNamingContext_Helper@2@@@QAE@XZ
??1?$_CORBA_PseudoObj_Member@VDynAny@DynamicAny@@V?$_CORBA_PseudoObj_Var@VDynAny@DynamicAny@@@@@@QAE@XZ
??1?$_CORBA_PseudoObj_Member@VPolicy@CORBA@@V?$_CORBA_PseudoObj_Var@VPolicy@CORBA@@@@@@QAE@XZ
??1?$_CORBA_PseudoObj_Var@VBidirectionalPolicy@BiDirPolicy@@@@QAE@XZ
??1?$_CORBA_PseudoObj_Var@VEndPointPublishPolicy@omniPolicy@@@@QAE@XZ
??1?$_CORBA_PseudoObj_Var@VIdAssignmentPolicy@PortableServer@@@@QAE@XZ
??1?$_CORBA_PseudoObj_Var@VIdUniquenessPolicy@PortableServer@@@@QAE@XZ
??1?$_CORBA_PseudoObj_Var@VImplicitActivationPolicy@PortableServer@@@@QAE@XZ
??1?$_CORBA_PseudoObj_Var@VLifespanPolicy@PortableServer@@@@QAE@XZ
??1?$_CORBA_PseudoObj_Var@VLocalShortcutPolicy@omniPolicy@@@@QAE@XZ
??1?$_CORBA_PseudoObj_Var@VPOA@PortableServer@@@@QAE@XZ
??1?$_CORBA_PseudoObj_Var@VRequestProcessingPolicy@PortableServer@@@@QAE@XZ
??1?$_CORBA_PseudoObj_Var@VServantRetentionPolicy@PortableServer@@@@QAE@XZ
??1?$_CORBA_PseudoObj_Var@VThreadPolicy@PortableServer@@@@QAE@XZ
??1?$_CORBA_PseudoValue_Sequence@PAVIORExtraInfo@omniIOR@@@@QAE@XZ
??1?$_CORBA_PseudoValue_Sequence@PAVomniOrbPOA@omni@@@@QAE@XZ
??1?$_CORBA_PseudoValue_Sequence@UserviceRecord@omni@@@@QAE@XZ
??1?$_CORBA_Pseudo_Unbounded_Sequence@VPolicy@CORBA@@V?$_CORBA_PseudoObj_Member@VPolicy@CORBA@@V?$_CORBA_PseudoObj_Var@VPolicy@CORBA@@@@@@@@QAE@XZ
??1?$_CORBA_Sequence@E@@QAE@XZ
??1?$_CORBA_Sequence@K@@QAE@XZ
??1?$_CORBA_Sequence@UAddress@IIOP@@@@QAE@XZ
??1?$_CORBA_Sequence@UBinding@CosNaming@@@@QAE@XZ
??1?$_CORBA_Sequence@UExceptionDescription@CORBA@@@@QAE@XZ
??1?$_CORBA_Sequence@UNameComponent@CosNaming@@@@QAE@XZ
??1?$_CORBA_Sequence@UParameterDescription@CORBA@@@@QAE@XZ
??1?$_CORBA_Sequence@UServiceContext@IOP@@@@QAE@XZ
??1?$_CORBA_Sequence@UStructMember@CORBA@@@@QAE@XZ
??1?$_CORBA_Sequence@UTaggedComponent@IOP@@@@QAE@XZ
??1?$_CORBA_Sequence@UTaggedProfile@IOP@@@@QAE@XZ
??1?$_CORBA_Sequence@V_CORBA_Unbounded_Sequence_Octet@@@@QAE@XZ
??1?$_CORBA_Unbounded_Sequence@K@@QAE@XZ
??1?$_CORBA_Unbounded_Sequence@UAddress@IIOP@@@@QAE@XZ
??1?$_CORBA_Unbounded_Sequence@UBinding@CosNaming@@@@QAE@XZ
??1?$_CORBA_Unbounded_Sequence@UExceptionDescription@CORBA@@@@QAE@XZ
??1?$_CORBA_Unbounded_Sequence@UNameComponent@CosNaming@@@@QAE@XZ
??1?$_CORBA_Unbounded_Sequence@UParameterDescription@CORBA@@@@QAE@XZ
??1?$_CORBA_Unbounded_Sequence@UServiceContext@IOP@@@@QAE@XZ
??1?$_CORBA_Unbounded_Sequence@UStructMember@CORBA@@@@QAE@XZ
??1?$_CORBA_Unbounded_Sequence@UTaggedComponent@IOP@@@@QAE@XZ
??1?$_CORBA_Unbounded_Sequence@UTaggedProfile@IOP@@@@QAE@XZ
??1?$_CORBA_Unbounded_Sequence@V_CORBA_Unbounded_Sequence_Octet@@@@QAE@XZ
??1?$_CORBA_Unbounded_Sequence_w_FixSizeElement@K$03$03@@QAE@XZ
??1?$omnivector@K@@QAE@XZ
??1?$omnivector@PAUEndpointURI@Options@omniObjAdapter@omni@@@@QAE@XZ
??1?$omnivector@PAUHandlerValuePair@orbOptions@omni@@@@QAE@XZ
??1?$omnivector@PAURuleActionPair@transportRules@omni@@@@QAE@XZ
??1?$omnivector@PAVHandler@orbOptions@omni@@@@QAE@XZ
??1?$omnivector@PAVObject@CORBA@@@@QAE@XZ
??1?$omnivector@PAVRuleType@transportRules@omni@@@@QAE@XZ
??1?$omnivector@PAVURIHandler@omniURI@omni@@@@QAE@XZ
??1?$omnivector@PAVgiopActiveCollection@omni@@@@QAE@XZ
??1?$omnivector@PAVgiopAddress@omni@@@@QAE@XZ
??1?$omnivector@PAVgiopEndpoint@omni@@@@QAE@XZ
??1?$omnivector@PAVgiopStrand@omni@@@@QAE@XZ
??1?$omnivector@PAVomniInitialiser@omni@@@@QAE@XZ
??1?$omnivector@PAVomniObjRef@@@@QAE@XZ
??1?$omnivector@PAVomniObjTableEntry@@@@QAE@XZ
??1?$omnivector@PAVomniTrackedObject@omni@@@@QAE@XZ
??1?$omnivector@PAVorbServer@omni@@@@QAE@XZ
??1?$omnivector@PBD@@QAE@XZ
??1?$omnivector@UresolvePseudoEntry@omni@@@@QAE@XZ
??1AdapterActivator@POA_PortableServer@@UAE@XZ
??1AdapterActivator@PortableServer@@MAE@XZ
??1AdapterAlreadyExists@POA@PortableServer@@UAE@XZ
??1AdapterInactive@POA@PortableServer@@UAE@XZ
??1AdapterInactive@POAManager@PortableServer@@UAE@XZ
??1AdapterNonExistent@POA@PortableServer@@UAE@XZ
??1AddrInfo@LibcWrapper@omni@@UAE@XZ
??1AddrInfo_var@LibcWrapper@omni@@QAE@XZ
??1Address@IIOP@@QAE@XZ
??1AlreadyBound@NamingContext@CosNaming@@UAE@XZ
??1AsyncRequest@omni@@MAE@XZ
??1AttributeDescription@CORBA@@QAE@XZ
??1BAD_CONTEXT@CORBA@@UAE@XZ
??1BAD_INV_ORDER@CORBA@@UAE@XZ
??1BAD_OPERATION@CORBA@@UAE@XZ
??1BAD_PARAM@CORBA@@UAE@XZ
??1BAD_QOS@CORBA@@UAE@XZ
??1BAD_TYPECODE@CORBA@@UAE@XZ
??1BOA@CORBA@@MAE@XZ
??1BOA_var@CORBA@@QAE@XZ
??1BadParam@orbOptions@omni@@QAE@XZ
??1Base@omniCodeSet@omni@@MAE@XZ
??1BiDirClientRope@omni@@UAE@XZ
??1BiDirInfo@omni@@UAE@XZ
??1BiDirServerRope@omni@@UAE@XZ
??1BidirectionalPolicy@BiDirPolicy@@UAE@XZ
??1Binding@CosNaming@@QAE@XZ
??1BindingIterator@POA_CosNaming@@UAE@XZ
??1BindingList@CosNaming@@QAE@XZ
??1BindingList_var@CosNaming@@QAE@XZ
??1BufferC@omniCodeSetUtil@omni@@QAE@XZ
??1BufferCompressor@omni@@QAE@XZ
??1BufferU@omniCodeSetUtil@omni@@QAE@XZ
??1CODESET_INCOMPATIBLE@CORBA@@UAE@XZ
??1COMM_FAILURE@CORBA@@UAE@XZ
??1CORBA_InitialReferences_i@omni@@UAE@XZ
??1CannotProceed@NamingContext@CosNaming@@UAE@XZ
??1CodeSetComponent@CONV_FRAME@omni@@QAE@XZ
??1CodeSetComponentInfo@CONV_FRAME@omni@@QAE@XZ
??1CommFailure@giopStream@omni@@QAE@XZ
??1ContextIdSeq@CORBA@@QAE@XZ
??1Current@CORBA@@MAE@XZ
??1Current@PortableServer@@MAE@XZ
??1DATA_CONVERSION@CORBA@@UAE@XZ
??1DefaultInitRefHandler@omni@@UAE@XZ
??1Description@Container@CORBA@@QAE@XZ
??1EndPointPublishPolicy@omniPolicy@@UAE@XZ
??1EndpointURI@Options@omniObjAdapter@omni@@QAE@XZ
??1ExcDescriptionSeq@CORBA@@QAE@XZ
??1Exception@CORBA@@UAE@XZ
??1ExceptionDescription@CORBA@@QAE@XZ
??1FREE_MEM@CORBA@@UAE@XZ
??1Fixed@CORBA@@QAE@XZ
??1ForwardRequest@PortableServer@@UAE@XZ
??1FullAddrInfo@omni@@UAE@XZ
??1GIOP_C@omni@@UAE@XZ
??1GIOP_S@omni@@UAE@XZ
??1GIOP_S_Holder@omni@@QAE@XZ
??1Handler@orbOptions@omni@@MAE@XZ
??1HandlerValuePair@orbOptions@omni@@QAE@XZ
??1HolderC@omniCodeSetUtil@omni@@QAE@XZ
??1HolderU@omniCodeSetUtil@omni@@QAE@XZ
??1HolderW@omniCodeSetUtil@omni@@QAE@XZ
??1IMP_LIMIT@CORBA@@UAE@XZ
??1INITIALIZE@CORBA@@UAE@XZ
??1INTERNAL@CORBA@@UAE@XZ
??1INTF_REPOS@CORBA@@UAE@XZ
??1INVALID_TRANSACTION@CORBA@@UAE@XZ
??1INV_FLAG@CORBA@@UAE@XZ
??1INV_IDENT@CORBA@@UAE@XZ
??1INV_OBJREF@CORBA@@UAE@XZ
??1INV_POLICY@CORBA@@UAE@XZ
??1IOP_C@omni@@UAE@XZ
??1IOP_C_Holder@omni@@QAE@XZ
??1IOP_S@omni@@UAE@XZ
??1IOR@IOP@@QAE@XZ
??1IORAddressingInfo@GIOP@@QAE@XZ
??1IORExtraInfo@omniIOR@@UAE@XZ
??1IORInfo@omniIOR@@QAE@XZ
??1IORPublish@omni@@QAE@XZ
??1IdAssignmentPolicy@PortableServer@@UAE@XZ
??1IdUniquenessPolicy@PortableServer@@UAE@XZ
??1IiopObjAddr@corbalocURIHandler@omni@@UAE@XZ
??1ImplicitActivationPolicy@PortableServer@@UAE@XZ
??1InitRefHandler@omni@@UAE@XZ
??1Initializer@CORBA@@QAE@XZ
??1InvalidAddress@NamingContextExt@CosNaming@@UAE@XZ
??1InvalidName@NamingContext@CosNaming@@UAE@XZ
??1InvalidName@ORB@CORBA@@UAE@XZ
??1InvalidPolicy@POA@PortableServer@@UAE@XZ
??1LifespanPolicy@PortableServer@@UAE@XZ
??1LocalObject@CORBA@@UAE@XZ
??1LocalShortcutPolicy@omniPolicy@@UAE@XZ
??1MARSHAL@CORBA@@UAE@XZ
??1NCS_C@omniCodeSet@omni@@UAE@XZ
??1NCS_C_8bit@omniCodeSet@omni@@UAE@XZ
??1NCS_C_UTF_8@omni@@UAE@XZ
??1NCS_W@omniCodeSet@omni@@UAE@XZ
??1NCS_W_UTF_16@omni@@UAE@XZ
??1NO_IMPLEMENT@CORBA@@UAE@XZ
??1NO_MEMORY@CORBA@@UAE@XZ
??1NO_PERMISSION@CORBA@@UAE@XZ
??1NO_RESOURCES@CORBA@@UAE@XZ
??1NO_RESPONSE@CORBA@@UAE@XZ
??1Name@CosNaming@@QAE@XZ
??1NameComponent@CosNaming@@QAE@XZ
??1NameDynAnyPair@DynamicAny@@QAE@XZ
??1NameValuePair@DynamicAny@@QAE@XZ
??1Name_var@CosNaming@@QAE@XZ
??1NamingContext@POA_CosNaming@@UAE@XZ
??1NamingContextExt@POA_CosNaming@@UAE@XZ
??1NoContext@Current@PortableServer@@UAE@XZ
??1NoServant@POA@PortableServer@@UAE@XZ
??1NotEmpty@NamingContext@CosNaming@@UAE@XZ
??1NotFound@NamingContext@CosNaming@@UAE@XZ
??1OBJECT_NOT_EXIST@CORBA@@UAE@XZ
??1OBJ_ADAPTER@CORBA@@UAE@XZ
??1ORB@CORBA@@UAE@XZ
??1ObjAddr@corbalocURIHandler@omni@@UAE@XZ
??1ObjAddrList@corbalocURIHandler@omni@@QAE@XZ
??1ObjIdList@CORBA_InitialReferences@@QAE@XZ
??1ObjIdList_var@CORBA_InitialReferences@@QAE@XZ
??1Object@CORBA@@UAE@XZ
??1ObjectAlreadyActive@POA@PortableServer@@UAE@XZ
??1ObjectId@PortableServer@@QAE@XZ
??1ObjectNotActive@POA@PortableServer@@UAE@XZ
??1Object_Member@CORBA@@QAE@XZ
??1Object_var@CORBA@@QAE@XZ
??1OperationDescription@CORBA@@QAE@XZ
??1Options@omniObjAdapter@omni@@QAE@XZ
??1PERSIST_STORE@CORBA@@UAE@XZ
??1POA@PortableServer@@MAE@XZ
??1POAManager@PortableServer@@MAE@XZ
??1POA_CORBA_InitialReferences@@UAE@XZ
??1ParDescriptionSeq@CORBA@@QAE@XZ
??1ParameterDescription@CORBA@@QAE@XZ
??1Parsed@corbalocURIHandler@omni@@QAE@XZ
??1Policy@CORBA@@UAE@XZ
??1PolicyError@CORBA@@UAE@XZ
??1PostInvokeHook@omniCallHandle@@UAE@XZ
??1ProfileBody@IIOP@@QAE@XZ
??1REBIND@CORBA@@UAE@XZ
??1RequestProcessingPolicy@PortableServer@@UAE@XZ
??1RirObjAddr@corbalocURIHandler@omni@@UAE@XZ
??1Rope@omni@@UAE@XZ
??1Rule@transportRules@omni@@UAE@XZ
??1RuleActionPair@transportRules@omni@@QAE@XZ
??1RuleType@transportRules@omni@@UAE@XZ
??1SLPostInvokeHook@omniOrbPOA@omni@@UAE@XZ
??1Scavenger@omni@@UAE@XZ
??1ServantActivator@POA_PortableServer@@UAE@XZ
??1ServantActivator@PortableServer@@MAE@XZ
??1ServantAlreadyActive@POA@PortableServer@@UAE@XZ
??1ServantBase@PortableServer@@UAE@XZ
??1ServantLocator@POA_PortableServer@@UAE@XZ
??1ServantLocator@PortableServer@@MAE@XZ
??1ServantManager@POA_PortableServer@@UAE@XZ
??1ServantManager@PortableServer@@MAE@XZ
??1ServantNotActive@POA@PortableServer@@UAE@XZ
??1ServantRetentionPolicy@PortableServer@@UAE@XZ
??1ServiceContext@IOP@@QAE@XZ
??1SocketCollection@omni@@UAE@XZ
??1SocketHolder@omni@@UAE@XZ
??1SsliopObjAddr@corbalocURIHandler@omni@@UAE@XZ
??1Strand@omni@@UAE@XZ
??1StreamAdapterStateCopier@omni@@QAE@XZ
??1StringSeq@CORBA@@QAE@XZ
??1StringSeq_var@CORBA@@QAE@XZ
??1StructMember@CORBA@@QAE@XZ
??1StructMemberSeq@CORBA@@QAE@XZ
??1SystemException@CORBA@@UAE@XZ
??1TCS_C@omniCodeSet@omni@@UAE@XZ
??1TCS_C_8bit@omniCodeSet@omni@@UAE@XZ
??1TCS_C_UTF_8@omni@@UAE@XZ
??1TCS_W@omniCodeSet@omni@@UAE@XZ
??1TCS_W_UTF_16@omni@@UAE@XZ
??1TIMEOUT@CORBA@@UAE@XZ
??1TRANSACTION_MODE@CORBA@@UAE@XZ
??1TRANSACTION_REQUIRED@CORBA@@UAE@XZ
??1TRANSACTION_ROLLEDBACK@CORBA@@UAE@XZ
??1TRANSACTION_UNAVAILABLE@CORBA@@UAE@XZ
??1TRANSIENT@CORBA@@UAE@XZ
??1TaggedComponent@IOP@@QAE@XZ
??1TaggedProfile@IOP@@QAE@XZ
??1TaggedProfileList_var@IOP@@QAE@XZ
??1Task@omniServantActivatorTaskQueue@omni@@UAE@XZ
??1ThreadPolicy@PortableServer@@UAE@XZ
??1UNKNOWN@CORBA@@UAE@XZ
??1URIHandler@omniURI@omni@@UAE@XZ
??1UiopObjAddr@corbalocURIHandler@omni@@UAE@XZ
??1UnionMember@CORBA@@QAE@XZ
??1Unknown@orbOptions@omni@@QAE@XZ
??1UserException@CORBA@@UAE@XZ
??1ValueIndirectionTracker@omni@@UAE@XZ
??1ValueMember@CORBA@@QAE@XZ
??1WrongAdapter@POA@PortableServer@@UAE@XZ
??1WrongPolicy@POA@PortableServer@@UAE@XZ
??1_0RL_cd_3c165f58b5a16b59_00000000@@UAE@XZ
??1_0RL_cd_3c165f58b5a16b59_20000000@@UAE@XZ
??1_0RL_cd_3c165f58b5a16b59_40000000@@UAE@XZ
??1_0RL_cd_3c165f58b5a16b59_60000000@@UAE@XZ
??1_0RL_cd_3c165f58b5a16b59_80000000@@UAE@XZ
??1_0RL_cd_69ceca6a39f685b5_00000000@@UAE@XZ
??1_0RL_cd_69ceca6a39f685b5_01000000@@UAE@XZ
??1_0RL_cd_69ceca6a39f685b5_02000000@@UAE@XZ
??1_0RL_cd_69ceca6a39f685b5_20000000@@UAE@XZ
??1_0RL_cd_69ceca6a39f685b5_21000000@@UAE@XZ
??1_0RL_cd_69ceca6a39f685b5_40000000@@UAE@XZ
??1_0RL_cd_69ceca6a39f685b5_41000000@@UAE@XZ
??1_0RL_cd_69ceca6a39f685b5_60000000@@UAE@XZ
??1_0RL_cd_69ceca6a39f685b5_61000000@@UAE@XZ
??1_0RL_cd_69ceca6a39f685b5_80000000@@UAE@XZ
??1_0RL_cd_69ceca6a39f685b5_81000000@@UAE@XZ
??1_0RL_cd_69ceca6a39f685b5_a0000000@@UAE@XZ
??1_0RL_cd_69ceca6a39f685b5_a1000000@@UAE@XZ
??1_0RL_cd_69ceca6a39f685b5_c0000000@@UAE@XZ
??1_0RL_cd_69ceca6a39f685b5_c1000000@@UAE@XZ
??1_0RL_cd_69ceca6a39f685b5_e0000000@@UAE@XZ
??1_0RL_cd_69ceca6a39f685b5_e1000000@@UAE@XZ
??1_0RL_cd_96f078e2247ab9da_00000000@@UAE@XZ
??1_0RL_cd_96f078e2247ab9da_20000000@@UAE@XZ
??1_CORBA_Sequence_Octet@@IAE@XZ
??1_CORBA_Sequence_String@@QAE@XZ
??1_CORBA_String_element@@QAE@XZ
??1_CORBA_String_member@@QAE@XZ
??1_CORBA_String_var@@QAE@XZ
??1_CORBA_Unbounded_Sequence_Octet@@QAE@XZ
??1_CORBA_Unbounded_Sequence_String@@QAE@XZ
??1_CORBA_WString_element@@QAE@XZ
??1_cCORBA_mObject_i_cstring@omniStdCallDesc@@UAE@XZ
??1_impl_AdapterActivator@PortableServer@@UAE@XZ
??1_impl_BindingIterator@CosNaming@@UAE@XZ
??1_impl_CORBA_InitialReferences@@UAE@XZ
??1_impl_NamingContext@CosNaming@@UAE@XZ
??1_impl_NamingContextExt@CosNaming@@UAE@XZ
??1_impl_ServantActivator@PortableServer@@UAE@XZ
??1_impl_ServantLocator@PortableServer@@UAE@XZ
??1_impl_ServantManager@PortableServer@@UAE@XZ
??1_objref_AdapterActivator@PortableServer@@MAE@XZ
??1_objref_BindingIterator@CosNaming@@MAE@XZ
??1_objref_CORBA_InitialReferences@@MAE@XZ
??1_objref_NamingContext@CosNaming@@MAE@XZ
??1_objref_NamingContextExt@CosNaming@@MAE@XZ
??1_objref_ServantActivator@PortableServer@@MAE@XZ
??1_objref_ServantLocator@PortableServer@@MAE@XZ
??1_objref_ServantManager@PortableServer@@MAE@XZ
??1_omniFinalCleanup@@QAE@XZ
??1_pof_AdapterActivator@PortableServer@@UAE@XZ
??1_pof_BindingIterator@CosNaming@@UAE@XZ
??1_pof_CORBA_InitialReferences@@UAE@XZ
??1_pof_NamingContext@CosNaming@@UAE@XZ
??1_pof_NamingContextExt@CosNaming@@UAE@XZ
??1_pof_ServantActivator@PortableServer@@UAE@XZ
??1_pof_ServantLocator@PortableServer@@UAE@XZ
??1_pof_ServantManager@PortableServer@@UAE@XZ
??1abortOnInternalErrorHandler@@UAE@XZ
??1abortOnNativeExceptionHandler@@UAE@XZ
??1acceptBiDirectionalGIOPHandler@omni@@UAE@XZ
??1acceptMisalignedTcIndirectionsHandler@omni@@UAE@XZ
??1bootstrapAgentHostnameHandler@omni@@UAE@XZ
??1bootstrapAgentPortHandler@omni@@UAE@XZ
??1builtinIPv4Rule@omni@@UAE@XZ
??1builtinIPv6Rule@omni@@UAE@XZ
??1builtinLocalHostRule@omni@@UAE@XZ
??1builtinMatchAllRule@omni@@UAE@XZ
??1builtinRuleType@omni@@UAE@XZ
??1cdrCountingStream@@UAE@XZ
??1cdrEncapsulationStream@@UAE@XZ
??1cdrMemoryStream@@UAE@XZ
??1cdrStream@@UAE@XZ
??1cdrValueChunkStream@@UAE@XZ
??1clientCallTimeOutPeriodHandler@omni@@UAE@XZ
??1clientConnectTimeOutPeriodHandler@omni@@UAE@XZ
??1clientTransportRuleHandler@omni@@UAE@XZ
??1configFileHandler@omni@@UAE@XZ
??1connectionState@giopServer@omni@@QAE@XZ
??1connectionWatchImmediateHandler@omni@@UAE@XZ
??1connectionWatchPeriodHandler@omni@@UAE@XZ
??1copyValuesInLocalCallsHandler@omni@@UAE@XZ
??1corbalocURIHandler@omni@@UAE@XZ
??1corbanameURIHandler@omni@@UAE@XZ
??1diiThrowsSysExceptionsHandler@omni@@UAE@XZ
??1dumpConfigurationHandler@omni@@UAE@XZ
??1endpointHandler@omni@@UAE@XZ
??1endpointNoListenHandler@omni@@UAE@XZ
??1endpointNoPublishHandler@omni@@UAE@XZ
??1endpointPublishAllIFsHandler@omni@@UAE@XZ
??1endpointPublishHandler@omni@@UAE@XZ
??1fatalException@omniORB@@QAE@XZ
??1giopActiveCollection@omni@@UAE@XZ
??1giopActiveConnection@omni@@UAE@XZ
??1giopAddress@omni@@UAE@XZ
??1giopCompressor@omni@@UAE@XZ
??1giopCompressorFactory@omni@@UAE@XZ
??1giopConnection@omni@@MAE@XZ
??1giopEndpoint@omni@@UAE@XZ
??1giopMaxMsgSizeHandler@omni@@UAE@XZ
??1giopMonitor@omni@@UAE@XZ
??1giopRendezvouser@omni@@UAE@XZ
??1giopRope@omni@@UAE@XZ
??1giopServer@omni@@MAE@XZ
??1giopStrand@omni@@EAE@XZ
??1giopStream@omni@@UAE@XZ
??1giopStreamImpl@omni@@QAE@XZ
??1giopTargetAddressModeHandler@omni@@UAE@XZ
??1giopTransportImpl@omni@@UAE@XZ
??1giopWorker@omni@@UAE@XZ
??1helpHandler@omni@@UAE@XZ
??1idHandler@omni@@UAE@XZ
??1idleThreadTimeoutHandler@omni@@UAE@XZ
??1immediateRopeSwitchHandler@omni@@UAE@XZ
??1inConScanPeriodHandler@omni@@UAE@XZ
??1info_T@clientSendRequest_T@omniInterceptors@omni@@QAE@XZ
??1iorURIHandler@omni@@UAE@XZ
??1lcdModeHandler@omni@@UAE@XZ
??1listenBacklogHandler@omni@@UAE@XZ
??1logger@omniORB@@QAE@XZ
??1maxClientThreadPoolSizeHandler@omni@@UAE@XZ
??1maxGIOPConnectionPerServerHandler@omni@@UAE@XZ
??1maxGIOPVersionHandler@omni@@UAE@XZ
??1maxInterleavedCallsPerConnectionHandler@omni@@UAE@XZ
??1maxServerThreadPerConnectionHandler@omni@@UAE@XZ
??1maxServerThreadPoolSizeHandler@omni@@UAE@XZ
??1maxSocketRecvHandler@omni@@UAE@XZ
??1maxSocketSendHandler@omni@@UAE@XZ
??1nativeCharCodeSetHandler@@UAE@XZ
??1nativeWCharCodeSetHandler@@UAE@XZ
??1objectTableSizeHandler@@UAE@XZ
??1offerBiDirectionalGIOPHandler@omni@@UAE@XZ
??1omniAnonObjRef@omni@@MAE@XZ
??1omniAnonObjRef_pof@omni@@UAE@XZ
??1omniAsyncCallDescriptor@@UAE@XZ
??1omniAsyncDedicated@@QAE@XZ
??1omniAsyncInvoker@@UAE@XZ
??1omniAsyncPool@@UAE@XZ
??1omniAsyncPoolClient@@UAE@XZ
??1omniAsyncPoolGeneral@@UAE@XZ
??1omniAsyncPoolServer@@UAE@XZ
??1omniAsyncWorker@@UAE@XZ
??1omniCallDescriptor@@UAE@XZ
??1omniCurrent@@UAE@XZ
??1omniEtherealiser@@UAE@XZ
??1omniExHandlers_iterator@@QAE@XZ
??1omniIOR@@QAE@XZ
??1omniIOR_var@@QAE@XZ
??1omniIdentity@@IAE@XZ
??1omniInProcessIdentity@@QAE@XZ
??1omniInProcessIdentity_RefHolder@omni@@QAE@XZ
??1omniInterceptors@omni@@AAE@XZ
??1omniLocalIdentity@@QAE@XZ
??1omniLocalIdentity_RefHolder@omni@@QAE@XZ
??1omniLocalOnlyCallDescriptor@@UAE@XZ
??1omniNilCurrent@@UAE@XZ
??1omniObjAdapter@omni@@UAE@XZ
??1omniObjAdapter_var@omni@@QAE@XZ
??1omniObjKey@@QAE@XZ
??1omniObjRef@@MAE@XZ
??1omniObjTableEntry@@QAE@XZ
??1omniOrbBOA@omni@@UAE@XZ
??1omniOrbBoaServant@@UAE@XZ
??1omniOrbORB@@UAE@XZ
??1omniOrbPOA@omni@@UAE@XZ
??1omniOrbPOACurrent@omni@@UAE@XZ
??1omniOrbPOAManager@omni@@UAE@XZ
??1omniRemoteIdentity@@AAE@XZ
??1omniRemoteIdentity_RefHolder@omni@@QAE@XZ
??1omniServant@@UAE@XZ
??1omniServantActivatorTaskQueue@omni@@UAE@XZ
??1omniShutdownIdentity@@QAE@XZ
??1omniTask@@UAE@XZ
??1omni_hooked_initialiser@omni@@UAE@XZ
??1omni_initRefs_initialiser@omni@@QAE@XZ
??1omni_interface_CallDesc@omni@@UAE@XZ
??1omni_is_a_CallDesc@omni@@UAE@XZ
??1omni_mutex_lock@@QAE@XZ
??1omni_non_existent_CallDesc@omni@@UAE@XZ
??1omni_optional_lock@@QAE@XZ
??1omni_optional_rlock@@QAE@XZ
??1omni_orbOptions_initialiser@omni@@UAE@XZ
??1omni_refcount@@QAE@XZ
??1omni_rmutex@@QAE@XZ
??1omni_tracedcondition@@QAE@XZ
??1omni_tracedmutex@@QAE@XZ
??1omni_tracedmutex_unlock@@QAE@XZ
??1omni_transportRules_initialiser@omni@@UAE@XZ
??1oneCallPerConnectionHandler@omni@@UAE@XZ
??1orbOptions@omni@@AAE@XZ
??1orbServer@omni@@MAE@XZ
??1outConScanPeriodHandler@omni@@UAE@XZ
??1poaCurrentStackInsert@omni@@QAE@XZ
??1poaHoldRequestTimeoutHandler@omni@@UAE@XZ
??1poaUniquePersistentSystemIdsHandler@omni@@UAE@XZ
??1principalHandler@omni@@UAE@XZ
??1proxyObjectFactory@omni@@UAE@XZ
??1resetTimeOutOnRetriesHandler@omni@@UAE@XZ
??1scanGranularityHandler@omni@@UAE@XZ
??1serverCallTimeOutPeriodHandler@omni@@UAE@XZ
??1serverTransportRuleHandler@omni@@UAE@XZ
??1serviceRecord@omni@@QAE@XZ
??1socketSendBufferHandler@omni@@UAE@XZ
??1strictIIOPHandler@omni@@UAE@XZ
??1supportBootstrapAgentHandler@omni@@UAE@XZ
??1supportCurrentHandler@@UAE@XZ
??1supportPerThreadTimeOutHandler@omni@@UAE@XZ
??1tcAliasExpandHandler@omni@@UAE@XZ
??1tcpActiveCollection@omni@@UAE@XZ
??1tcpActiveConnection@omni@@UAE@XZ
??1tcpAddress@omni@@UAE@XZ
??1tcpConnection@omni@@UAE@XZ
??1tcpEndpoint@omni@@UAE@XZ
??1tcpTransportImpl@omni@@UAE@XZ
??1terminateProcessing@GIOP_S@omni@@QAE@XZ
??1threadPerConnectionLowerLimitHandler@omni@@UAE@XZ
??1threadPerConnectionPolicyHandler@omni@@UAE@XZ
??1threadPerConnectionUpperLimitHandler@omni@@UAE@XZ
??1threadPoolWatchConnectionHandler@omni@@UAE@XZ
??1throwTransientOnTimeOutHandler@@UAE@XZ
??1traceExceptionsHandler@@UAE@XZ
??1traceFileHandler@@UAE@XZ
??1traceInvocationReturnsHandler@@UAE@XZ
??1traceInvocationsHandler@@UAE@XZ
??1traceLevelHandler@@UAE@XZ
??1traceLockingHandler@@UAE@XZ
??1traceThreadIdHandler@@UAE@XZ
??1traceTimeHandler@@UAE@XZ
??1transportRules@omni@@QAE@XZ
??1unixTransportDirectoryHandler@omni@@UAE@XZ
??1unixTransportPermissionHandler@omni@@UAE@XZ
??1useTypeCodeIndirectionsHandler@omni@@UAE@XZ
??1validateUTF8Handler@omni@@UAE@XZ
??1value_t@omni_thread@@UAE@XZ
??1verifyObjectExistsAndTypeHandler@omni@@UAE@XZ
??4?$_CORBA_ConstrType_Variable_OUT_arg@UBinding@CosNaming@@V?$_CORBA_ConstrType_Variable_Var@UBinding@CosNaming@@@@@@QAEAAV0@PAUBinding@CosNaming@@@Z
??4?$_CORBA_ConstrType_Variable_Var@UBinding@CosNaming@@@@QAEAAV0@PAUBinding@CosNaming@@@Z
??4?$_CORBA_ObjRef_Element@VPOA@PortableServer@@VPOA_Helper@2@@@QAEAAV0@PAVPOA@PortableServer@@@Z
??4?$_CORBA_ObjRef_Member@V_objref_NamingContext@CosNaming@@VNamingContext_Helper@2@@@QAEAAV0@ABV0@@Z
??4?$_CORBA_ObjRef_Member@V_objref_NamingContext@CosNaming@@VNamingContext_Helper@2@@@QAEAAV0@PAV_objref_NamingContext@CosNaming@@@Z
??4?$_CORBA_ObjRef_OUT_arg@V_objref_BindingIterator@CosNaming@@VBindingIterator_Helper@2@@@QAEAAV0@PAV_objref_BindingIterator@CosNaming@@@Z
??4?$_CORBA_ObjRef_Var@V_objref_BindingIterator@CosNaming@@VBindingIterator_Helper@2@@@QAEAAV0@PAV_objref_BindingIterator@CosNaming@@@Z
??4?$_CORBA_ObjRef_Var@V_objref_NamingContext@CosNaming@@VNamingContext_Helper@2@@@QAEAAV0@PAV_objref_NamingContext@CosNaming@@@Z
??4?$_CORBA_PseudoObj_Member@VPolicy@CORBA@@V?$_CORBA_PseudoObj_Var@VPolicy@CORBA@@@@@@QAEAAV0@ABV0@@Z
??4?$_CORBA_PseudoObj_Member@VPolicy@CORBA@@V?$_CORBA_PseudoObj_Var@VPolicy@CORBA@@@@@@QAEAAV0@PAVPolicy@CORBA@@@Z
??4?$_CORBA_PseudoObj_Var@VBidirectionalPolicy@BiDirPolicy@@@@QAEAAV0@PAVBidirectionalPolicy@BiDirPolicy@@@Z
??4?$_CORBA_PseudoObj_Var@VIdAssignmentPolicy@PortableServer@@@@QAEAAV0@PAVIdAssignmentPolicy@PortableServer@@@Z
??4?$_CORBA_PseudoObj_Var@VIdUniquenessPolicy@PortableServer@@@@QAEAAV0@PAVIdUniquenessPolicy@PortableServer@@@Z
??4?$_CORBA_PseudoObj_Var@VImplicitActivationPolicy@PortableServer@@@@QAEAAV0@PAVImplicitActivationPolicy@PortableServer@@@Z
??4?$_CORBA_PseudoObj_Var@VLifespanPolicy@PortableServer@@@@QAEAAV0@PAVLifespanPolicy@PortableServer@@@Z
??4?$_CORBA_PseudoObj_Var@VLocalShortcutPolicy@omniPolicy@@@@QAEAAV0@PAVLocalShortcutPolicy@omniPolicy@@@Z
??4?$_CORBA_PseudoObj_Var@VPOA@PortableServer@@@@QAEAAV0@PAVPOA@PortableServer@@@Z
??4?$_CORBA_PseudoObj_Var@VRequestProcessingPolicy@PortableServer@@@@QAEAAV0@PAVRequestProcessingPolicy@PortableServer@@@Z
??4?$_CORBA_PseudoObj_Var@VServantRetentionPolicy@PortableServer@@@@QAEAAV0@PAVServantRetentionPolicy@PortableServer@@@Z
??4?$_CORBA_PseudoObj_Var@VThreadPolicy@PortableServer@@@@QAEAAV0@PAVThreadPolicy@PortableServer@@@Z
??4?$_CORBA_Sequence@E@@IAEAAV0@ABV0@@Z
??4?$_CORBA_Sequence@UNameComponent@CosNaming@@@@IAEAAV0@ABV0@@Z
??4?$_CORBA_Unbounded_Sequence@UNameComponent@CosNaming@@@@QAEAAV0@ABV0@@Z
??4AddrInfo_var@LibcWrapper@omni@@QAEAAV012@PAVAddrInfo@12@@Z
??4Address@IIOP@@QAEAAU01@ABU01@@Z
??4AlreadyBound@NamingContext@CosNaming@@QAEAAV012@ABV012@@Z
??4Binding@CosNaming@@QAEAAU01@ABU01@@Z
??4BindingList_out@CosNaming@@QAEAAV01@PAVBindingList@1@@Z
??4BindingList_var@CosNaming@@QAEAAV01@PAVBindingList@1@@Z
??4CannotProceed@NamingContext@CosNaming@@QAEAAV012@ABV012@@Z
??4Exception@CORBA@@IAEAAV01@ABV01@@Z
??4Fixed@CORBA@@QAEAAV01@ABV01@@Z
??4ForwardRequest@PortableServer@@QAEAAV01@ABV01@@Z
??4InvalidAddress@NamingContextExt@CosNaming@@QAEAAV012@ABV012@@Z
??4InvalidName@NamingContext@CosNaming@@QAEAAV012@ABV012@@Z
??4InvalidPolicy@POA@PortableServer@@QAEAAV012@ABV012@@Z
??4Name@CosNaming@@QAEAAV01@ABV01@@Z
??4NameComponent@CosNaming@@QAEAAU01@ABU01@@Z
??4Name_var@CosNaming@@QAEAAV01@PAVName@1@@Z
??4NotEmpty@NamingContext@CosNaming@@QAEAAV012@ABV012@@Z
??4NotFound@NamingContext@CosNaming@@QAEAAV012@ABV012@@Z
??4ObjIdList_var@CORBA_InitialReferences@@QAEAAV01@PAVObjIdList@1@@Z
??4Object_Member@CORBA@@QAEAAV01@ABV01@@Z
??4Object_Member@CORBA@@QAEAAV01@PAVObject@1@@Z
??4Object_var@CORBA@@QAEAAV01@PAVObject@1@@Z
??4PolicyError@CORBA@@QAEAAV01@ABV01@@Z
??4ServiceContext@IOP@@QAEAAU01@ABU01@@Z
??4StringSeq_var@CORBA@@QAEAAV01@PAVStringSeq@1@@Z
??4TaggedComponent@IOP@@QAEAAU01@ABU01@@Z
??4TaggedProfile@IOP@@QAEAAU01@ABU01@@Z
??4TaggedProfileList_var@IOP@@QAEAAV01@PAV?$_CORBA_Unbounded_Sequence@UTaggedProfile@IOP@@@@@Z
??4UserException@CORBA@@QAEAAV01@ABV01@@Z
??4_CORBA_Sequence_Octet@@IAEAAV0@ABV0@@Z
??4_CORBA_Sequence_String@@IAEAAV0@ABV0@@Z
??4_CORBA_String_element@@QAEAAV0@ABV0@@Z
??4_CORBA_String_element@@QAEAAV0@PAD@Z
??4_CORBA_String_element@@QAEAAV0@PBD@Z
??4_CORBA_String_member@@QAEAAV0@ABV0@@Z
??4_CORBA_String_member@@QAEAAV0@PAD@Z
??4_CORBA_String_member@@QAEAAV0@PBD@Z
??4_CORBA_String_var@@QAEAAV0@ABV0@@Z
??4_CORBA_String_var@@QAEAAV0@PAD@Z
??4_CORBA_String_var@@QAEAAV0@PBD@Z
??4_CORBA_Unbounded_Sequence_Octet@@QAEAAV0@ABV0@@Z
??4_CORBA_Unbounded_Sequence_String@@QAEAAV0@ABV0@@Z
??4_CORBA_WString_element@@QAEAAV0@PA_W@Z
??4cdrMemoryStream@@QAEAAV0@ABV0@@Z
??4omniIOR_var@@QAEAAV0@PAVomniIOR@@@Z
??4serviceRecord@omni@@QAEAAU01@ABU01@@Z
??6logger@omniORB@@QAEAAV01@AAVomniObjKey@@@Z
??6logger@omniORB@@QAEAAV01@ABVSystemException@CORBA@@@Z
??6logger@omniORB@@QAEAAV01@ABVexceptionStatus@01@@Z
??6logger@omniORB@@QAEAAV01@D@Z
??6logger@omniORB@@QAEAAV01@G@Z
??6logger@omniORB@@QAEAAV01@H@Z
??6logger@omniORB@@QAEAAV01@I@Z
??6logger@omniORB@@QAEAAV01@J@Z
??6logger@omniORB@@QAEAAV01@K@Z
??6logger@omniORB@@QAEAAV01@N@Z
??6logger@omniORB@@QAEAAV01@PBD@Z
??6logger@omniORB@@QAEAAV01@PBVomniIdentity@@@Z
??6logger@omniORB@@QAEAAV01@PBVomniLocalIdentity@@@Z
??6logger@omniORB@@QAEAAV01@PBX@Z
??7Fixed@CORBA@@QBE_NXZ
??8@YA_NABVFixed@CORBA@@0@Z
??8omniORB@@YAHABUomniOrbBoaKey@@0@Z
??9@YA_NABVFixed@CORBA@@0@Z
??9omniORB@@YAHABUomniOrbBoaKey@@0@Z
??A?$_CORBA_PseudoValue_Sequence@PAVIORExtraInfo@omniIOR@@@@QAEAAPAVIORExtraInfo@omniIOR@@K@Z
??A?$_CORBA_PseudoValue_Sequence@PAVomniOrbPOA@omni@@@@QAEAAPAVomniOrbPOA@omni@@K@Z
??A?$_CORBA_PseudoValue_Sequence@UserviceRecord@omni@@@@QAEAAUserviceRecord@omni@@K@Z
??A?$_CORBA_Pseudo_Unbounded_Sequence@VPolicy@CORBA@@V?$_CORBA_PseudoObj_Member@VPolicy@CORBA@@V?$_CORBA_PseudoObj_Var@VPolicy@CORBA@@@@@@@@QAEAAV?$_CORBA_PseudoObj_Member@VPolicy@CORBA@@V?$_CORBA_PseudoObj_Var@VPolicy@CORBA@@@@@@K@Z
??A?$_CORBA_Pseudo_Unbounded_Sequence@VPolicy@CORBA@@V?$_CORBA_PseudoObj_Member@VPolicy@CORBA@@V?$_CORBA_PseudoObj_Var@VPolicy@CORBA@@@@@@@@QBEABV?$_CORBA_PseudoObj_Member@VPolicy@CORBA@@V?$_CORBA_PseudoObj_Var@VPolicy@CORBA@@@@@@K@Z
??A?$_CORBA_Sequence@E@@QAEAAEK@Z
??A?$_CORBA_Sequence@E@@QBEABEK@Z
??A?$_CORBA_Sequence@K@@QAEAAKK@Z
??A?$_CORBA_Sequence@UAddress@IIOP@@@@QAEAAUAddress@IIOP@@K@Z
??A?$_CORBA_Sequence@UNameComponent@CosNaming@@@@QAEAAUNameComponent@CosNaming@@K@Z
??A?$_CORBA_Sequence@UNameComponent@CosNaming@@@@QBEABUNameComponent@CosNaming@@K@Z
??A?$_CORBA_Sequence@UServiceContext@IOP@@@@QAEAAUServiceContext@IOP@@K@Z
??A?$_CORBA_Sequence@UTaggedComponent@IOP@@@@QAEAAUTaggedComponent@IOP@@K@Z
??A?$_CORBA_Sequence@UTaggedComponent@IOP@@@@QBEABUTaggedComponent@IOP@@K@Z
??A?$_CORBA_Sequence@UTaggedProfile@IOP@@@@QAEAAUTaggedProfile@IOP@@K@Z
??A?$_CORBA_Sequence@UTaggedProfile@IOP@@@@QBEABUTaggedProfile@IOP@@K@Z
??A?$_CORBA_Sequence@V_CORBA_Unbounded_Sequence_Octet@@@@QAEAAV_CORBA_Unbounded_Sequence_Octet@@K@Z
??A?$_CORBA_Sequence_ObjRef@VPOA@PortableServer@@V?$_CORBA_ObjRef_Element@VPOA@PortableServer@@VPOA_Helper@2@@@VPOA_Helper@2@@@QAE?AV?$_CORBA_ObjRef_Element@VPOA@PortableServer@@VPOA_Helper@2@@@K@Z
??A?$omnivector@K@@QAEAAKI@Z
??A?$omnivector@PAVHandler@orbOptions@omni@@@@QAEAAPAVHandler@orbOptions@omni@@I@Z
??A?$omnivector@PAVgiopAddress@omni@@@@QAEAAPAVgiopAddress@omni@@I@Z
??A?$omnivector@PAVomniObjTableEntry@@@@QBEABQAVomniObjTableEntry@@I@Z
??AName_var@CosNaming@@QAEAAUNameComponent@1@K@Z
??AStringSeq_var@CORBA@@QAE?AV_CORBA_String_element@@K@Z
??ATaggedProfileList_var@IOP@@QAEAAUTaggedProfile@1@K@Z
??A_CORBA_Sequence_String@@QAE?AV_CORBA_String_element@@K@Z
??A_CORBA_Sequence_String@@QBE?BV_CORBA_String_element@@K@Z
??A_CORBA_Sequence_WString@@QAE?AV_CORBA_WString_element@@K@Z
??B?$Servant_var@VServantBase@PortableServer@@@PortableServer@@QBEPAVServantBase@1@XZ
??B?$_CORBA_ConstrType_Variable_Var@UBinding@CosNaming@@@@QAEAAUBinding@CosNaming@@XZ
??B?$_CORBA_ObjRef_Member@V_objref_NamingContext@CosNaming@@VNamingContext_Helper@2@@@QBEPAV_objref_NamingContext@CosNaming@@XZ
??B?$_CORBA_ObjRef_Var@VServantActivator@PortableServer@@VServantActivator_Helper@2@@@QBEPAVServantActivator@PortableServer@@XZ
??B?$_CORBA_ObjRef_Var@VServantLocator@PortableServer@@VServantLocator_Helper@2@@@QBEPAVServantLocator@PortableServer@@XZ
??B?$_CORBA_ObjRef_Var@V_objref_BindingIterator@CosNaming@@VBindingIterator_Helper@2@@@QBEPAV_objref_BindingIterator@CosNaming@@XZ
??B?$_CORBA_ObjRef_Var@V_objref_NamingContext@CosNaming@@VNamingContext_Helper@2@@@QBEPAV_objref_NamingContext@CosNaming@@XZ
??B?$_CORBA_PseudoObj_Member@VPolicy@CORBA@@V?$_CORBA_PseudoObj_Var@VPolicy@CORBA@@@@@@QBEPAVPolicy@CORBA@@XZ
??B?$_CORBA_PseudoObj_Var@VEndPointPublishPolicy@omniPolicy@@@@QBEPAVEndPointPublishPolicy@omniPolicy@@XZ
??B?$_CORBA_PseudoObj_Var@VPOA@PortableServer@@@@QBEPAVPOA@PortableServer@@XZ
??BAddrInfo_var@LibcWrapper@omni@@QBEPAVAddrInfo@12@XZ
??BBindingList_var@CosNaming@@QAEAAVBindingList@1@XZ
??BFixed@CORBA@@QBENXZ
??BFixed@CORBA@@QBE_JXZ
??BIOP_C_Holder@omni@@QAEAAVIOP_C@1@XZ
??BName_var@CosNaming@@QAEAAVName@1@XZ
??BObjIdList_var@CORBA_InitialReferences@@QAEAAVObjIdList@1@XZ
??BObject_Member@CORBA@@QBEPAVObject@1@XZ
??BObject_var@CORBA@@QBEPAVObject@1@XZ
??BTaggedProfileList_var@IOP@@QAEAAV?$_CORBA_Unbounded_Sequence@UTaggedProfile@IOP@@@@XZ
??BTaggedProfileList_var@IOP@@QBEABV?$_CORBA_Unbounded_Sequence@UTaggedProfile@IOP@@@@XZ
??B_CORBA_String_element@@QAEPADXZ
??B_CORBA_String_element@@QBEPBDXZ
??B_CORBA_String_member@@QAEPADXZ
??B_CORBA_String_member@@QBEPBDXZ
??B_CORBA_String_var@@QAEPADXZ
??B_CORBA_String_var@@QBEPBDXZ
??BomniIOR_var@@QBEPAVomniIOR@@XZ
??BomniObjAdapter_var@omni@@QAEPAVomniObjAdapter@1@XZ
??Bomni_time_t@@QBEPAXXZ
??C?$_CORBA_ObjRef_Var@VServantActivator@PortableServer@@VServantActivator_Helper@2@@@QBEPAVServantActivator@PortableServer@@XZ
??C?$_CORBA_ObjRef_Var@VServantLocator@PortableServer@@VServantLocator_Helper@2@@@QBEPAVServantLocator@PortableServer@@XZ
??C?$_CORBA_ObjRef_Var@V_objref_NamingContext@CosNaming@@VNamingContext_Helper@2@@@QBEPAV_objref_NamingContext@CosNaming@@XZ
??C?$_CORBA_PseudoObj_Member@VPolicy@CORBA@@V?$_CORBA_PseudoObj_Var@VPolicy@CORBA@@@@@@QBEPAVPolicy@CORBA@@XZ
??C?$_CORBA_PseudoObj_Var@VBidirectionalPolicy@BiDirPolicy@@@@QBEPAVBidirectionalPolicy@BiDirPolicy@@XZ
??C?$_CORBA_PseudoObj_Var@VEndPointPublishPolicy@omniPolicy@@@@QBEPAVEndPointPublishPolicy@omniPolicy@@XZ
??C?$_CORBA_PseudoObj_Var@VIdAssignmentPolicy@PortableServer@@@@QBEPAVIdAssignmentPolicy@PortableServer@@XZ
??C?$_CORBA_PseudoObj_Var@VIdUniquenessPolicy@PortableServer@@@@QBEPAVIdUniquenessPolicy@PortableServer@@XZ
??C?$_CORBA_PseudoObj_Var@VImplicitActivationPolicy@PortableServer@@@@QBEPAVImplicitActivationPolicy@PortableServer@@XZ
??C?$_CORBA_PseudoObj_Var@VLifespanPolicy@PortableServer@@@@QBEPAVLifespanPolicy@PortableServer@@XZ
??C?$_CORBA_PseudoObj_Var@VLocalShortcutPolicy@omniPolicy@@@@QBEPAVLocalShortcutPolicy@omniPolicy@@XZ
??C?$_CORBA_PseudoObj_Var@VPOA@PortableServer@@@@QBEPAVPOA@PortableServer@@XZ
??C?$_CORBA_PseudoObj_Var@VRequestProcessingPolicy@PortableServer@@@@QBEPAVRequestProcessingPolicy@PortableServer@@XZ
??C?$_CORBA_PseudoObj_Var@VServantRetentionPolicy@PortableServer@@@@QBEPAVServantRetentionPolicy@PortableServer@@XZ
??C?$_CORBA_PseudoObj_Var@VThreadPolicy@PortableServer@@@@QBEPAVThreadPolicy@PortableServer@@XZ
??CAddrInfo_var@LibcWrapper@omni@@QBEPAVAddrInfo@12@XZ
??CGIOP_S_Holder@omni@@QAEPAVGIOP_S@1@XZ
??CIOP_C_Holder@omni@@QAEPAVIOP_C@1@XZ
??CName_var@CosNaming@@QAEPAVName@1@XZ
??CObject_var@CORBA@@QBEPAVObject@1@XZ
??CStringSeq_var@CORBA@@QAEPAVStringSeq@1@XZ
??CTaggedProfileList_var@IOP@@QAEPAV?$_CORBA_Unbounded_Sequence@UTaggedProfile@IOP@@@@XZ
??ComniIOR_var@@QBEPAVomniIOR@@XZ
??ComniObjAdapter_var@omni@@QAEPAVomniObjAdapter@1@XZ
??D@YA?AVFixed@CORBA@@ABV01@0@Z
??EFixed@CORBA@@QAE?AV01@H@Z
??EFixed@CORBA@@QAEAAV01@XZ
??FFixed@CORBA@@QAE?AV01@H@Z
??FFixed@CORBA@@QAEAAV01@XZ
??G@YA?AVFixed@CORBA@@ABV01@0@Z
??GFixed@CORBA@@QBE?AV01@XZ
??H@YA?AVFixed@CORBA@@ABV01@0@Z
??HFixed@CORBA@@QBE?AV01@XZ
??K@YA?AVFixed@CORBA@@ABV01@0@Z
??M@YA_NABVFixed@CORBA@@0@Z
??Momni_time_t@@QBEHABU0@@Z
??N@YA_NABVFixed@CORBA@@0@Z
??Nomni_time_t@@QBEHABU0@@Z
??O@YA_NABVFixed@CORBA@@0@Z
??P@YA_NABVFixed@CORBA@@0@Z
??XFixed@CORBA@@QAEAAV01@ABV01@@Z
??YFixed@CORBA@@QAEAAV01@ABV01@@Z
??ZFixed@CORBA@@QAEAAV01@ABV01@@Z
??Zomni_time_t@@QAEAAU0@ABU0@@Z
??_0Fixed@CORBA@@QAEAAV01@ABV01@@Z
??_2?$_CORBA_Unbounded_Sequence@K@@QBEXAAVcdrStream@@@Z
??_2?$_CORBA_Unbounded_Sequence@UAddress@IIOP@@@@QBEXAAVcdrStream@@@Z
??_2?$_CORBA_Unbounded_Sequence@UBinding@CosNaming@@@@QBEXAAVcdrStream@@@Z
??_2?$_CORBA_Unbounded_Sequence@UNameComponent@CosNaming@@@@QBEXAAVcdrStream@@@Z
??_2?$_CORBA_Unbounded_Sequence@UServiceContext@IOP@@@@QBEXAAVcdrStream@@@Z
??_2?$_CORBA_Unbounded_Sequence@UTaggedProfile@IOP@@@@QBEXAAVcdrStream@@@Z
??_2?$_CORBA_Unbounded_Sequence_w_FixSizeElement@K$03$03@@QBEXAAVcdrStream@@@Z
??_2@YAXFAAVcdrStream@@@Z
??_2@YAXGAAVcdrStream@@@Z
??_2@YAXJAAVcdrStream@@@Z
??_2@YAXKAAVcdrStream@@@Z
??_2@YAXW4BindingType@CosNaming@@AAVcdrStream@@@Z
??_2@YAXW4NotFoundReason@NamingContext@CosNaming@@AAVcdrStream@@@Z
??_2AdapterAlreadyExists@POA@PortableServer@@QBEXAAVcdrStream@@@Z
??_2AdapterInactive@POA@PortableServer@@QBEXAAVcdrStream@@@Z
??_2AdapterInactive@POAManager@PortableServer@@QBEXAAVcdrStream@@@Z
??_2AdapterNonExistent@POA@PortableServer@@QBEXAAVcdrStream@@@Z
??_2Address@IIOP@@QBEXAAVcdrStream@@@Z
??_2AlreadyBound@NamingContext@CosNaming@@QBEXAAVcdrStream@@@Z
??_2Binding@CosNaming@@QBEXAAVcdrStream@@@Z
??_2CannotProceed@NamingContext@CosNaming@@QBEXAAVcdrStream@@@Z
??_2CodeSetComponent@CONV_FRAME@omni@@QBEXAAVcdrStream@@@Z
??_2CodeSetComponentInfo@CONV_FRAME@omni@@QBEXAAVcdrStream@@@Z
??_2Fixed@CORBA@@QBEXAAVcdrStream@@@Z
??_2ForwardRequest@PortableServer@@QBEXAAVcdrStream@@@Z
??_2IOR@IOP@@QAEXAAVcdrStream@@@Z
??_2InvalidAddress@NamingContextExt@CosNaming@@QBEXAAVcdrStream@@@Z
??_2InvalidName@NamingContext@CosNaming@@QBEXAAVcdrStream@@@Z
??_2InvalidName@ORB@CORBA@@QBEXAAVcdrStream@@@Z
??_2InvalidPolicy@POA@PortableServer@@QBEXAAVcdrStream@@@Z
??_2NameComponent@CosNaming@@QBEXAAVcdrStream@@@Z
??_2NoContext@Current@PortableServer@@QBEXAAVcdrStream@@@Z
??_2NoServant@POA@PortableServer@@QBEXAAVcdrStream@@@Z
??_2NotEmpty@NamingContext@CosNaming@@QBEXAAVcdrStream@@@Z
??_2NotFound@NamingContext@CosNaming@@QBEXAAVcdrStream@@@Z
??_2ObjectAlreadyActive@POA@PortableServer@@QBEXAAVcdrStream@@@Z
??_2ObjectNotActive@POA@PortableServer@@QBEXAAVcdrStream@@@Z
??_2PolicyError@CORBA@@QBEXAAVcdrStream@@@Z
??_2ServantAlreadyActive@POA@PortableServer@@QBEXAAVcdrStream@@@Z
??_2ServantNotActive@POA@PortableServer@@QBEXAAVcdrStream@@@Z
??_2ServiceContext@IOP@@QBEXAAVcdrStream@@@Z
??_2TaggedComponent@IOP@@QBEXAAVcdrStream@@@Z
??_2TaggedProfile@IOP@@QBEXAAVcdrStream@@@Z
??_2WrongAdapter@POA@PortableServer@@QBEXAAVcdrStream@@@Z
??_2WrongPolicy@POA@PortableServer@@QBEXAAVcdrStream@@@Z
??_2_CORBA_Sequence_Octet@@QBEXAAVcdrStream@@@Z
??_2_CORBA_Sequence_String@@QBEXAAVcdrStream@@@Z
??_2_CORBA_Sequence_WString@@QBEXAAVcdrStream@@@Z
??_2_CORBA_String_member@@QBEXAAVcdrStream@@@Z
??_2_CORBA_WString_member@@QBEXAAVcdrStream@@@Z
??_3?$_CORBA_Unbounded_Sequence@UAddress@IIOP@@@@QAEXAAVcdrStream@@@Z
??_3?$_CORBA_Unbounded_Sequence@UBinding@CosNaming@@@@QAEXAAVcdrStream@@@Z
??_3?$_CORBA_Unbounded_Sequence@UNameComponent@CosNaming@@@@QAEXAAVcdrStream@@@Z
??_3?$_CORBA_Unbounded_Sequence@UServiceContext@IOP@@@@QAEXAAVcdrStream@@@Z
??_3?$_CORBA_Unbounded_Sequence@UTaggedProfile@IOP@@@@QAEXAAVcdrStream@@@Z
??_3?$_CORBA_Unbounded_Sequence@V_CORBA_Unbounded_Sequence_Octet@@@@QAEXAAVcdrStream@@@Z
??_3?$_CORBA_Unbounded_Sequence_w_FixSizeElement@K$03$03@@QAEXAAVcdrStream@@@Z
??_3@YAXAAFAAVcdrStream@@@Z
??_3@YAXAAGAAVcdrStream@@@Z
??_3@YAXAAJAAVcdrStream@@@Z
??_3@YAXAAKAAVcdrStream@@@Z
??_3@YAXAAW4BindingType@CosNaming@@AAVcdrStream@@@Z
??_3@YAXAAW4NotFoundReason@NamingContext@CosNaming@@AAVcdrStream@@@Z
??_3Address@IIOP@@QAEXAAVcdrStream@@@Z
??_3AlreadyBound@NamingContext@CosNaming@@QAEXAAVcdrStream@@@Z
??_3Binding@CosNaming@@QAEXAAVcdrStream@@@Z
??_3CannotProceed@NamingContext@CosNaming@@QAEXAAVcdrStream@@@Z
??_3CodeSetComponent@CONV_FRAME@omni@@QAEXAAVcdrStream@@@Z
??_3CodeSetComponentInfo@CONV_FRAME@omni@@QAEXAAVcdrStream@@@Z
??_3Fixed@CORBA@@QAEXAAVcdrStream@@@Z
??_3ForwardRequest@PortableServer@@QAEXAAVcdrStream@@@Z
??_3IOR@IOP@@QAEXAAVcdrStream@@@Z
??_3InvalidAddress@NamingContextExt@CosNaming@@QAEXAAVcdrStream@@@Z
??_3InvalidName@NamingContext@CosNaming@@QAEXAAVcdrStream@@@Z
??_3InvalidPolicy@POA@PortableServer@@QAEXAAVcdrStream@@@Z
??_3NameComponent@CosNaming@@QAEXAAVcdrStream@@@Z
??_3NotEmpty@NamingContext@CosNaming@@QAEXAAVcdrStream@@@Z
??_3NotFound@NamingContext@CosNaming@@QAEXAAVcdrStream@@@Z
??_3PolicyError@CORBA@@QAEXAAVcdrStream@@@Z
??_3ServiceContext@IOP@@QAEXAAVcdrStream@@@Z
??_3TaggedComponent@IOP@@QAEXAAVcdrStream@@@Z
??_3TaggedProfile@IOP@@QAEXAAVcdrStream@@@Z
??_3_CORBA_Sequence_Octet@@QAEXAAVcdrStream@@@Z
??_3_CORBA_Sequence_String@@QAEXAAVcdrStream@@@Z
??_3_CORBA_Sequence_WString@@QAEXAAVcdrStream@@@Z
??_3_CORBA_String_member@@QAEXAAVcdrStream@@@Z
??_3_CORBA_WString_member@@QAEXAAVcdrStream@@@Z
??_DAdapterActivator@POA_PortableServer@@QAEXXZ
??_DAdapterActivator@PortableServer@@IAEXXZ
??_DBidirectionalPolicy@BiDirPolicy@@QAEXXZ
??_DBindingIterator@POA_CosNaming@@QAEXXZ
??_DCORBA_InitialReferences_i@omni@@QAEXXZ
??_DEndPointPublishPolicy@omniPolicy@@QAEXXZ
??_DIdAssignmentPolicy@PortableServer@@QAEXXZ
??_DIdUniquenessPolicy@PortableServer@@QAEXXZ
??_DImplicitActivationPolicy@PortableServer@@QAEXXZ
??_DLifespanPolicy@PortableServer@@QAEXXZ
??_DLocalObject@CORBA@@QAEXXZ
??_DLocalShortcutPolicy@omniPolicy@@QAEXXZ
??_DNamingContext@POA_CosNaming@@QAEXXZ
??_DNamingContextExt@POA_CosNaming@@QAEXXZ
??_DPOA_CORBA_InitialReferences@@QAEXXZ
??_DPolicy@CORBA@@QAEXXZ
??_DRequestProcessingPolicy@PortableServer@@QAEXXZ
??_DServantActivator@POA_PortableServer@@QAEXXZ
??_DServantActivator@PortableServer@@IAEXXZ
??_DServantBase@PortableServer@@QAEXXZ
??_DServantLocator@POA_PortableServer@@QAEXXZ
??_DServantLocator@PortableServer@@IAEXXZ
??_DServantManager@POA_PortableServer@@QAEXXZ
??_DServantManager@PortableServer@@IAEXXZ
??_DServantRetentionPolicy@PortableServer@@QAEXXZ
??_DThreadPolicy@PortableServer@@QAEXXZ
??_D_impl_AdapterActivator@PortableServer@@QAEXXZ
??_D_impl_BindingIterator@CosNaming@@QAEXXZ
??_D_impl_CORBA_InitialReferences@@QAEXXZ
??_D_impl_NamingContext@CosNaming@@QAEXXZ
??_D_impl_NamingContextExt@CosNaming@@QAEXXZ
??_D_impl_ServantActivator@PortableServer@@QAEXXZ
??_D_impl_ServantLocator@PortableServer@@QAEXXZ
??_D_impl_ServantManager@PortableServer@@QAEXXZ
??_D_objref_AdapterActivator@PortableServer@@IAEXXZ
??_D_objref_BindingIterator@CosNaming@@IAEXXZ
??_D_objref_CORBA_InitialReferences@@IAEXXZ
??_D_objref_NamingContext@CosNaming@@IAEXXZ
??_D_objref_NamingContextExt@CosNaming@@IAEXXZ
??_D_objref_ServantActivator@PortableServer@@IAEXXZ
??_D_objref_ServantLocator@PortableServer@@IAEXXZ
??_D_objref_ServantManager@PortableServer@@IAEXXZ
??_DomniAnonObjRef@omni@@IAEXXZ
??_DomniOrbBoaServant@@QAEXXZ
??_H@YGXPAXIIP6EPAX0@Z@Z
?AcceptAndMonitor@tcpEndpoint@omni@@UAEPAVgiopConnection@2@P6AXPAXPAV32@@Z0@Z
?BAD_CONTEXT@omniExHelper@omni@@SAXPBDHKW4CompletionStatus@CORBA@@@Z
?BAD_CONTEXT_LookupTable@omni@@3PAUminorCodeLookup@1@A
?BAD_INV_ORDER@omniExHelper@omni@@SAXPBDHKW4CompletionStatus@CORBA@@@Z
?BAD_INV_ORDER_LookupTable@omni@@3PAUminorCodeLookup@1@A
?BAD_OPERATION@omniExHelper@omni@@SAXPBDHKW4CompletionStatus@CORBA@@@Z
?BAD_OPERATION_LookupTable@omni@@3PAUminorCodeLookup@1@A
?BAD_PARAM@omniExHelper@omni@@SAXPBDHKW4CompletionStatus@CORBA@@@Z
?BAD_PARAM_LookupTable@omni@@3PAUminorCodeLookup@1@A
?BAD_QOS@omniExHelper@omni@@SAXPBDHKW4CompletionStatus@CORBA@@@Z
?BAD_QOS_LookupTable@omni@@3PAUminorCodeLookup@1@A
?BAD_TYPECODE@omniExHelper@omni@@SAXPBDHKW4CompletionStatus@CORBA@@@Z
?BAD_TYPECODE_LookupTable@omni@@3PAUminorCodeLookup@1@A
?BI_DIR_IIOP@IOP@@2KB
?BOA_init@ORB@CORBA@@QAEPAVBOA@2@AAHPAPADPBD@Z
?Bind@tcpEndpoint@omni@@UAE_NXZ
?Bind@tcpSocket@omni@@SAIPBDGG0AAPADAAGAAV_CORBA_Unbounded_Sequence_String@@@Z
?CODESET_INCOMPATIBLE@omniExHelper@omni@@SAXPBDHKW4CompletionStatus@CORBA@@@Z
?CODESET_INCOMPATIBLE_LookupTable@omni@@3PAUminorCodeLookup@1@A
?COMM_FAILURE@omniExHelper@omni@@SAXPBDHKW4CompletionStatus@CORBA@@@Z
?COMM_FAILURE_LookupTable@omni@@3PAUminorCodeLookup@1@A
?ChainBypassCheck@IOP@@2KB
?ChainBypassInfo@IOP@@2KB
?CodeSets@IOP@@2KB
?ComponentIDtoName@IOP@@SAPBDK@Z
?Connect@tcpAddress@omni@@UBEPAVgiopActiveConnection@2@ABUomni_time_t@@KAA_N@Z
?Connect@tcpSocket@omni@@SAIPBDGABUomni_time_t@@KAA_N@Z
?DATA_CONVERSION@omniExHelper@omni@@SAXPBDHKW4CompletionStatus@CORBA@@@Z
?DATA_CONVERSION_LookupTable@omni@@3PAUminorCodeLookup@1@A
?DEFAULT_CORBALOC_PORT@IIOP@@2GB
?FORWARDED_IDENTITY@IOP@@2KB
?FREE_MEM@omniExHelper@omni@@SAXPBDHKW4CompletionStatus@CORBA@@@Z
?FREE_MEM_LookupTable@omni@@3PAUminorCodeLookup@1@A
?GIOP10@omniCodeSetUtil@omni@@2UVersion@GIOP@@B
?GIOP11@omniCodeSetUtil@omni@@2UVersion@GIOP@@B
?GIOP12@omniCodeSetUtil@omni@@2UVersion@GIOP@@B
?GROUP_VERSION@IOP@@2KB
?ID_037@omniCodeSet@omni@@2KB
?ID_500@omniCodeSet@omni@@2KB
?ID_8859_10@omniCodeSet@omni@@2KB
?ID_8859_11@omniCodeSet@omni@@2KB
?ID_8859_13@omniCodeSet@omni@@2KB
?ID_8859_14@omniCodeSet@omni@@2KB
?ID_8859_15@omniCodeSet@omni@@2KB
?ID_8859_16@omniCodeSet@omni@@2KB
?ID_8859_1@omniCodeSet@omni@@2KB
?ID_8859_2@omniCodeSet@omni@@2KB
?ID_8859_3@omniCodeSet@omni@@2KB
?ID_8859_4@omniCodeSet@omni@@2KB
?ID_8859_5@omniCodeSet@omni@@2KB
?ID_8859_6@omniCodeSet@omni@@2KB
?ID_8859_7@omniCodeSet@omni@@2KB
?ID_8859_8@omniCodeSet@omni@@2KB
?ID_8859_9@omniCodeSet@omni@@2KB
?ID_CP1250@omniCodeSet@omni@@2KB
?ID_CP1251@omniCodeSet@omni@@2KB
?ID_CP1252@omniCodeSet@omni@@2KB
?ID_CP1253@omniCodeSet@omni@@2KB
?ID_CP1254@omniCodeSet@omni@@2KB
?ID_CP1255@omniCodeSet@omni@@2KB
?ID_CP1256@omniCodeSet@omni@@2KB
?ID_CP1257@omniCodeSet@omni@@2KB
?ID_CP1258@omniCodeSet@omni@@2KB
?ID_EDF_4@omniCodeSet@omni@@2KB
?ID_UCS_2@omniCodeSet@omni@@2KB
?ID_UCS_4@omniCodeSet@omni@@2KB
?ID_UTF_16@omniCodeSet@omni@@2KB
?ID_UTF_8@omniCodeSet@omni@@2KB
?IMP_LIMIT@omniExHelper@omni@@SAXPBDHKW4CompletionStatus@CORBA@@@Z
?IMP_LIMIT_LookupTable@omni@@3PAUminorCodeLookup@1@A
?INITIALIZE@omniExHelper@omni@@SAXPBDHKW4CompletionStatus@CORBA@@@Z
?INITIALIZE_LookupTable@omni@@3PAUminorCodeLookup@1@A
?INTERNAL@omniExHelper@omni@@SAXPBDHKW4CompletionStatus@CORBA@@@Z
?INTERNAL_LookupTable@omni@@3PAUminorCodeLookup@1@A
?INTF_REPOS@omniExHelper@omni@@SAXPBDHKW4CompletionStatus@CORBA@@@Z
?INTF_REPOS_LookupTable@omni@@3PAUminorCodeLookup@1@A
?INVALID_TRANSACTION@omniExHelper@omni@@SAXPBDHKW4CompletionStatus@CORBA@@@Z
?INVALID_TRANSACTION_LookupTable@omni@@3PAUminorCodeLookup@1@A
?INVOCATION_POLICIES@IOP@@2KB
?INV_FLAG@omniExHelper@omni@@SAXPBDHKW4CompletionStatus@CORBA@@@Z
?INV_FLAG_LookupTable@omni@@3PAUminorCodeLookup@1@A
?INV_IDENT@omniExHelper@omni@@SAXPBDHKW4CompletionStatus@CORBA@@@Z
?INV_IDENT_LookupTable@omni@@3PAUminorCodeLookup@1@A
?INV_OBJREF@omniExHelper@omni@@SAXPBDHKW4CompletionStatus@CORBA@@@Z
?INV_OBJREF_LookupTable@omni@@3PAUminorCodeLookup@1@A
?INV_POLICY@omniExHelper@omni@@SAXPBDHKW4CompletionStatus@CORBA@@@Z
?INV_POLICY_LookupTable@omni@@3PAUminorCodeLookup@1@A
?InitialiseRequest@GIOP_C@omni@@UAEXXZ
?IssueLocateRequest@GIOP_C@omni@@UAE?AW4LocateStatusType@GIOP@@XZ
?KeyAddr@GIOP@@2FB
?LogicalThreadId@IOP@@2KB
?MARSHAL@omniExHelper@omni@@SAXPBDHKW4CompletionStatus@CORBA@@@Z
?MARSHAL_LookupTable@omni@@3PAUminorCodeLookup@1@A
?Monitor@tcpActiveCollection@omni@@UAEXP6AXPAXPAVgiopConnection@2@@Z0@Z
?NO_IMPLEMENT@omniExHelper@omni@@SAXPBDHKW4CompletionStatus@CORBA@@@Z
?NO_IMPLEMENT_LookupTable@omni@@3PAUminorCodeLookup@1@A
?NO_MEMORY@omniExHelper@omni@@SAXPBDHKW4CompletionStatus@CORBA@@@Z
?NO_MEMORY_LookupTable@omni@@3PAUminorCodeLookup@1@A
?NO_PERMISSION@omniExHelper@omni@@SAXPBDHKW4CompletionStatus@CORBA@@@Z
?NO_PERMISSION_LookupTable@omni@@3PAUminorCodeLookup@1@A
?NO_RESOURCES@omniExHelper@omni@@SAXPBDHKW4CompletionStatus@CORBA@@@Z
?NO_RESOURCES_LookupTable@omni@@3PAUminorCodeLookup@1@A
?NO_RESPONSE@omniExHelper@omni@@SAXPBDHKW4CompletionStatus@CORBA@@@Z
?NO_RESPONSE_LookupTable@omni@@3PAUminorCodeLookup@1@A
?NP_asString@Fixed@CORBA@@QBEPADXZ
?NP_cmp@Fixed@CORBA@@SAHABV12@0@Z
?NP_data@?$_CORBA_Sequence@E@@QBEPAEXZ
?NP_data@?$_CORBA_Sequence@K@@QBEPAKXZ
?NP_fromString@Fixed@CORBA@@QAE_NPBD_N@Z
?NP_minorString@BAD_CONTEXT@CORBA@@UBEPBDXZ
?NP_minorString@BAD_INV_ORDER@CORBA@@UBEPBDXZ
?NP_minorString@BAD_OPERATION@CORBA@@UBEPBDXZ
?NP_minorString@BAD_PARAM@CORBA@@UBEPBDXZ
?NP_minorString@BAD_QOS@CORBA@@UBEPBDXZ
?NP_minorString@BAD_TYPECODE@CORBA@@UBEPBDXZ
?NP_minorString@CODESET_INCOMPATIBLE@CORBA@@UBEPBDXZ
?NP_minorString@COMM_FAILURE@CORBA@@UBEPBDXZ
?NP_minorString@DATA_CONVERSION@CORBA@@UBEPBDXZ
?NP_minorString@FREE_MEM@CORBA@@UBEPBDXZ
?NP_minorString@IMP_LIMIT@CORBA@@UBEPBDXZ
?NP_minorString@INITIALIZE@CORBA@@UBEPBDXZ
?NP_minorString@INTERNAL@CORBA@@UBEPBDXZ
?NP_minorString@INTF_REPOS@CORBA@@UBEPBDXZ
?NP_minorString@INVALID_TRANSACTION@CORBA@@UBEPBDXZ
?NP_minorString@INV_FLAG@CORBA@@UBEPBDXZ
?NP_minorString@INV_IDENT@CORBA@@UBEPBDXZ
?NP_minorString@INV_OBJREF@CORBA@@UBEPBDXZ
?NP_minorString@INV_POLICY@CORBA@@UBEPBDXZ
?NP_minorString@MARSHAL@CORBA@@UBEPBDXZ
?NP_minorString@NO_IMPLEMENT@CORBA@@UBEPBDXZ
?NP_minorString@NO_MEMORY@CORBA@@UBEPBDXZ
?NP_minorString@NO_PERMISSION@CORBA@@UBEPBDXZ
?NP_minorString@NO_RESOURCES@CORBA@@UBEPBDXZ
?NP_minorString@NO_RESPONSE@CORBA@@UBEPBDXZ
?NP_minorString@OBJECT_NOT_EXIST@CORBA@@UBEPBDXZ
?NP_minorString@OBJ_ADAPTER@CORBA@@UBEPBDXZ
?NP_minorString@PERSIST_STORE@CORBA@@UBEPBDXZ
?NP_minorString@REBIND@CORBA@@UBEPBDXZ
?NP_minorString@TIMEOUT@CORBA@@UBEPBDXZ
?NP_minorString@TRANSACTION_MODE@CORBA@@UBEPBDXZ
?NP_minorString@TRANSACTION_REQUIRED@CORBA@@UBEPBDXZ
?NP_minorString@TRANSACTION_ROLLEDBACK@CORBA@@UBEPBDXZ
?NP_minorString@TRANSACTION_UNAVAILABLE@CORBA@@UBEPBDXZ
?NP_minorString@TRANSIENT@CORBA@@UBEPBDXZ
?NP_minorString@UNKNOWN@CORBA@@UBEPBDXZ
?OBJECT_NOT_EXIST@omniExHelper@omni@@SAXPBDHKW4CompletionStatus@CORBA@@@Z
?OBJECT_NOT_EXIST_LookupTable@omni@@3PAUminorCodeLookup@1@A
?OBJ_ADAPTER@omniExHelper@omni@@SAXPBDHKW4CompletionStatus@CORBA@@@Z
?OBJ_ADAPTER_LookupTable@omni@@3PAUminorCodeLookup@1@A
?OMNIORB_RESTRICTED_CONNECTION@IOP@@2KB
?ORB_init@CORBA@@YAPAVORB@1@AAHPAPADPBDQAY01PBD@Z
?ObjectId_to_string@PortableServer@@YAPADABVObjectId@1@@Z
?ObjectId_to_wstring@PortableServer@@YAPA_WABVObjectId@1@@Z
?PERSIST_STORE@omniExHelper@omni@@SAXPBDHKW4CompletionStatus@CORBA@@@Z
?PERSIST_STORE_LookupTable@omni@@3PAUminorCodeLookup@1@A
?PR_changeScale@Fixed@CORBA@@QAEXG@Z
?PR_checkLimits@Fixed@CORBA@@QAE_NXZ
?PR_magic@Exception@CORBA@@2KB
?PR_negative@Fixed@CORBA@@QBE_NXZ
?PR_setLimits@Fixed@CORBA@@QAEXGG@Z
?PR_val@Fixed@CORBA@@QBEPBEXZ
?Peek@SocketHolder@omni@@QAE_NXZ
?Peek@tcpConnection@omni@@UAE_NXZ
?Poke@tcpAddress@omni@@QBE_NXZ
?Poke@tcpEndpoint@omni@@UAEXXZ
?ProfileAddr@GIOP@@2FB
?REBIND@omniExHelper@omni@@SAXPBDHKW4CompletionStatus@CORBA@@@Z
?REBIND_LookupTable@omni@@3PAUminorCodeLookup@1@A
?REQUEST@IOP@@2KB
?RTCorbaPriority@IOP@@2KB
?RTCorbaPriorityRange@IOP@@2KB
?Rand@LibcWrapper@omni@@SAIXZ
?RdLockIsHeld@giopStream@omni@@SA_NPAVgiopStrand@2@@Z
?ReceiveReply@GIOP_C@omni@@UAE?AW4ReplyStatusType@GIOP@@XZ
?ReceiveRequest@GIOP_S@omni@@UAEXAAVomniCallDescriptor@@@Z
?Recv@tcpConnection@omni@@UAEHPAXIABUomni_time_t@@@Z
?ReferenceAddr@GIOP@@2FB
?RequestCompleted@GIOP_C@omni@@UAEX_N@Z
?SRand@LibcWrapper@omni@@SAXI@Z
?Select@SocketCollection@omni@@QAE_NXZ
?Send@tcpConnection@omni@@UAEHPAXIABUomni_time_t@@@Z
?SendException@GIOP_S@omni@@UAEXPAVException@CORBA@@@Z
?SendReply@GIOP_S@omni@@UAEXXZ
?SendingContextRunTime@IOP@@2KB
?ServiceIDtoName@IOP@@SAPBDK@Z
?Shutdown@tcpConnection@omni@@UAEXXZ
?Shutdown@tcpEndpoint@omni@@UAEXXZ
?SkipRequestBody@GIOP_S@omni@@UAEXXZ
?SkipRequestBody@omniCallHandle@@QAEXXZ
?TAG_ALTERNATE_IIOP_ADDRESS@IOP@@2KB
?TAG_ASSOCIATION_OPTIONS@IOP@@2KB
?TAG_CODE_SETS@IOP@@2KB
?TAG_COMPLETE_OBJECT_KEY@IOP@@2KB
?TAG_CSI_ECMA_HYBRID_SEC_MECH@IOP@@2KB
?TAG_CSI_ECMA_PUBLIC_SEC_MECH@IOP@@2KB
?TAG_CSI_ECMA_SECRET_SEC_MECH@IOP@@2KB
?TAG_CSI_SEC_MECH_LIST@IOP@@2KB
?TAG_DCE_BINDING_NAME@IOP@@2KB
?TAG_DCE_NO_PIPES@IOP@@2KB
?TAG_DCE_SEC_MECH@IOP@@2KB
?TAG_DCE_STRING_BINDING@IOP@@2KB
?TAG_ENDPOINT_ID_POSITION@IOP@@2KB
?TAG_FIREWALL_TRANS@IOP@@2KB
?TAG_GENERIC_SEC_MECH@IOP@@2KB
?TAG_GROUP@IOP@@2KB
?TAG_HEARTBEAT_ENABLED@IOP@@2KB
?TAG_INET_SEC_TRANS@IOP@@2KB
?TAG_INTERNET_IOP@IOP@@2KB
?TAG_JAVA_CODEBASE@IOP@@2KB
?TAG_KERBEROSV5_SEC_MECH@IOP@@2KB
?TAG_LOCATION_POLICY@IOP@@2KB
?TAG_MULTIPLE_COMPONENTS@IOP@@2KB
?TAG_NULL_TAG@IOP@@2KB
?TAG_OMNIORB_BIDIR@IOP@@2KB
?TAG_OMNIORB_PERSISTENT_ID@IOP@@2KB
?TAG_OMNIORB_RESTRICTED_CONNECTION@IOP@@2KB
?TAG_OMNIORB_UNIX_TRANS@IOP@@2KB
?TAG_ORB_TYPE@IOP@@2KB
?TAG_POLICIES@IOP@@2KB
?TAG_PRIMARY@IOP@@2KB
?TAG_SCCP_CONTACT_INFO@IOP@@2KB
?TAG_SCCP_IOP@IOP@@2KB
?TAG_SEC_NAME@IOP@@2KB
?TAG_SPKM_1_SEC_MECH@IOP@@2KB
?TAG_SPKM_2_SEC_MECH@IOP@@2KB
?TAG_SSL_SEC_TRANS@IOP@@2KB
?TAG_TLS_SEC_TRANS@IOP@@2KB
?TCS_C@IORInfo@omniIOR@@QAEXPAV0omniCodeSet@omni@@@Z
?TCS_C@IORInfo@omniIOR@@QBEPAV0omniCodeSet@omni@@XZ
?TCS_C@cdrStream@@QAEXPAV0omniCodeSet@omni@@@Z
?TCS_C@cdrStream@@QBEPAV0omniCodeSet@omni@@XZ
?TCS_W@IORInfo@omniIOR@@QAEXPAV0omniCodeSet@omni@@@Z
?TCS_W@IORInfo@omniIOR@@QBEPAV0omniCodeSet@omni@@XZ
?TCS_W@cdrStream@@QAEXPAV0omniCodeSet@omni@@@Z
?TCS_W@cdrStream@@QBEPAV0omniCodeSet@omni@@XZ
?TIMEOUT@omniExHelper@omni@@SAXPBDHKW4CompletionStatus@CORBA@@@Z
?TIMEOUT_LookupTable@omni@@3PAUminorCodeLookup@1@A
?TRANSACTION_MODE@omniExHelper@omni@@SAXPBDHKW4CompletionStatus@CORBA@@@Z
?TRANSACTION_MODE_LookupTable@omni@@3PAUminorCodeLookup@1@A
?TRANSACTION_REQUIRED@omniExHelper@omni@@SAXPBDHKW4CompletionStatus@CORBA@@@Z
?TRANSACTION_REQUIRED_LookupTable@omni@@3PAUminorCodeLookup@1@A
?TRANSACTION_ROLLEDBACK@omniExHelper@omni@@SAXPBDHKW4CompletionStatus@CORBA@@@Z
?TRANSACTION_ROLLEDBACK_LookupTable@omni@@3PAUminorCodeLookup@1@A
?TRANSACTION_UNAVAILABLE@omniExHelper@omni@@SAXPBDHKW4CompletionStatus@CORBA@@@Z
?TRANSACTION_UNAVAILABLE_LookupTable@omni@@3PAUminorCodeLookup@1@A
?TRANSIENT@omniExHelper@omni@@SAXPBDHKW4CompletionStatus@CORBA@@@Z
?TRANSIENT_LookupTable@omni@@3PAUminorCodeLookup@1@A
?Table@omniExHandlers@@2PAPAV1@A
?TableLock@omniExHandlers@@2Vomni_tracedmutex@@A
?TransactionService@IOP@@2KB
?UNKNOWN@omniExHelper@omni@@SAXPBDHKW4CompletionStatus@CORBA@@@Z
?UNKNOWN_LookupTable@omni@@3PAUminorCodeLookup@1@A
?UnMarshallSystemException@GIOP_C@omni@@AAEXXZ
?UnknownExceptionInfo@IOP@@2KB
?_CORBA_bad_param_freebuf@@YAXXZ
?_CORBA_bound_check_error@@YAXXZ
?_CORBA_invoked_nil_objref@@YAXXZ
?_CORBA_invoked_nil_pseudo_ref@@YAXXZ
?_CORBA_marshal_sequence_range_check_error@@YAXAAVcdrStream@@@Z
?_CORBA_new_operator_return_null@@YAXXZ
?_CORBA_use_nil_ptr_as_nil_objref@@YA_NXZ
?_CORBA_use_nil_ptr_as_nil_pseudo_objref@@YA_NPBD@Z
?_NP_decrRefCount@AdapterActivator@PortableServer@@$4PPPPPPPM@A@AEXXZ
?_NP_decrRefCount@AdapterActivator@PortableServer@@$R47M@PPPPPPPM@M@AEXXZ
?_NP_decrRefCount@AdapterActivator@PortableServer@@UAEXXZ
?_NP_decrRefCount@LocalObject@CORBA@@$4PPPPPPPM@A@AEXXZ
?_NP_decrRefCount@LocalObject@CORBA@@UAEXXZ
?_NP_decrRefCount@Object@CORBA@@UAEXXZ
?_NP_decrRefCount@Policy@CORBA@@$4PPPPPPPM@3AEXXZ
?_NP_decrRefCount@Policy@CORBA@@$4PPPPPPPM@A@AEXXZ
?_NP_decrRefCount@Policy@CORBA@@$4PPPPPPPM@BE@AEXXZ
?_NP_decrRefCount@Policy@CORBA@@UAEXXZ
?_NP_decrRefCount@ServantManager@PortableServer@@$4PPPPPPPM@A@AEXXZ
?_NP_decrRefCount@ServantManager@PortableServer@@$R47M@PPPPPPPM@7AEXXZ
?_NP_decrRefCount@ServantManager@PortableServer@@$R4BA@M@PPPPPPPM@7AEXXZ
?_NP_decrRefCount@ServantManager@PortableServer@@UAEXXZ
?_NP_decrRefCount@omniOrbBOA@omni@@UAEXXZ
?_NP_decrRefCount@omniOrbORB@@UAEXXZ
?_NP_decrRefCount@omniOrbPOA@omni@@UAEXXZ
?_NP_decrRefCount@omniOrbPOACurrent@omni@@UAEXXZ
?_NP_decrRefCount@omniOrbPOAManager@omni@@UAEXXZ
?_NP_disconnect@omniObjRef@@QAEXXZ
?_NP_duplicate@AdapterAlreadyExists@POA@PortableServer@@EBEPAVException@CORBA@@XZ
?_NP_duplicate@AdapterInactive@POA@PortableServer@@EBEPAVException@CORBA@@XZ
?_NP_duplicate@AdapterInactive@POAManager@PortableServer@@EBEPAVException@CORBA@@XZ
?_NP_duplicate@AdapterNonExistent@POA@PortableServer@@EBEPAVException@CORBA@@XZ
?_NP_duplicate@AlreadyBound@NamingContext@CosNaming@@UBEPAVException@CORBA@@XZ
?_NP_duplicate@BAD_CONTEXT@CORBA@@EBEPAVException@2@XZ
?_NP_duplicate@BAD_INV_ORDER@CORBA@@EBEPAVException@2@XZ
?_NP_duplicate@BAD_OPERATION@CORBA@@EBEPAVException@2@XZ
?_NP_duplicate@BAD_PARAM@CORBA@@EBEPAVException@2@XZ
?_NP_duplicate@BAD_QOS@CORBA@@EBEPAVException@2@XZ
?_NP_duplicate@BAD_TYPECODE@CORBA@@EBEPAVException@2@XZ
?_NP_duplicate@CODESET_INCOMPATIBLE@CORBA@@EBEPAVException@2@XZ
?_NP_duplicate@COMM_FAILURE@CORBA@@EBEPAVException@2@XZ
?_NP_duplicate@CannotProceed@NamingContext@CosNaming@@UBEPAVException@CORBA@@XZ
?_NP_duplicate@DATA_CONVERSION@CORBA@@EBEPAVException@2@XZ
?_NP_duplicate@FREE_MEM@CORBA@@EBEPAVException@2@XZ
?_NP_duplicate@ForwardRequest@PortableServer@@UBEPAVException@CORBA@@XZ
?_NP_duplicate@IMP_LIMIT@CORBA@@EBEPAVException@2@XZ
?_NP_duplicate@INITIALIZE@CORBA@@EBEPAVException@2@XZ
?_NP_duplicate@INTERNAL@CORBA@@EBEPAVException@2@XZ
?_NP_duplicate@INTF_REPOS@CORBA@@EBEPAVException@2@XZ
?_NP_duplicate@INVALID_TRANSACTION@CORBA@@EBEPAVException@2@XZ
?_NP_duplicate@INV_FLAG@CORBA@@EBEPAVException@2@XZ
?_NP_duplicate@INV_IDENT@CORBA@@EBEPAVException@2@XZ
?_NP_duplicate@INV_OBJREF@CORBA@@EBEPAVException@2@XZ
?_NP_duplicate@INV_POLICY@CORBA@@EBEPAVException@2@XZ
?_NP_duplicate@InvalidAddress@NamingContextExt@CosNaming@@UBEPAVException@CORBA@@XZ
?_NP_duplicate@InvalidName@NamingContext@CosNaming@@UBEPAVException@CORBA@@XZ
?_NP_duplicate@InvalidName@ORB@CORBA@@EBEPAVException@3@XZ
?_NP_duplicate@InvalidPolicy@POA@PortableServer@@EBEPAVException@CORBA@@XZ
?_NP_duplicate@MARSHAL@CORBA@@EBEPAVException@2@XZ
?_NP_duplicate@NO_IMPLEMENT@CORBA@@EBEPAVException@2@XZ
?_NP_duplicate@NO_MEMORY@CORBA@@EBEPAVException@2@XZ
?_NP_duplicate@NO_PERMISSION@CORBA@@EBEPAVException@2@XZ
?_NP_duplicate@NO_RESOURCES@CORBA@@EBEPAVException@2@XZ
?_NP_duplicate@NO_RESPONSE@CORBA@@EBEPAVException@2@XZ
?_NP_duplicate@NoContext@Current@PortableServer@@EBEPAVException@CORBA@@XZ
?_NP_duplicate@NoServant@POA@PortableServer@@EBEPAVException@CORBA@@XZ
?_NP_duplicate@NotEmpty@NamingContext@CosNaming@@UBEPAVException@CORBA@@XZ
?_NP_duplicate@NotFound@NamingContext@CosNaming@@UBEPAVException@CORBA@@XZ
?_NP_duplicate@OBJECT_NOT_EXIST@CORBA@@EBEPAVException@2@XZ
?_NP_duplicate@OBJ_ADAPTER@CORBA@@EBEPAVException@2@XZ
?_NP_duplicate@ObjectAlreadyActive@POA@PortableServer@@EBEPAVException@CORBA@@XZ
?_NP_duplicate@ObjectNotActive@POA@PortableServer@@EBEPAVException@CORBA@@XZ
?_NP_duplicate@PERSIST_STORE@CORBA@@EBEPAVException@2@XZ
?_NP_duplicate@PolicyError@CORBA@@EBEPAVException@2@XZ
?_NP_duplicate@REBIND@CORBA@@EBEPAVException@2@XZ
?_NP_duplicate@ServantAlreadyActive@POA@PortableServer@@EBEPAVException@CORBA@@XZ
?_NP_duplicate@ServantNotActive@POA@PortableServer@@EBEPAVException@CORBA@@XZ
?_NP_duplicate@TIMEOUT@CORBA@@EBEPAVException@2@XZ
?_NP_duplicate@TRANSACTION_MODE@CORBA@@EBEPAVException@2@XZ
?_NP_duplicate@TRANSACTION_REQUIRED@CORBA@@EBEPAVException@2@XZ
?_NP_duplicate@TRANSACTION_ROLLEDBACK@CORBA@@EBEPAVException@2@XZ
?_NP_duplicate@TRANSACTION_UNAVAILABLE@CORBA@@EBEPAVException@2@XZ
?_NP_duplicate@TRANSIENT@CORBA@@EBEPAVException@2@XZ
?_NP_duplicate@UNKNOWN@CORBA@@EBEPAVException@2@XZ
?_NP_duplicate@WrongAdapter@POA@PortableServer@@EBEPAVException@CORBA@@XZ
?_NP_duplicate@WrongPolicy@POA@PortableServer@@EBEPAVException@CORBA@@XZ
?_NP_incrRefCount@AdapterActivator@PortableServer@@$4PPPPPPPM@A@AEXXZ
?_NP_incrRefCount@AdapterActivator@PortableServer@@$R47M@PPPPPPPM@M@AEXXZ
?_NP_incrRefCount@AdapterActivator@PortableServer@@UAEXXZ
?_NP_incrRefCount@LocalObject@CORBA@@$4PPPPPPPM@A@AEXXZ
?_NP_incrRefCount@LocalObject@CORBA@@UAEXXZ
?_NP_incrRefCount@Object@CORBA@@UAEXXZ
?_NP_incrRefCount@Policy@CORBA@@$4PPPPPPPM@3AEXXZ
?_NP_incrRefCount@Policy@CORBA@@$4PPPPPPPM@A@AEXXZ
?_NP_incrRefCount@Policy@CORBA@@$4PPPPPPPM@BE@AEXXZ
?_NP_incrRefCount@Policy@CORBA@@UAEXXZ
?_NP_incrRefCount@ServantManager@PortableServer@@$4PPPPPPPM@A@AEXXZ
?_NP_incrRefCount@ServantManager@PortableServer@@$R47M@PPPPPPPM@7AEXXZ
?_NP_incrRefCount@ServantManager@PortableServer@@$R4BA@M@PPPPPPPM@7AEXXZ
?_NP_incrRefCount@ServantManager@PortableServer@@UAEXXZ
?_NP_incrRefCount@omniOrbBOA@omni@@UAEXXZ
?_NP_incrRefCount@omniOrbORB@@UAEXXZ
?_NP_incrRefCount@omniOrbPOA@omni@@UAEXXZ
?_NP_incrRefCount@omniOrbPOACurrent@omni@@UAEXXZ
?_NP_incrRefCount@omniOrbPOAManager@omni@@UAEXXZ
?_NP_is_a@Exception@CORBA@@KAPAV12@PBV12@PBD@Z
?_NP_is_nil@Object@CORBA@@QBE_NXZ
?_NP_is_pseudo@Object@CORBA@@QBE_NXZ
?_NP_marshal@AdapterAlreadyExists@POA@PortableServer@@EBEXAAVcdrStream@@@Z
?_NP_marshal@AdapterInactive@POA@PortableServer@@EBEXAAVcdrStream@@@Z
?_NP_marshal@AdapterInactive@POAManager@PortableServer@@EBEXAAVcdrStream@@@Z
?_NP_marshal@AdapterNonExistent@POA@PortableServer@@EBEXAAVcdrStream@@@Z
?_NP_marshal@AlreadyBound@NamingContext@CosNaming@@EBEXAAVcdrStream@@@Z
?_NP_marshal@CannotProceed@NamingContext@CosNaming@@EBEXAAVcdrStream@@@Z
?_NP_marshal@ForwardRequest@PortableServer@@EBEXAAVcdrStream@@@Z
?_NP_marshal@InvalidAddress@NamingContextExt@CosNaming@@EBEXAAVcdrStream@@@Z
?_NP_marshal@InvalidName@NamingContext@CosNaming@@EBEXAAVcdrStream@@@Z
?_NP_marshal@InvalidName@ORB@CORBA@@EBEXAAVcdrStream@@@Z
?_NP_marshal@InvalidPolicy@POA@PortableServer@@EBEXAAVcdrStream@@@Z
?_NP_marshal@NoContext@Current@PortableServer@@EBEXAAVcdrStream@@@Z
?_NP_marshal@NoServant@POA@PortableServer@@EBEXAAVcdrStream@@@Z
?_NP_marshal@NotEmpty@NamingContext@CosNaming@@EBEXAAVcdrStream@@@Z
?_NP_marshal@NotFound@NamingContext@CosNaming@@EBEXAAVcdrStream@@@Z
?_NP_marshal@ObjectAlreadyActive@POA@PortableServer@@EBEXAAVcdrStream@@@Z
?_NP_marshal@ObjectNotActive@POA@PortableServer@@EBEXAAVcdrStream@@@Z
?_NP_marshal@PolicyError@CORBA@@EBEXAAVcdrStream@@@Z
?_NP_marshal@ServantAlreadyActive@POA@PortableServer@@EBEXAAVcdrStream@@@Z
?_NP_marshal@ServantNotActive@POA@PortableServer@@EBEXAAVcdrStream@@@Z
?_NP_marshal@SystemException@CORBA@@EBEXAAVcdrStream@@@Z
?_NP_marshal@WrongAdapter@POA@PortableServer@@EBEXAAVcdrStream@@@Z
?_NP_marshal@WrongPolicy@POA@PortableServer@@EBEXAAVcdrStream@@@Z
?_NP_repoId@AdapterAlreadyExists@POA@PortableServer@@EBEPBDPAH@Z
?_NP_repoId@AdapterInactive@POA@PortableServer@@EBEPBDPAH@Z
?_NP_repoId@AdapterInactive@POAManager@PortableServer@@EBEPBDPAH@Z
?_NP_repoId@AdapterNonExistent@POA@PortableServer@@EBEPBDPAH@Z
?_NP_repoId@AlreadyBound@NamingContext@CosNaming@@EBEPBDPAH@Z
?_NP_repoId@BAD_CONTEXT@CORBA@@UBEPBDPAH@Z
?_NP_repoId@BAD_INV_ORDER@CORBA@@UBEPBDPAH@Z
?_NP_repoId@BAD_OPERATION@CORBA@@UBEPBDPAH@Z
?_NP_repoId@BAD_PARAM@CORBA@@UBEPBDPAH@Z
?_NP_repoId@BAD_QOS@CORBA@@UBEPBDPAH@Z
?_NP_repoId@BAD_TYPECODE@CORBA@@UBEPBDPAH@Z
?_NP_repoId@CODESET_INCOMPATIBLE@CORBA@@UBEPBDPAH@Z
?_NP_repoId@COMM_FAILURE@CORBA@@UBEPBDPAH@Z
?_NP_repoId@CannotProceed@NamingContext@CosNaming@@EBEPBDPAH@Z
?_NP_repoId@DATA_CONVERSION@CORBA@@UBEPBDPAH@Z
?_NP_repoId@FREE_MEM@CORBA@@UBEPBDPAH@Z
?_NP_repoId@ForwardRequest@PortableServer@@EBEPBDPAH@Z
?_NP_repoId@IMP_LIMIT@CORBA@@UBEPBDPAH@Z
?_NP_repoId@INITIALIZE@CORBA@@UBEPBDPAH@Z
?_NP_repoId@INTERNAL@CORBA@@UBEPBDPAH@Z
?_NP_repoId@INTF_REPOS@CORBA@@UBEPBDPAH@Z
?_NP_repoId@INVALID_TRANSACTION@CORBA@@UBEPBDPAH@Z
?_NP_repoId@INV_FLAG@CORBA@@UBEPBDPAH@Z
?_NP_repoId@INV_IDENT@CORBA@@UBEPBDPAH@Z
?_NP_repoId@INV_OBJREF@CORBA@@UBEPBDPAH@Z
?_NP_repoId@INV_POLICY@CORBA@@UBEPBDPAH@Z
?_NP_repoId@InvalidAddress@NamingContextExt@CosNaming@@EBEPBDPAH@Z
?_NP_repoId@InvalidName@NamingContext@CosNaming@@EBEPBDPAH@Z
?_NP_repoId@InvalidName@ORB@CORBA@@EBEPBDPAH@Z
?_NP_repoId@InvalidPolicy@POA@PortableServer@@EBEPBDPAH@Z
?_NP_repoId@MARSHAL@CORBA@@UBEPBDPAH@Z
?_NP_repoId@NO_IMPLEMENT@CORBA@@UBEPBDPAH@Z
?_NP_repoId@NO_MEMORY@CORBA@@UBEPBDPAH@Z
?_NP_repoId@NO_PERMISSION@CORBA@@UBEPBDPAH@Z
?_NP_repoId@NO_RESOURCES@CORBA@@UBEPBDPAH@Z
?_NP_repoId@NO_RESPONSE@CORBA@@UBEPBDPAH@Z
?_NP_repoId@NoContext@Current@PortableServer@@EBEPBDPAH@Z
?_NP_repoId@NoServant@POA@PortableServer@@EBEPBDPAH@Z
?_NP_repoId@NotEmpty@NamingContext@CosNaming@@EBEPBDPAH@Z
?_NP_repoId@NotFound@NamingContext@CosNaming@@EBEPBDPAH@Z
?_NP_repoId@OBJECT_NOT_EXIST@CORBA@@UBEPBDPAH@Z
?_NP_repoId@OBJ_ADAPTER@CORBA@@UBEPBDPAH@Z
?_NP_repoId@ObjectAlreadyActive@POA@PortableServer@@EBEPBDPAH@Z
?_NP_repoId@ObjectNotActive@POA@PortableServer@@EBEPBDPAH@Z
?_NP_repoId@PERSIST_STORE@CORBA@@UBEPBDPAH@Z
?_NP_repoId@PolicyError@CORBA@@EBEPBDPAH@Z
?_NP_repoId@REBIND@CORBA@@UBEPBDPAH@Z
?_NP_repoId@ServantAlreadyActive@POA@PortableServer@@EBEPBDPAH@Z
?_NP_repoId@ServantNotActive@POA@PortableServer@@EBEPBDPAH@Z
?_NP_repoId@TIMEOUT@CORBA@@UBEPBDPAH@Z
?_NP_repoId@TRANSACTION_MODE@CORBA@@UBEPBDPAH@Z
?_NP_repoId@TRANSACTION_REQUIRED@CORBA@@UBEPBDPAH@Z
?_NP_repoId@TRANSACTION_ROLLEDBACK@CORBA@@UBEPBDPAH@Z
?_NP_repoId@TRANSACTION_UNAVAILABLE@CORBA@@UBEPBDPAH@Z
?_NP_repoId@TRANSIENT@CORBA@@UBEPBDPAH@Z
?_NP_repoId@UNKNOWN@CORBA@@UBEPBDPAH@Z
?_NP_repoId@WrongAdapter@POA@PortableServer@@EBEPBDPAH@Z
?_NP_repoId@WrongPolicy@POA@PortableServer@@EBEPBDPAH@Z
?_NP_typeId@AdapterAlreadyExists@POA@PortableServer@@EBEPBDXZ
?_NP_typeId@AdapterInactive@POA@PortableServer@@EBEPBDXZ
?_NP_typeId@AdapterInactive@POAManager@PortableServer@@EBEPBDXZ
?_NP_typeId@AdapterNonExistent@POA@PortableServer@@EBEPBDXZ
?_NP_typeId@AlreadyBound@NamingContext@CosNaming@@EBEPBDXZ
?_NP_typeId@BAD_CONTEXT@CORBA@@EBEPBDXZ
?_NP_typeId@BAD_INV_ORDER@CORBA@@EBEPBDXZ
?_NP_typeId@BAD_OPERATION@CORBA@@EBEPBDXZ
?_NP_typeId@BAD_PARAM@CORBA@@EBEPBDXZ
?_NP_typeId@BAD_QOS@CORBA@@EBEPBDXZ
?_NP_typeId@BAD_TYPECODE@CORBA@@EBEPBDXZ
?_NP_typeId@CODESET_INCOMPATIBLE@CORBA@@EBEPBDXZ
?_NP_typeId@COMM_FAILURE@CORBA@@EBEPBDXZ
?_NP_typeId@CannotProceed@NamingContext@CosNaming@@EBEPBDXZ
?_NP_typeId@DATA_CONVERSION@CORBA@@EBEPBDXZ
?_NP_typeId@FREE_MEM@CORBA@@EBEPBDXZ
?_NP_typeId@ForwardRequest@PortableServer@@EBEPBDXZ
?_NP_typeId@IMP_LIMIT@CORBA@@EBEPBDXZ
?_NP_typeId@INITIALIZE@CORBA@@EBEPBDXZ
?_NP_typeId@INTERNAL@CORBA@@EBEPBDXZ
?_NP_typeId@INTF_REPOS@CORBA@@EBEPBDXZ
?_NP_typeId@INVALID_TRANSACTION@CORBA@@EBEPBDXZ
?_NP_typeId@INV_FLAG@CORBA@@EBEPBDXZ
?_NP_typeId@INV_IDENT@CORBA@@EBEPBDXZ
?_NP_typeId@INV_OBJREF@CORBA@@EBEPBDXZ
?_NP_typeId@INV_POLICY@CORBA@@EBEPBDXZ
?_NP_typeId@InvalidAddress@NamingContextExt@CosNaming@@EBEPBDXZ
?_NP_typeId@InvalidName@NamingContext@CosNaming@@EBEPBDXZ
?_NP_typeId@InvalidName@ORB@CORBA@@EBEPBDXZ
?_NP_typeId@InvalidPolicy@POA@PortableServer@@EBEPBDXZ
?_NP_typeId@MARSHAL@CORBA@@EBEPBDXZ
?_NP_typeId@NO_IMPLEMENT@CORBA@@EBEPBDXZ
?_NP_typeId@NO_MEMORY@CORBA@@EBEPBDXZ
?_NP_typeId@NO_PERMISSION@CORBA@@EBEPBDXZ
?_NP_typeId@NO_RESOURCES@CORBA@@EBEPBDXZ
?_NP_typeId@NO_RESPONSE@CORBA@@EBEPBDXZ
?_NP_typeId@NoContext@Current@PortableServer@@EBEPBDXZ
?_NP_typeId@NoServant@POA@PortableServer@@EBEPBDXZ
?_NP_typeId@NotEmpty@NamingContext@CosNaming@@EBEPBDXZ
?_NP_typeId@NotFound@NamingContext@CosNaming@@EBEPBDXZ
?_NP_typeId@OBJECT_NOT_EXIST@CORBA@@EBEPBDXZ
?_NP_typeId@OBJ_ADAPTER@CORBA@@EBEPBDXZ
?_NP_typeId@ObjectAlreadyActive@POA@PortableServer@@EBEPBDXZ
?_NP_typeId@ObjectNotActive@POA@PortableServer@@EBEPBDXZ
?_NP_typeId@PERSIST_STORE@CORBA@@EBEPBDXZ
?_NP_typeId@PolicyError@CORBA@@EBEPBDXZ
?_NP_typeId@REBIND@CORBA@@EBEPBDXZ
?_NP_typeId@ServantAlreadyActive@POA@PortableServer@@EBEPBDXZ
?_NP_typeId@ServantNotActive@POA@PortableServer@@EBEPBDXZ
?_NP_typeId@TIMEOUT@CORBA@@EBEPBDXZ
?_NP_typeId@TRANSACTION_MODE@CORBA@@EBEPBDXZ
?_NP_typeId@TRANSACTION_REQUIRED@CORBA@@EBEPBDXZ
?_NP_typeId@TRANSACTION_ROLLEDBACK@CORBA@@EBEPBDXZ
?_NP_typeId@TRANSACTION_UNAVAILABLE@CORBA@@EBEPBDXZ
?_NP_typeId@TRANSIENT@CORBA@@EBEPBDXZ
?_NP_typeId@UNKNOWN@CORBA@@EBEPBDXZ
?_NP_typeId@WrongAdapter@POA@PortableServer@@EBEPBDXZ
?_NP_typeId@WrongPolicy@POA@PortableServer@@EBEPBDXZ
?_OptionsStorage@?1??__local_stdio_printf_options@@9@4_KA
?_OptionsStorage@?1??__local_stdio_scanf_options@@9@4_KA
?_PD_repoId@AdapterActivator@PortableServer@@2PBDB
?_PD_repoId@AdapterAlreadyExists@POA@PortableServer@@2PBDB
?_PD_repoId@AdapterInactive@POA@PortableServer@@2PBDB
?_PD_repoId@AdapterInactive@POAManager@PortableServer@@2PBDB
?_PD_repoId@AdapterNonExistent@POA@PortableServer@@2PBDB
?_PD_repoId@AlreadyBound@NamingContext@CosNaming@@2PBDB
?_PD_repoId@BOA@CORBA@@2PBDB
?_PD_repoId@BidirectionalPolicy@BiDirPolicy@@2PBDB
?_PD_repoId@BindingIterator@CosNaming@@2PBDB
?_PD_repoId@CORBA_InitialReferences@@2PBDB
?_PD_repoId@CannotProceed@NamingContext@CosNaming@@2PBDB
?_PD_repoId@Current@CORBA@@2PBDB
?_PD_repoId@Current@PortableServer@@2PBDB
?_PD_repoId@EndPointPublishPolicy@omniPolicy@@2PBDB
?_PD_repoId@ForwardRequest@PortableServer@@2PBDB
?_PD_repoId@IdAssignmentPolicy@PortableServer@@2PBDB
?_PD_repoId@IdUniquenessPolicy@PortableServer@@2PBDB
?_PD_repoId@ImplicitActivationPolicy@PortableServer@@2PBDB
?_PD_repoId@InvalidAddress@NamingContextExt@CosNaming@@2PBDB
?_PD_repoId@InvalidName@NamingContext@CosNaming@@2PBDB
?_PD_repoId@InvalidName@ORB@CORBA@@2PBDB
?_PD_repoId@InvalidPolicy@POA@PortableServer@@2PBDB
?_PD_repoId@LifespanPolicy@PortableServer@@2PBDB
?_PD_repoId@LocalObject@CORBA@@2PBDB
?_PD_repoId@LocalShortcutPolicy@omniPolicy@@2PBDB
?_PD_repoId@NamingContext@CosNaming@@2PBDB
?_PD_repoId@NamingContextExt@CosNaming@@2PBDB
?_PD_repoId@NoContext@Current@PortableServer@@2PBDB
?_PD_repoId@NoServant@POA@PortableServer@@2PBDB
?_PD_repoId@NotEmpty@NamingContext@CosNaming@@2PBDB
?_PD_repoId@NotFound@NamingContext@CosNaming@@2PBDB
?_PD_repoId@ORB@CORBA@@2PBDB
?_PD_repoId@Object@CORBA@@2PBDB
?_PD_repoId@ObjectAlreadyActive@POA@PortableServer@@2PBDB
?_PD_repoId@ObjectNotActive@POA@PortableServer@@2PBDB
?_PD_repoId@POA@PortableServer@@2PBDB
?_PD_repoId@POAManager@PortableServer@@2PBDB
?_PD_repoId@Policy@CORBA@@2PBDB
?_PD_repoId@PolicyError@CORBA@@2PBDB
?_PD_repoId@RequestProcessingPolicy@PortableServer@@2PBDB
?_PD_repoId@ServantActivator@PortableServer@@2PBDB
?_PD_repoId@ServantAlreadyActive@POA@PortableServer@@2PBDB
?_PD_repoId@ServantLocator@PortableServer@@2PBDB
?_PD_repoId@ServantManager@PortableServer@@2PBDB
?_PD_repoId@ServantNotActive@POA@PortableServer@@2PBDB
?_PD_repoId@ServantRetentionPolicy@PortableServer@@2PBDB
?_PD_repoId@ThreadPolicy@PortableServer@@2PBDB
?_PD_repoId@WrongAdapter@POA@PortableServer@@2PBDB
?_PD_repoId@WrongPolicy@POA@PortableServer@@2PBDB
?_PD_typeId@AlreadyBound@NamingContext@CosNaming@@2PBDB
?_PD_typeId@CannotProceed@NamingContext@CosNaming@@2PBDB
?_PD_typeId@ForwardRequest@PortableServer@@2PBDB
?_PD_typeId@InvalidAddress@NamingContextExt@CosNaming@@2PBDB
?_PD_typeId@InvalidName@NamingContext@CosNaming@@2PBDB
?_PD_typeId@NotEmpty@NamingContext@CosNaming@@2PBDB
?_PD_typeId@NotFound@NamingContext@CosNaming@@2PBDB
?_PR_getobj@Object@CORBA@@QAEPAVomniObjRef@@XZ
?_PR_is_valid@Object@CORBA@@SA_NPAV12@@Z
?_PR_magic@Object@CORBA@@2KB
?_PR_setobj@Object@CORBA@@QAEXPAVomniObjRef@@@Z
?__hash@omniObjRef@@QAEKK@Z
?__is_equivalent@omniObjRef@@QAE_NPAV1@@Z
?_activations@omniServant@@QBEABV?$omnivector@PAVomniObjTableEntry@@@@XZ
?_addActivation@omniServant@@QAEXPAVomniObjTableEntry@@@Z
?_add_ref@LocalObject@CORBA@@UAEXXZ
?_add_ref@ServantBase@PortableServer@@$4PPPPPPPM@A@AEXXZ
?_add_ref@ServantBase@PortableServer@@$R47BA@PPPPPPPM@BA@AEXXZ
?_add_ref@ServantBase@PortableServer@@$R47M@PPPPPPPM@BA@AEXXZ
?_add_ref@ServantBase@PortableServer@@UAEXXZ
?_add_ref@omniServant@@UAEXXZ
?_assertExistsAndTypeVerified@omniObjRef@@QAEXXZ
?_classid@GIOP_C@omni@@2HA
?_classid@GIOP_S@omni@@2HA
?_classid@cdrCountingStream@@2HA
?_classid@cdrEncapsulationStream@@2HA
?_classid@cdrMemoryStream@@2HA
?_classid@cdrStream@@2HA
?_classid@cdrStreamAdapter@@2HA
?_classid@cdrValueChunkStream@@2HA
?_classid@giopStream@omni@@2HA
?_classid@omniIdentity@@2HA
?_classid@omniInProcessIdentity@@2HA
?_classid@omniLocalIdentity@@2HA
?_classid@omniObjAdapter@omni@@2HA
?_classid@omniObjTableEntry@@2HA
?_classid@omniOrbBOA@omni@@2HA
?_classid@omniOrbPOA@omni@@2HA
?_classid@omniRemoteIdentity@@2HA
?_classid@omniShutdownIdentity@@2HA
?_commFailureExceptionHandler@omniObjRef@@QAEPAXAAPAXAA_N@Z
?_commFailureExceptionHandler@omniObjRef@@QAEXPAX0_N@Z
?_default_POA@ServantBase@PortableServer@@UAEPAVPOA@2@XZ
?_disable@omniObjRef@@AAEXXZ
?_dispatch@_impl_AdapterActivator@PortableServer@@$4PPPPPPPM@A@AE_NAAVomniCallHandle@@@Z
?_dispatch@_impl_AdapterActivator@PortableServer@@$R477PPPPPPPM@M@AE_NAAVomniCallHandle@@@Z
?_dispatch@_impl_AdapterActivator@PortableServer@@UAE_NAAVomniCallHandle@@@Z
?_dispatch@_impl_BindingIterator@CosNaming@@$4PPPPPPPM@A@AE_NAAVomniCallHandle@@@Z
?_dispatch@_impl_BindingIterator@CosNaming@@$R477PPPPPPPM@M@AE_NAAVomniCallHandle@@@Z
?_dispatch@_impl_BindingIterator@CosNaming@@UAE_NAAVomniCallHandle@@@Z
?_dispatch@_impl_CORBA_InitialReferences@@$4PPPPPPPM@A@AE_NAAVomniCallHandle@@@Z
?_dispatch@_impl_CORBA_InitialReferences@@$R477PPPPPPPM@M@AE_NAAVomniCallHandle@@@Z
?_dispatch@_impl_CORBA_InitialReferences@@UAE_NAAVomniCallHandle@@@Z
?_dispatch@_impl_NamingContext@CosNaming@@$4PPPPPPPM@A@AE_NAAVomniCallHandle@@@Z
?_dispatch@_impl_NamingContext@CosNaming@@$R477PPPPPPPM@M@AE_NAAVomniCallHandle@@@Z
?_dispatch@_impl_NamingContext@CosNaming@@UAE_NAAVomniCallHandle@@@Z
?_dispatch@_impl_NamingContextExt@CosNaming@@$4PPPPPPPM@A@AE_NAAVomniCallHandle@@@Z
?_dispatch@_impl_NamingContextExt@CosNaming@@$R47M@PPPPPPPM@M@AE_NAAVomniCallHandle@@@Z
?_dispatch@_impl_NamingContextExt@CosNaming@@UAE_NAAVomniCallHandle@@@Z
?_dispatch@_impl_ServantActivator@PortableServer@@$4PPPPPPPM@A@AE_NAAVomniCallHandle@@@Z
?_dispatch@_impl_ServantActivator@PortableServer@@$R47M@PPPPPPPM@M@AE_NAAVomniCallHandle@@@Z
?_dispatch@_impl_ServantActivator@PortableServer@@UAE_NAAVomniCallHandle@@@Z
?_dispatch@_impl_ServantLocator@PortableServer@@$2PPPPPPPM@A@AE_NAAVomniCallHandle@@@Z
?_dispatch@_impl_ServantLocator@PortableServer@@$R27M@PPPPPPPM@M@AE_NAAVomniCallHandle@@@Z
?_dispatch@_impl_ServantLocator@PortableServer@@MAE_NAAVomniCallHandle@@@Z
?_dispatch@_impl_ServantManager@PortableServer@@$4PPPPPPPM@A@AE_NAAVomniCallHandle@@@Z
?_dispatch@_impl_ServantManager@PortableServer@@$R477PPPPPPPM@7AE_NAAVomniCallHandle@@@Z
?_dispatch@_impl_ServantManager@PortableServer@@UAE_NAAVomniCallHandle@@@Z
?_dispatch@omniServant@@UAE_NAAVomniCallHandle@@@Z
?_dispose@omniOrbBoaServant@@QAEXXZ
?_do_get_interface@ServantBase@PortableServer@@$0PPPPPPPM@A@AEPAVomniObjRef@@XZ
?_do_get_interface@ServantBase@PortableServer@@$R07BA@PPPPPPPM@BA@AEPAVomniObjRef@@XZ
?_do_get_interface@ServantBase@PortableServer@@$R07M@PPPPPPPM@BA@AEPAVomniObjRef@@XZ
?_do_get_interface@ServantBase@PortableServer@@EAEPAVomniObjRef@@XZ
?_do_get_interface@omniOrbBoaServant@@$0PPPPPPPM@A@AEPAVomniObjRef@@XZ
?_do_get_interface@omniOrbBoaServant@@EAEPAVomniObjRef@@XZ
?_do_this@ServantBase@PortableServer@@IAEPAXPBD@Z
?_downcast@AdapterAlreadyExists@POA@PortableServer@@SAPAV123@PAVException@CORBA@@@Z
?_downcast@AdapterAlreadyExists@POA@PortableServer@@SAPBV123@PBVException@CORBA@@@Z
?_downcast@AdapterInactive@POA@PortableServer@@SAPAV123@PAVException@CORBA@@@Z
?_downcast@AdapterInactive@POA@PortableServer@@SAPBV123@PBVException@CORBA@@@Z
?_downcast@AdapterInactive@POAManager@PortableServer@@SAPAV123@PAVException@CORBA@@@Z
?_downcast@AdapterInactive@POAManager@PortableServer@@SAPBV123@PBVException@CORBA@@@Z
?_downcast@AdapterNonExistent@POA@PortableServer@@SAPAV123@PAVException@CORBA@@@Z
?_downcast@AdapterNonExistent@POA@PortableServer@@SAPBV123@PBVException@CORBA@@@Z
?_downcast@AlreadyBound@NamingContext@CosNaming@@SAPAV123@PAVException@CORBA@@@Z
?_downcast@AlreadyBound@NamingContext@CosNaming@@SAPBV123@PBVException@CORBA@@@Z
?_downcast@BAD_CONTEXT@CORBA@@SAPAV12@PAVException@2@@Z
?_downcast@BAD_CONTEXT@CORBA@@SAPBV12@PBVException@2@@Z
?_downcast@BAD_INV_ORDER@CORBA@@SAPAV12@PAVException@2@@Z
?_downcast@BAD_INV_ORDER@CORBA@@SAPBV12@PBVException@2@@Z
?_downcast@BAD_OPERATION@CORBA@@SAPAV12@PAVException@2@@Z
?_downcast@BAD_OPERATION@CORBA@@SAPBV12@PBVException@2@@Z
?_downcast@BAD_PARAM@CORBA@@SAPAV12@PAVException@2@@Z
?_downcast@BAD_PARAM@CORBA@@SAPBV12@PBVException@2@@Z
?_downcast@BAD_QOS@CORBA@@SAPAV12@PAVException@2@@Z
?_downcast@BAD_QOS@CORBA@@SAPBV12@PBVException@2@@Z
?_downcast@BAD_TYPECODE@CORBA@@SAPAV12@PAVException@2@@Z
?_downcast@BAD_TYPECODE@CORBA@@SAPBV12@PBVException@2@@Z
?_downcast@CODESET_INCOMPATIBLE@CORBA@@SAPAV12@PAVException@2@@Z
?_downcast@CODESET_INCOMPATIBLE@CORBA@@SAPBV12@PBVException@2@@Z
?_downcast@COMM_FAILURE@CORBA@@SAPAV12@PAVException@2@@Z
?_downcast@COMM_FAILURE@CORBA@@SAPBV12@PBVException@2@@Z
?_downcast@CannotProceed@NamingContext@CosNaming@@SAPAV123@PAVException@CORBA@@@Z
?_downcast@CannotProceed@NamingContext@CosNaming@@SAPBV123@PBVException@CORBA@@@Z
?_downcast@DATA_CONVERSION@CORBA@@SAPAV12@PAVException@2@@Z
?_downcast@DATA_CONVERSION@CORBA@@SAPBV12@PBVException@2@@Z
?_downcast@FREE_MEM@CORBA@@SAPAV12@PAVException@2@@Z
?_downcast@FREE_MEM@CORBA@@SAPBV12@PBVException@2@@Z
?_downcast@ForwardRequest@PortableServer@@SAPAV12@PAVException@CORBA@@@Z
?_downcast@ForwardRequest@PortableServer@@SAPBV12@PBVException@CORBA@@@Z
?_downcast@IMP_LIMIT@CORBA@@SAPAV12@PAVException@2@@Z
?_downcast@IMP_LIMIT@CORBA@@SAPBV12@PBVException@2@@Z
?_downcast@INITIALIZE@CORBA@@SAPAV12@PAVException@2@@Z
?_downcast@INITIALIZE@CORBA@@SAPBV12@PBVException@2@@Z
?_downcast@INTERNAL@CORBA@@SAPAV12@PAVException@2@@Z
?_downcast@INTERNAL@CORBA@@SAPBV12@PBVException@2@@Z
?_downcast@INTF_REPOS@CORBA@@SAPAV12@PAVException@2@@Z
?_downcast@INTF_REPOS@CORBA@@SAPBV12@PBVException@2@@Z
?_downcast@INVALID_TRANSACTION@CORBA@@SAPAV12@PAVException@2@@Z
?_downcast@INVALID_TRANSACTION@CORBA@@SAPBV12@PBVException@2@@Z
?_downcast@INV_FLAG@CORBA@@SAPAV12@PAVException@2@@Z
?_downcast@INV_FLAG@CORBA@@SAPBV12@PBVException@2@@Z
?_downcast@INV_IDENT@CORBA@@SAPAV12@PAVException@2@@Z
?_downcast@INV_IDENT@CORBA@@SAPBV12@PBVException@2@@Z
?_downcast@INV_OBJREF@CORBA@@SAPAV12@PAVException@2@@Z
?_downcast@INV_OBJREF@CORBA@@SAPBV12@PBVException@2@@Z
?_downcast@INV_POLICY@CORBA@@SAPAV12@PAVException@2@@Z
?_downcast@INV_POLICY@CORBA@@SAPBV12@PBVException@2@@Z
?_downcast@InvalidAddress@NamingContextExt@CosNaming@@SAPAV123@PAVException@CORBA@@@Z
?_downcast@InvalidAddress@NamingContextExt@CosNaming@@SAPBV123@PBVException@CORBA@@@Z
?_downcast@InvalidName@NamingContext@CosNaming@@SAPAV123@PAVException@CORBA@@@Z
?_downcast@InvalidName@NamingContext@CosNaming@@SAPBV123@PBVException@CORBA@@@Z
?_downcast@InvalidName@ORB@CORBA@@SAPAV123@PAVException@3@@Z
?_downcast@InvalidName@ORB@CORBA@@SAPBV123@PBVException@3@@Z
?_downcast@InvalidPolicy@POA@PortableServer@@SAPAV123@PAVException@CORBA@@@Z
?_downcast@InvalidPolicy@POA@PortableServer@@SAPBV123@PBVException@CORBA@@@Z
?_downcast@MARSHAL@CORBA@@SAPAV12@PAVException@2@@Z
?_downcast@MARSHAL@CORBA@@SAPBV12@PBVException@2@@Z
?_downcast@NO_IMPLEMENT@CORBA@@SAPAV12@PAVException@2@@Z
?_downcast@NO_IMPLEMENT@CORBA@@SAPBV12@PBVException@2@@Z
?_downcast@NO_MEMORY@CORBA@@SAPAV12@PAVException@2@@Z
?_downcast@NO_MEMORY@CORBA@@SAPBV12@PBVException@2@@Z
?_downcast@NO_PERMISSION@CORBA@@SAPAV12@PAVException@2@@Z
?_downcast@NO_PERMISSION@CORBA@@SAPBV12@PBVException@2@@Z
?_downcast@NO_RESOURCES@CORBA@@SAPAV12@PAVException@2@@Z
?_downcast@NO_RESOURCES@CORBA@@SAPBV12@PBVException@2@@Z
?_downcast@NO_RESPONSE@CORBA@@SAPAV12@PAVException@2@@Z
?_downcast@NO_RESPONSE@CORBA@@SAPBV12@PBVException@2@@Z
?_downcast@NoContext@Current@PortableServer@@SAPAV123@PAVException@CORBA@@@Z
?_downcast@NoContext@Current@PortableServer@@SAPBV123@PBVException@CORBA@@@Z
?_downcast@NoServant@POA@PortableServer@@SAPAV123@PAVException@CORBA@@@Z
?_downcast@NoServant@POA@PortableServer@@SAPBV123@PBVException@CORBA@@@Z
?_downcast@NotEmpty@NamingContext@CosNaming@@SAPAV123@PAVException@CORBA@@@Z
?_downcast@NotEmpty@NamingContext@CosNaming@@SAPBV123@PBVException@CORBA@@@Z
?_downcast@NotFound@NamingContext@CosNaming@@SAPAV123@PAVException@CORBA@@@Z
?_downcast@NotFound@NamingContext@CosNaming@@SAPBV123@PBVException@CORBA@@@Z
?_downcast@OBJECT_NOT_EXIST@CORBA@@SAPAV12@PAVException@2@@Z
?_downcast@OBJECT_NOT_EXIST@CORBA@@SAPBV12@PBVException@2@@Z
?_downcast@OBJ_ADAPTER@CORBA@@SAPAV12@PAVException@2@@Z
?_downcast@OBJ_ADAPTER@CORBA@@SAPBV12@PBVException@2@@Z
?_downcast@ObjectAlreadyActive@POA@PortableServer@@SAPAV123@PAVException@CORBA@@@Z
?_downcast@ObjectAlreadyActive@POA@PortableServer@@SAPBV123@PBVException@CORBA@@@Z
?_downcast@ObjectNotActive@POA@PortableServer@@SAPAV123@PAVException@CORBA@@@Z
?_downcast@ObjectNotActive@POA@PortableServer@@SAPBV123@PBVException@CORBA@@@Z
?_downcast@PERSIST_STORE@CORBA@@SAPAV12@PAVException@2@@Z
?_downcast@PERSIST_STORE@CORBA@@SAPBV12@PBVException@2@@Z
?_downcast@PolicyError@CORBA@@SAPAV12@PAVException@2@@Z
?_downcast@PolicyError@CORBA@@SAPBV12@PBVException@2@@Z
?_downcast@REBIND@CORBA@@SAPAV12@PAVException@2@@Z
?_downcast@REBIND@CORBA@@SAPBV12@PBVException@2@@Z
?_downcast@ServantAlreadyActive@POA@PortableServer@@SAPAV123@PAVException@CORBA@@@Z
?_downcast@ServantAlreadyActive@POA@PortableServer@@SAPBV123@PBVException@CORBA@@@Z
?_downcast@ServantBase@PortableServer@@$0PPPPPPPM@A@AEPAXXZ
?_downcast@ServantBase@PortableServer@@$R07BA@PPPPPPPM@BA@AEPAXXZ
?_downcast@ServantBase@PortableServer@@$R07M@PPPPPPPM@BA@AEPAXXZ
?_downcast@ServantBase@PortableServer@@EAEPAXXZ
?_downcast@ServantNotActive@POA@PortableServer@@SAPAV123@PAVException@CORBA@@@Z
?_downcast@ServantNotActive@POA@PortableServer@@SAPBV123@PBVException@CORBA@@@Z
?_downcast@SystemException@CORBA@@SAPAV12@PAVException@2@@Z
?_downcast@SystemException@CORBA@@SAPBV12@PBVException@2@@Z
?_downcast@TIMEOUT@CORBA@@SAPAV12@PAVException@2@@Z
?_downcast@TIMEOUT@CORBA@@SAPBV12@PBVException@2@@Z
?_downcast@TRANSACTION_MODE@CORBA@@SAPAV12@PAVException@2@@Z
?_downcast@TRANSACTION_MODE@CORBA@@SAPBV12@PBVException@2@@Z
?_downcast@TRANSACTION_REQUIRED@CORBA@@SAPAV12@PAVException@2@@Z
?_downcast@TRANSACTION_REQUIRED@CORBA@@SAPBV12@PBVException@2@@Z
?_downcast@TRANSACTION_ROLLEDBACK@CORBA@@SAPAV12@PAVException@2@@Z
?_downcast@TRANSACTION_ROLLEDBACK@CORBA@@SAPBV12@PBVException@2@@Z
?_downcast@TRANSACTION_UNAVAILABLE@CORBA@@SAPAV12@PAVException@2@@Z
?_downcast@TRANSACTION_UNAVAILABLE@CORBA@@SAPBV12@PBVException@2@@Z
?_downcast@TRANSIENT@CORBA@@SAPAV12@PAVException@2@@Z
?_downcast@TRANSIENT@CORBA@@SAPBV12@PBVException@2@@Z
?_downcast@UNKNOWN@CORBA@@SAPAV12@PAVException@2@@Z
?_downcast@UNKNOWN@CORBA@@SAPBV12@PBVException@2@@Z
?_downcast@UserException@CORBA@@SAPAV12@PAVException@2@@Z
?_downcast@UserException@CORBA@@SAPBV12@PBVException@2@@Z
?_downcast@WrongAdapter@POA@PortableServer@@SAPAV123@PAVException@CORBA@@@Z
?_downcast@WrongAdapter@POA@PortableServer@@SAPBV123@PBVException@CORBA@@@Z
?_downcast@WrongPolicy@POA@PortableServer@@SAPAV123@PAVException@CORBA@@@Z
?_downcast@WrongPolicy@POA@PortableServer@@SAPBV123@PBVException@CORBA@@@Z
?_downcast@omniOrbPOA@omni@@SAPAV12@PAVomniObjAdapter@2@@Z
?_downcast@omniServant@@UAEPAXXZ
?_duplicate@AdapterActivator@PortableServer@@SAPAV12@PAV12@@Z
?_duplicate@BOA@CORBA@@SAPAV12@PAV12@@Z
?_duplicate@BidirectionalPolicy@BiDirPolicy@@SAPAV12@PAV12@@Z
?_duplicate@BindingIterator@CosNaming@@SAPAV_objref_BindingIterator@2@PAV32@@Z
?_duplicate@CORBA_InitialReferences@@SAPAV_objref_CORBA_InitialReferences@@PAV2@@Z
?_duplicate@Current@CORBA@@SAPAV12@PAV12@@Z
?_duplicate@Current@PortableServer@@SAPAV12@PAV12@@Z
?_duplicate@EndPointPublishPolicy@omniPolicy@@SAPAV12@PAV12@@Z
?_duplicate@Exception@CORBA@@SAPAV12@PBV12@@Z
?_duplicate@IdAssignmentPolicy@PortableServer@@SAPAV12@PAV12@@Z
?_duplicate@IdUniquenessPolicy@PortableServer@@SAPAV12@PAV12@@Z
?_duplicate@ImplicitActivationPolicy@PortableServer@@SAPAV12@PAV12@@Z
?_duplicate@LifespanPolicy@PortableServer@@SAPAV12@PAV12@@Z
?_duplicate@LocalObject@CORBA@@SAPAV12@PAV12@@Z
?_duplicate@LocalShortcutPolicy@omniPolicy@@SAPAV12@PAV12@@Z
?_duplicate@NamingContext@CosNaming@@SAPAV_objref_NamingContext@2@PAV32@@Z
?_duplicate@NamingContextExt@CosNaming@@SAPAV_objref_NamingContextExt@2@PAV32@@Z
?_duplicate@ORB@CORBA@@SAPAV12@PAV12@@Z
?_duplicate@Object@CORBA@@SAPAV12@PAV12@@Z
?_duplicate@POA@PortableServer@@SAPAV12@PAV12@@Z
?_duplicate@POAManager@PortableServer@@SAPAV12@PAV12@@Z
?_duplicate@Policy@CORBA@@SAPAV12@PAV12@@Z
?_duplicate@RequestProcessingPolicy@PortableServer@@SAPAV12@PAV12@@Z
?_duplicate@ServantActivator@PortableServer@@SAPAV12@PAV12@@Z
?_duplicate@ServantLocator@PortableServer@@SAPAV12@PAV12@@Z
?_duplicate@ServantManager@PortableServer@@SAPAV12@PAV12@@Z
?_duplicate@ServantRetentionPolicy@PortableServer@@SAPAV12@PAV12@@Z
?_duplicate@ThreadPolicy@PortableServer@@SAPAV12@PAV12@@Z
?_enableShortcut@_objref_ServantActivator@PortableServer@@$2PPPPPPPM@A@AEXPAVomniServant@@PB_N@Z
?_enableShortcut@_objref_ServantActivator@PortableServer@@MAEXPAVomniServant@@PB_N@Z
?_enableShortcut@_objref_ServantLocator@PortableServer@@$2PPPPPPPM@A@AEXPAVomniServant@@PB_N@Z
?_enableShortcut@_objref_ServantLocator@PortableServer@@MAEXPAVomniServant@@PB_N@Z
?_enableShortcut@omniObjRef@@UAEXPAVomniServant@@PB_N@Z
?_fromString@omniObjRef@@SAPAV1@PBD@Z
?_getIOR@omniObjRef@@QAEPAVomniIOR@@XZ
?_get_interface@ServantBase@PortableServer@@UAEPAV_objref_InterfaceDef@CORBA@@XZ
?_hash@Object@CORBA@@QAEKK@Z
?_identity@omniObjRef@@QAEPAVomniIdentity@@XZ
?_invoke@omniObjRef@@QAEXAAVomniCallDescriptor@@_N@Z
?_invoke_async@omniObjRef@@QAEXPAVomniAsyncCallDescriptor@@@Z
?_is_a@Object@CORBA@@QAE_NPBD@Z
?_is_a@omniServant@@UAE_NPBD@Z
?_is_equivalent@Object@CORBA@@QAE_NPAV12@@Z
?_is_nil@omniObjRef@@QAE_NXZ
?_localServantTarget@omniObjRef@@UAEPBDXZ
?_locateRequest@omniObjRef@@IAEXXZ
?_marshal@omniObjRef@@SAXPAV1@AAVcdrStream@@@Z
?_marshalObjRef@AdapterActivator@PortableServer@@SAXPAV12@AAVcdrStream@@@Z
?_marshalObjRef@BindingIterator@CosNaming@@SAXPAV_objref_BindingIterator@2@AAVcdrStream@@@Z
?_marshalObjRef@CORBA_InitialReferences@@SAXPAV_objref_CORBA_InitialReferences@@AAVcdrStream@@@Z
?_marshalObjRef@LocalObject@CORBA@@SAXPAV12@AAVcdrStream@@@Z
?_marshalObjRef@NamingContext@CosNaming@@SAXPAV_objref_NamingContext@2@AAVcdrStream@@@Z
?_marshalObjRef@NamingContextExt@CosNaming@@SAXPAV_objref_NamingContextExt@2@AAVcdrStream@@@Z
?_marshalObjRef@Object@CORBA@@SAXPAV12@AAVcdrStream@@@Z
?_marshalObjRef@ServantActivator@PortableServer@@SAXPAV12@AAVcdrStream@@@Z
?_marshalObjRef@ServantLocator@PortableServer@@SAXPAV12@AAVcdrStream@@@Z
?_marshalObjRef@ServantManager@PortableServer@@SAXPAV12@AAVcdrStream@@@Z
?_mostDerivedRepoId@_impl_AdapterActivator@PortableServer@@$0PPPPPPPM@A@AEPBDXZ
?_mostDerivedRepoId@_impl_AdapterActivator@PortableServer@@$R077PPPPPPPM@M@AEPBDXZ
?_mostDerivedRepoId@_impl_AdapterActivator@PortableServer@@EAEPBDXZ
?_mostDerivedRepoId@_impl_BindingIterator@CosNaming@@$0PPPPPPPM@A@AEPBDXZ
?_mostDerivedRepoId@_impl_BindingIterator@CosNaming@@$R077PPPPPPPM@M@AEPBDXZ
?_mostDerivedRepoId@_impl_BindingIterator@CosNaming@@EAEPBDXZ
?_mostDerivedRepoId@_impl_CORBA_InitialReferences@@$0PPPPPPPM@A@AEPBDXZ
?_mostDerivedRepoId@_impl_CORBA_InitialReferences@@$R077PPPPPPPM@M@AEPBDXZ
?_mostDerivedRepoId@_impl_CORBA_InitialReferences@@EAEPBDXZ
?_mostDerivedRepoId@_impl_NamingContext@CosNaming@@$0PPPPPPPM@A@AEPBDXZ
?_mostDerivedRepoId@_impl_NamingContext@CosNaming@@$R077PPPPPPPM@M@AEPBDXZ
?_mostDerivedRepoId@_impl_NamingContext@CosNaming@@EAEPBDXZ
?_mostDerivedRepoId@_impl_NamingContextExt@CosNaming@@$0PPPPPPPM@A@AEPBDXZ
?_mostDerivedRepoId@_impl_NamingContextExt@CosNaming@@$R07M@PPPPPPPM@M@AEPBDXZ
?_mostDerivedRepoId@_impl_NamingContextExt@CosNaming@@EAEPBDXZ
?_mostDerivedRepoId@_impl_ServantActivator@PortableServer@@$0PPPPPPPM@A@AEPBDXZ
?_mostDerivedRepoId@_impl_ServantActivator@PortableServer@@$R07M@PPPPPPPM@M@AEPBDXZ
?_mostDerivedRepoId@_impl_ServantActivator@PortableServer@@EAEPBDXZ
?_mostDerivedRepoId@_impl_ServantLocator@PortableServer@@$0PPPPPPPM@A@AEPBDXZ
?_mostDerivedRepoId@_impl_ServantLocator@PortableServer@@$R07M@PPPPPPPM@M@AEPBDXZ
?_mostDerivedRepoId@_impl_ServantLocator@PortableServer@@EAEPBDXZ
?_mostDerivedRepoId@_impl_ServantManager@PortableServer@@$0PPPPPPPM@A@AEPBDXZ
?_mostDerivedRepoId@_impl_ServantManager@PortableServer@@$R077PPPPPPPM@7AEPBDXZ
?_mostDerivedRepoId@_impl_ServantManager@PortableServer@@EAEPBDXZ
?_mostDerivedRepoId@omniObjRef@@QBEPBDXZ
?_mostDerivedRepoId@omniServant@@UAEPBDXZ
?_name@Exception@CORBA@@UBEPBDXZ
?_narrow@AdapterActivator@PortableServer@@SAPAV12@PAVObject@CORBA@@@Z
?_narrow@BOA@CORBA@@SAPAV12@PAVObject@2@@Z
?_narrow@BidirectionalPolicy@BiDirPolicy@@SAPAV12@PAVObject@CORBA@@@Z
?_narrow@BindingIterator@CosNaming@@SAPAV_objref_BindingIterator@2@PAVObject@CORBA@@@Z
?_narrow@CORBA_InitialReferences@@SAPAV_objref_CORBA_InitialReferences@@PAVObject@CORBA@@@Z
?_narrow@Current@CORBA@@SAPAV12@PAVObject@2@@Z
?_narrow@Current@PortableServer@@SAPAV12@PAVObject@CORBA@@@Z
?_narrow@EndPointPublishPolicy@omniPolicy@@SAPAV12@PAVObject@CORBA@@@Z
?_narrow@IdAssignmentPolicy@PortableServer@@SAPAV12@PAVObject@CORBA@@@Z
?_narrow@IdUniquenessPolicy@PortableServer@@SAPAV12@PAVObject@CORBA@@@Z
?_narrow@ImplicitActivationPolicy@PortableServer@@SAPAV12@PAVObject@CORBA@@@Z
?_narrow@LifespanPolicy@PortableServer@@SAPAV12@PAVObject@CORBA@@@Z
?_narrow@LocalObject@CORBA@@SAPAV12@PAVObject@2@@Z
?_narrow@LocalShortcutPolicy@omniPolicy@@SAPAV12@PAVObject@CORBA@@@Z
?_narrow@NamingContext@CosNaming@@SAPAV_objref_NamingContext@2@PAVObject@CORBA@@@Z
?_narrow@NamingContextExt@CosNaming@@SAPAV_objref_NamingContextExt@2@PAVObject@CORBA@@@Z
?_narrow@ORB@CORBA@@SAPAV12@PAVObject@2@@Z
?_narrow@POA@PortableServer@@SAPAV12@PAVObject@CORBA@@@Z
?_narrow@POAManager@PortableServer@@SAPAV12@PAVObject@CORBA@@@Z
?_narrow@Policy@CORBA@@SAPAV12@PAVObject@2@@Z
?_narrow@RequestProcessingPolicy@PortableServer@@SAPAV12@PAVObject@CORBA@@@Z
?_narrow@ServantActivator@PortableServer@@SAPAV12@PAVObject@CORBA@@@Z
?_narrow@ServantLocator@PortableServer@@SAPAV12@PAVObject@CORBA@@@Z
?_narrow@ServantManager@PortableServer@@SAPAV12@PAVObject@CORBA@@@Z
?_narrow@ServantRetentionPolicy@PortableServer@@SAPAV12@PAVObject@CORBA@@@Z
?_narrow@ThreadPolicy@PortableServer@@SAPAV12@PAVObject@CORBA@@@Z
?_nil@AdapterActivator@PortableServer@@SAPAV12@XZ
?_nil@AdapterActivator_Helper@PortableServer@@SAPAVAdapterActivator@2@XZ
?_nil@BOA@CORBA@@SAPAV12@XZ
?_nil@BidirectionalPolicy@BiDirPolicy@@SAPAV12@XZ
?_nil@BindingIterator@CosNaming@@SAPAV_objref_BindingIterator@2@XZ
?_nil@BindingIterator_Helper@CosNaming@@SAPAV_objref_BindingIterator@2@XZ
?_nil@CORBA_InitialReferences@@SAPAV_objref_CORBA_InitialReferences@@XZ
?_nil@CORBA_InitialReferences_Helper@@SAPAV_objref_CORBA_InitialReferences@@XZ
?_nil@Current@CORBA@@SAPAV12@XZ
?_nil@Current@PortableServer@@SAPAV12@XZ
?_nil@EndPointPublishPolicy@omniPolicy@@SAPAV12@XZ
?_nil@IdAssignmentPolicy@PortableServer@@SAPAV12@XZ
?_nil@IdUniquenessPolicy@PortableServer@@SAPAV12@XZ
?_nil@ImplicitActivationPolicy@PortableServer@@SAPAV12@XZ
?_nil@LifespanPolicy@PortableServer@@SAPAV12@XZ
?_nil@LocalObject@CORBA@@SAPAV12@XZ
?_nil@LocalObject_Helper@CORBA@@SAPAVLocalObject@2@XZ
?_nil@LocalShortcutPolicy@omniPolicy@@SAPAV12@XZ
?_nil@NamingContext@CosNaming@@SAPAV_objref_NamingContext@2@XZ
?_nil@NamingContextExt@CosNaming@@SAPAV_objref_NamingContextExt@2@XZ
?_nil@NamingContextExt_Helper@CosNaming@@SAPAV_objref_NamingContextExt@2@XZ
?_nil@NamingContext_Helper@CosNaming@@SAPAV_objref_NamingContext@2@XZ
?_nil@ORB@CORBA@@SAPAV12@XZ
?_nil@Object@CORBA@@SAPAV12@XZ
?_nil@Object_Helper@CORBA@@SAPAVObject@2@XZ
?_nil@POA@PortableServer@@SAPAV12@XZ
?_nil@POAManager@PortableServer@@SAPAV12@XZ
?_nil@POA_Helper@PortableServer@@SAPAVPOA@2@XZ
?_nil@Policy@CORBA@@SAPAV12@XZ
?_nil@RequestProcessingPolicy@PortableServer@@SAPAV12@XZ
?_nil@ServantActivator@PortableServer@@SAPAV12@XZ
?_nil@ServantActivator_Helper@PortableServer@@SAPAVServantActivator@2@XZ
?_nil@ServantLocator@PortableServer@@SAPAV12@XZ
?_nil@ServantLocator_Helper@PortableServer@@SAPAVServantLocator@2@XZ
?_nil@ServantManager@PortableServer@@SAPAV12@XZ
?_nil@ServantManager_Helper@PortableServer@@SAPAVServantManager@2@XZ
?_nil@ServantRetentionPolicy@PortableServer@@SAPAV12@XZ
?_nil@ThreadPolicy@PortableServer@@SAPAV12@XZ
?_noExistentCheck@omniObjRef@@QAEXXZ
?_non_existent@LocalObject@CORBA@@$4PPPPPPPM@A@AE_NXZ
?_non_existent@LocalObject@CORBA@@$R477PPPPPPPM@M@AE_NXZ
?_non_existent@LocalObject@CORBA@@$R4BA@7PPPPPPPM@M@AE_NXZ
?_non_existent@LocalObject@CORBA@@UAE_NXZ
?_non_existent@Object@CORBA@@UAE_NXZ
?_non_existent@omniOrbBOA@omni@@UAE_NXZ
?_non_existent@omniOrbORB@@UAE_NXZ
?_non_existent@omniOrbPOA@omni@@UAE_NXZ
?_non_existent@omniServant@@UAE_NXZ
?_obj_is_ready@omniOrbBoaServant@@QAEXXZ
?_omni_CS_8859_1_should_be_linked_but_is_not_@@3HA
?_omni_CS_UTF_16_should_be_linked_but_is_not_@@3HA
?_omni_CS_UTF_8_should_be_linked_but_is_not_@@3HA
?_omni_callCommFailureExceptionHandler@@YA_NPAVomniObjRef@@KABVCOMM_FAILURE@CORBA@@PBD@Z
?_omni_callSystemExceptionHandler@@YA_NPAVomniObjRef@@KABVSystemException@CORBA@@PBD@Z
?_omni_callTimeoutExceptionHandler@@YA_NPAVomniObjRef@@KABVTIMEOUT@CORBA@@PBD@Z
?_omni_callTransientExceptionHandler@@YA_NPAVomniObjRef@@KABVTRANSIENT@CORBA@@PBD@Z
?_omni_set_NameService@@YAXPAVObject@CORBA@@@Z
?_omni_tcpActive_should_be_linked_but_is_not_@@3HA
?_omni_tcpAddress_should_be_linked_but_is_not_@@3HA
?_omni_tcpConnection_should_be_linked_but_is_not_@@3HA
?_omni_tcpEndpoint_should_be_linked_but_is_not_@@3HA
?_omni_tcpTransportImpl_should_be_linked_but_is_not_@@3HA
?_ptrToClass@omniObjAdapter@omni@@UAEPAXPAH@Z
?_ptrToClass@omniOrbBOA@omni@@UAEPAXPAH@Z
?_ptrToClass@omniOrbPOA@omni@@UAEPAXPAH@Z
?_ptrToInterface@_impl_AdapterActivator@PortableServer@@$0PPPPPPPM@A@AEPAXPBD@Z
?_ptrToInterface@_impl_AdapterActivator@PortableServer@@$R077PPPPPPPM@M@AEPAXPBD@Z
?_ptrToInterface@_impl_AdapterActivator@PortableServer@@EAEPAXPBD@Z
?_ptrToInterface@_impl_BindingIterator@CosNaming@@$0PPPPPPPM@A@AEPAXPBD@Z
?_ptrToInterface@_impl_BindingIterator@CosNaming@@$R077PPPPPPPM@M@AEPAXPBD@Z
?_ptrToInterface@_impl_BindingIterator@CosNaming@@EAEPAXPBD@Z
?_ptrToInterface@_impl_CORBA_InitialReferences@@$0PPPPPPPM@A@AEPAXPBD@Z
?_ptrToInterface@_impl_CORBA_InitialReferences@@$R077PPPPPPPM@M@AEPAXPBD@Z
?_ptrToInterface@_impl_CORBA_InitialReferences@@EAEPAXPBD@Z
?_ptrToInterface@_impl_NamingContext@CosNaming@@$0PPPPPPPM@A@AEPAXPBD@Z
?_ptrToInterface@_impl_NamingContext@CosNaming@@$R077PPPPPPPM@M@AEPAXPBD@Z
?_ptrToInterface@_impl_NamingContext@CosNaming@@EAEPAXPBD@Z
?_ptrToInterface@_impl_NamingContextExt@CosNaming@@$0PPPPPPPM@A@AEPAXPBD@Z
?_ptrToInterface@_impl_NamingContextExt@CosNaming@@$R07M@PPPPPPPM@M@AEPAXPBD@Z
?_ptrToInterface@_impl_NamingContextExt@CosNaming@@EAEPAXPBD@Z
?_ptrToInterface@_impl_ServantActivator@PortableServer@@$0PPPPPPPM@A@AEPAXPBD@Z
?_ptrToInterface@_impl_ServantActivator@PortableServer@@$R07M@PPPPPPPM@M@AEPAXPBD@Z
?_ptrToInterface@_impl_ServantActivator@PortableServer@@EAEPAXPBD@Z
?_ptrToInterface@_impl_ServantLocator@PortableServer@@$0PPPPPPPM@A@AEPAXPBD@Z
?_ptrToInterface@_impl_ServantLocator@PortableServer@@$R07M@PPPPPPPM@M@AEPAXPBD@Z
?_ptrToInterface@_impl_ServantLocator@PortableServer@@EAEPAXPBD@Z
?_ptrToInterface@_impl_ServantManager@PortableServer@@$0PPPPPPPM@A@AEPAXPBD@Z
?_ptrToInterface@_impl_ServantManager@PortableServer@@$R077PPPPPPPM@7AEPAXPBD@Z
?_ptrToInterface@_impl_ServantManager@PortableServer@@EAEPAXPBD@Z
?_ptrToInterface@omniServant@@UAEPAXPBD@Z
?_ptrToObjRef@AdapterActivator@PortableServer@@$0PPPPPPPM@A@AEPAXPBD@Z
?_ptrToObjRef@AdapterActivator@PortableServer@@EAEPAXPBD@Z
?_ptrToObjRef@BidirectionalPolicy@BiDirPolicy@@$4PPPPPPPM@A@AEPAXPBD@Z
?_ptrToObjRef@BidirectionalPolicy@BiDirPolicy@@UAEPAXPBD@Z
?_ptrToObjRef@EndPointPublishPolicy@omniPolicy@@$4PPPPPPPM@A@AEPAXPBD@Z
?_ptrToObjRef@EndPointPublishPolicy@omniPolicy@@UAEPAXPBD@Z
?_ptrToObjRef@IdAssignmentPolicy@PortableServer@@$4PPPPPPPM@A@AEPAXPBD@Z
?_ptrToObjRef@IdAssignmentPolicy@PortableServer@@UAEPAXPBD@Z
?_ptrToObjRef@IdUniquenessPolicy@PortableServer@@$4PPPPPPPM@A@AEPAXPBD@Z
?_ptrToObjRef@IdUniquenessPolicy@PortableServer@@UAEPAXPBD@Z
?_ptrToObjRef@ImplicitActivationPolicy@PortableServer@@$4PPPPPPPM@A@AEPAXPBD@Z
?_ptrToObjRef@ImplicitActivationPolicy@PortableServer@@UAEPAXPBD@Z
?_ptrToObjRef@LifespanPolicy@PortableServer@@$4PPPPPPPM@A@AEPAXPBD@Z
?_ptrToObjRef@LifespanPolicy@PortableServer@@UAEPAXPBD@Z
?_ptrToObjRef@LocalObject@CORBA@@$4PPPPPPPM@A@AEPAXPBD@Z
?_ptrToObjRef@LocalObject@CORBA@@UAEPAXPBD@Z
?_ptrToObjRef@LocalShortcutPolicy@omniPolicy@@$4PPPPPPPM@A@AEPAXPBD@Z
?_ptrToObjRef@LocalShortcutPolicy@omniPolicy@@UAEPAXPBD@Z
?_ptrToObjRef@Object@CORBA@@UAEPAXPBD@Z
?_ptrToObjRef@Policy@CORBA@@$4PPPPPPPM@A@AEPAXPBD@Z
?_ptrToObjRef@Policy@CORBA@@UAEPAXPBD@Z
?_ptrToObjRef@RequestProcessingPolicy@PortableServer@@$4PPPPPPPM@A@AEPAXPBD@Z
?_ptrToObjRef@RequestProcessingPolicy@PortableServer@@UAEPAXPBD@Z
?_ptrToObjRef@ServantActivator@PortableServer@@$0PPPPPPPM@A@AEPAXPBD@Z
?_ptrToObjRef@ServantActivator@PortableServer@@EAEPAXPBD@Z
?_ptrToObjRef@ServantLocator@PortableServer@@$0PPPPPPPM@A@AEPAXPBD@Z
?_ptrToObjRef@ServantLocator@PortableServer@@EAEPAXPBD@Z
?_ptrToObjRef@ServantManager@PortableServer@@$0PPPPPPPM@A@AEPAXPBD@Z
?_ptrToObjRef@ServantManager@PortableServer@@EAEPAXPBD@Z
?_ptrToObjRef@ServantRetentionPolicy@PortableServer@@$4PPPPPPPM@A@AEPAXPBD@Z
?_ptrToObjRef@ServantRetentionPolicy@PortableServer@@UAEPAXPBD@Z
?_ptrToObjRef@ThreadPolicy@PortableServer@@$4PPPPPPPM@A@AEPAXPBD@Z
?_ptrToObjRef@ThreadPolicy@PortableServer@@UAEPAXPBD@Z
?_ptrToObjRef@_objref_AdapterActivator@PortableServer@@$0PPPPPPPM@A@AEPAXPBD@Z
?_ptrToObjRef@_objref_AdapterActivator@PortableServer@@$0PPPPPPPM@CE@AEPAXPBD@Z
?_ptrToObjRef@_objref_AdapterActivator@PortableServer@@EAEPAXPBD@Z
?_ptrToObjRef@_objref_BindingIterator@CosNaming@@$0PPPPPPPM@A@AEPAXPBD@Z
?_ptrToObjRef@_objref_BindingIterator@CosNaming@@$0PPPPPPPM@BA@AEPAXPBD@Z
?_ptrToObjRef@_objref_BindingIterator@CosNaming@@EAEPAXPBD@Z
?_ptrToObjRef@_objref_CORBA_InitialReferences@@$0PPPPPPPM@A@AEPAXPBD@Z
?_ptrToObjRef@_objref_CORBA_InitialReferences@@$0PPPPPPPM@BA@AEPAXPBD@Z
?_ptrToObjRef@_objref_CORBA_InitialReferences@@EAEPAXPBD@Z
?_ptrToObjRef@_objref_NamingContext@CosNaming@@$0PPPPPPPM@A@AEPAXPBD@Z
?_ptrToObjRef@_objref_NamingContext@CosNaming@@$0PPPPPPPM@BA@AEPAXPBD@Z
?_ptrToObjRef@_objref_NamingContext@CosNaming@@EAEPAXPBD@Z
?_ptrToObjRef@_objref_NamingContextExt@CosNaming@@$0PPPPPPPM@A@AEPAXPBD@Z
?_ptrToObjRef@_objref_NamingContextExt@CosNaming@@$0PPPPPPPM@BA@AEPAXPBD@Z
?_ptrToObjRef@_objref_NamingContextExt@CosNaming@@EAEPAXPBD@Z
?_ptrToObjRef@_objref_ServantActivator@PortableServer@@$0PPPPPPPM@A@AEPAXPBD@Z
?_ptrToObjRef@_objref_ServantActivator@PortableServer@@$0PPPPPPPM@CI@AEPAXPBD@Z
?_ptrToObjRef@_objref_ServantActivator@PortableServer@@EAEPAXPBD@Z
?_ptrToObjRef@_objref_ServantLocator@PortableServer@@$0PPPPPPPM@A@AEPAXPBD@Z
?_ptrToObjRef@_objref_ServantLocator@PortableServer@@$0PPPPPPPM@CI@AEPAXPBD@Z
?_ptrToObjRef@_objref_ServantLocator@PortableServer@@EAEPAXPBD@Z
?_ptrToObjRef@_objref_ServantManager@PortableServer@@$0PPPPPPPM@A@AEPAXPBD@Z
?_ptrToObjRef@_objref_ServantManager@PortableServer@@$0PPPPPPPM@BM@AEPAXPBD@Z
?_ptrToObjRef@_objref_ServantManager@PortableServer@@EAEPAXPBD@Z
?_ptrToObjRef@omniAnonObjRef@omni@@$2PPPPPPPM@A@AEPAXPBD@Z
?_ptrToObjRef@omniAnonObjRef@omni@@$2PPPPPPPM@DA@AEPAXPBD@Z
?_ptrToObjRef@omniAnonObjRef@omni@@MAEPAXPBD@Z
?_ptrToObjRef@omniOrbBOA@omni@@UAEPAXPBD@Z
?_ptrToObjRef@omniOrbORB@@UAEPAXPBD@Z
?_ptrToObjRef@omniOrbPOA@omni@@UAEPAXPBD@Z
?_ptrToObjRef@omniOrbPOACurrent@omni@@UAEPAXPBD@Z
?_ptrToObjRef@omniOrbPOAManager@omni@@UAEPAXPBD@Z
?_raise@AdapterAlreadyExists@POA@PortableServer@@UBEXXZ
?_raise@AdapterInactive@POA@PortableServer@@UBEXXZ
?_raise@AdapterInactive@POAManager@PortableServer@@UBEXXZ
?_raise@AdapterNonExistent@POA@PortableServer@@UBEXXZ
?_raise@AlreadyBound@NamingContext@CosNaming@@UBEXXZ
?_raise@BAD_CONTEXT@CORBA@@UBEXXZ
?_raise@BAD_INV_ORDER@CORBA@@UBEXXZ
?_raise@BAD_OPERATION@CORBA@@UBEXXZ
?_raise@BAD_PARAM@CORBA@@UBEXXZ
?_raise@BAD_QOS@CORBA@@UBEXXZ
?_raise@BAD_TYPECODE@CORBA@@UBEXXZ
?_raise@CODESET_INCOMPATIBLE@CORBA@@UBEXXZ
?_raise@COMM_FAILURE@CORBA@@UBEXXZ
?_raise@CannotProceed@NamingContext@CosNaming@@UBEXXZ
?_raise@CommFailure@giopStream@omni@@SAXKW4CompletionStatus@CORBA@@_NPBDK2PAVgiopStrand@3@@Z
?_raise@DATA_CONVERSION@CORBA@@UBEXXZ
?_raise@FREE_MEM@CORBA@@UBEXXZ
?_raise@ForwardRequest@PortableServer@@UBEXXZ
?_raise@IMP_LIMIT@CORBA@@UBEXXZ
?_raise@INITIALIZE@CORBA@@UBEXXZ
?_raise@INTERNAL@CORBA@@UBEXXZ
?_raise@INTF_REPOS@CORBA@@UBEXXZ
?_raise@INVALID_TRANSACTION@CORBA@@UBEXXZ
?_raise@INV_FLAG@CORBA@@UBEXXZ
?_raise@INV_IDENT@CORBA@@UBEXXZ
?_raise@INV_OBJREF@CORBA@@UBEXXZ
?_raise@INV_POLICY@CORBA@@UBEXXZ
?_raise@InvalidAddress@NamingContextExt@CosNaming@@UBEXXZ
?_raise@InvalidName@NamingContext@CosNaming@@UBEXXZ
?_raise@InvalidName@ORB@CORBA@@UBEXXZ
?_raise@InvalidPolicy@POA@PortableServer@@UBEXXZ
?_raise@MARSHAL@CORBA@@UBEXXZ
?_raise@NO_IMPLEMENT@CORBA@@UBEXXZ
?_raise@NO_MEMORY@CORBA@@UBEXXZ
?_raise@NO_PERMISSION@CORBA@@UBEXXZ
?_raise@NO_RESOURCES@CORBA@@UBEXXZ
?_raise@NO_RESPONSE@CORBA@@UBEXXZ
?_raise@NoContext@Current@PortableServer@@UBEXXZ
?_raise@NoServant@POA@PortableServer@@UBEXXZ
?_raise@NotEmpty@NamingContext@CosNaming@@UBEXXZ
?_raise@NotFound@NamingContext@CosNaming@@UBEXXZ
?_raise@OBJECT_NOT_EXIST@CORBA@@UBEXXZ
?_raise@OBJ_ADAPTER@CORBA@@UBEXXZ
?_raise@ObjectAlreadyActive@POA@PortableServer@@UBEXXZ
?_raise@ObjectNotActive@POA@PortableServer@@UBEXXZ
?_raise@PERSIST_STORE@CORBA@@UBEXXZ
?_raise@PolicyError@CORBA@@UBEXXZ
?_raise@REBIND@CORBA@@UBEXXZ
?_raise@ServantAlreadyActive@POA@PortableServer@@UBEXXZ
?_raise@ServantNotActive@POA@PortableServer@@UBEXXZ
?_raise@TIMEOUT@CORBA@@UBEXXZ
?_raise@TRANSACTION_MODE@CORBA@@UBEXXZ
?_raise@TRANSACTION_REQUIRED@CORBA@@UBEXXZ
?_raise@TRANSACTION_ROLLEDBACK@CORBA@@UBEXXZ
?_raise@TRANSACTION_UNAVAILABLE@CORBA@@UBEXXZ
?_raise@TRANSIENT@CORBA@@UBEXXZ
?_raise@UNKNOWN@CORBA@@UBEXXZ
?_raise@WrongAdapter@POA@PortableServer@@UBEXXZ
?_raise@WrongPolicy@POA@PortableServer@@UBEXXZ
?_realNarrow@omniObjRef@@QAEPAXPBD@Z
?_real_is_a@omniObjRef@@QAE_NPBD@Z
?_refcount_value@ServantBase@PortableServer@@UAEKXZ
?_remote_is_a@omniObjRef@@QAE_NPBD@Z
?_remote_non_existent@omniObjRef@@QAE_NXZ
?_removeActivation@omniServant@@QAEXPAVomniObjTableEntry@@@Z
?_remove_ref@LocalObject@CORBA@@UAEXXZ
?_remove_ref@ServantBase@PortableServer@@$4PPPPPPPM@A@AEXXZ
?_remove_ref@ServantBase@PortableServer@@$R47BA@PPPPPPPM@BA@AEXXZ
?_remove_ref@ServantBase@PortableServer@@$R47M@PPPPPPPM@BA@AEXXZ
?_remove_ref@ServantBase@PortableServer@@UAEXXZ
?_remove_ref@omniServant@@UAEXXZ
?_rep_id@Exception@CORBA@@UBEPBDXZ
?_retn@?$_CORBA_ConstrType_Variable_Var@UBinding@CosNaming@@@@QAEPAUBinding@CosNaming@@XZ
?_retn@?$_CORBA_ObjRef_Var@V_objref_BindingIterator@CosNaming@@VBindingIterator_Helper@2@@@QAEPAV_objref_BindingIterator@CosNaming@@XZ
?_retn@?$_CORBA_ObjRef_Var@V_objref_NamingContext@CosNaming@@VNamingContext_Helper@2@@@QAEPAV_objref_NamingContext@CosNaming@@XZ
?_retn@BindingList_var@CosNaming@@QAEPAVBindingList@2@XZ
?_retn@Name_var@CosNaming@@QAEPAVName@2@XZ
?_retn@ObjIdList_var@CORBA_InitialReferences@@QAEPAVObjIdList@2@XZ
?_retn@Object_var@CORBA@@QAEPAVObject@2@XZ
?_retn@StringSeq_var@CORBA@@QAEPAVStringSeq@2@XZ
?_retn@TaggedProfileList_var@IOP@@QAEPAV?$_CORBA_Unbounded_Sequence@UTaggedProfile@IOP@@@@XZ
?_retn@_CORBA_String_var@@QAEPADXZ
?_retn@omniIOR_var@@QAEPAVomniIOR@@XZ
?_setIdentity@omniObjRef@@QAEXPAVomniIdentity@@@Z
?_setTimeout@omniObjRef@@QAEXKK@Z
?_shutdown@omniObjRef@@SAXXZ
?_systemExceptionHandler@omniObjRef@@QAEPAXAAPAXAA_N@Z
?_systemExceptionHandler@omniObjRef@@QAEXPAX0_N@Z
?_the_root_poa@POA@PortableServer@@SAPAV12@XZ
?_this@omniOrbBoaServant@@QAEPAXPBD@Z
?_timeoutExceptionHandler@omniObjRef@@QAEPAXAAPAXAA_N@Z
?_timeoutExceptionHandler@omniObjRef@@QAEXPAX0_N@Z
?_toString@omniObjRef@@SAPADPAV1@@Z
?_transientExceptionHandler@omniObjRef@@QAEPAXAAPAXAA_N@Z
?_transientExceptionHandler@omniObjRef@@QAEXPAX0_N@Z
?_unMarshal@omniObjRef@@SAPAV1@PBDAAVcdrStream@@@Z
?_uncheckedNarrow@omniObjRef@@QAEPAXPBD@Z
?_unchecked_narrow@AdapterActivator@PortableServer@@SAPAV12@PAVObject@CORBA@@@Z
?_unchecked_narrow@BindingIterator@CosNaming@@SAPAV_objref_BindingIterator@2@PAVObject@CORBA@@@Z
?_unchecked_narrow@CORBA_InitialReferences@@SAPAV_objref_CORBA_InitialReferences@@PAVObject@CORBA@@@Z
?_unchecked_narrow@LocalObject@CORBA@@SAPAV12@PAVObject@2@@Z
?_unchecked_narrow@NamingContext@CosNaming@@SAPAV_objref_NamingContext@2@PAVObject@CORBA@@@Z
?_unchecked_narrow@NamingContextExt@CosNaming@@SAPAV_objref_NamingContextExt@2@PAVObject@CORBA@@@Z
?_unchecked_narrow@ServantActivator@PortableServer@@SAPAV12@PAVObject@CORBA@@@Z
?_unchecked_narrow@ServantLocator@PortableServer@@SAPAV12@PAVObject@CORBA@@@Z
?_unchecked_narrow@ServantManager@PortableServer@@SAPAV12@PAVObject@CORBA@@@Z
?_unmarshalObjRef@AdapterActivator@PortableServer@@SAPAV12@AAVcdrStream@@@Z
?_unmarshalObjRef@BindingIterator@CosNaming@@SAPAV_objref_BindingIterator@2@AAVcdrStream@@@Z
?_unmarshalObjRef@CORBA_InitialReferences@@SAPAV_objref_CORBA_InitialReferences@@AAVcdrStream@@@Z
?_unmarshalObjRef@LocalObject@CORBA@@SAPAV12@AAVcdrStream@@@Z
?_unmarshalObjRef@NamingContext@CosNaming@@SAPAV_objref_NamingContext@2@AAVcdrStream@@@Z
?_unmarshalObjRef@NamingContextExt@CosNaming@@SAPAV_objref_NamingContextExt@2@AAVcdrStream@@@Z
?_unmarshalObjRef@Object@CORBA@@SAPAV12@AAVcdrStream@@@Z
?_unmarshalObjRef@ServantActivator@PortableServer@@SAPAV12@AAVcdrStream@@@Z
?_unmarshalObjRef@ServantLocator@PortableServer@@SAPAV12@AAVcdrStream@@@Z
?_unmarshalObjRef@ServantManager@PortableServer@@SAPAV12@AAVcdrStream@@@Z
?_user_exns@_0RL_cd_69ceca6a39f685b5_00000000@@2QBQBDB
?_user_exns@_0RL_cd_69ceca6a39f685b5_01000000@@2QBQBDB
?_user_exns@_0RL_cd_69ceca6a39f685b5_02000000@@2QBQBDB
?_user_exns@_0RL_cd_69ceca6a39f685b5_20000000@@2QBQBDB
?_user_exns@_0RL_cd_69ceca6a39f685b5_21000000@@2QBQBDB
?_user_exns@_0RL_cd_69ceca6a39f685b5_40000000@@2QBQBDB
?_user_exns@_0RL_cd_69ceca6a39f685b5_41000000@@2QBQBDB
?_user_exns@_0RL_cd_69ceca6a39f685b5_60000000@@2QBQBDB
?_user_exns@_0RL_cd_69ceca6a39f685b5_61000000@@2QBQBDB
?_user_exns@_0RL_cd_69ceca6a39f685b5_80000000@@2QBQBDB
?_user_exns@_0RL_cd_69ceca6a39f685b5_81000000@@2QBQBDB
?_user_exns@_0RL_cd_69ceca6a39f685b5_a0000000@@2QBQBDB
?_user_exns@_0RL_cd_69ceca6a39f685b5_a1000000@@2QBQBDB
?_user_exns@_0RL_cd_69ceca6a39f685b5_c0000000@@2QBQBDB
?_user_exns@_0RL_cd_69ceca6a39f685b5_c1000000@@2QBQBDB
?_user_exns@_0RL_cd_69ceca6a39f685b5_e0000000@@2QBQBDB
?_user_exns@_0RL_cd_69ceca6a39f685b5_e1000000@@2QBQBDB
?_user_exns@_0RL_cd_96f078e2247ab9da_00000000@@2QBQBDB
?_user_exns@_0RL_cd_96f078e2247ab9da_20000000@@2QBQBDB
?abortOnInternalError@orbParameters@omni@@3_NA
?acceptBiDirectional@omniOrbPOA@omni@@QBE_NXZ
?acceptBiDirectionalGIOP@orbParameters@omni@@3_NA
?acceptMisalignedTcIndirections@orbParameters@omni@@3_NA
?acquireClient@BiDirClientRope@omni@@UAEPAVIOP_C@2@PBVomniIOR@@PBEKPAVomniCallDescriptor@@@Z
?acquireClient@BiDirServerRope@omni@@UAEPAVIOP_C@2@PBVomniIOR@@PBEKPAVomniCallDescriptor@@@Z
?acquireClient@giopRope@omni@@UAEPAVIOP_C@2@PBVomniIOR@@PBEKPAVomniCallDescriptor@@@Z
?acquireServer@giopStrand@omni@@QAEPAVGIOP_S@2@PAVgiopWorker@2@@Z
?activate@giopServer@omni@@AAEXXZ
?activate@omniOrbPOAManager@omni@@UAEXXZ
?activate_object@omniOrbPOA@omni@@UAEPAVObjectId@PortableServer@@PAVServantBase@4@@Z
?activate_object_with_id@omniOrbPOA@omni@@UAEXABVObjectId@PortableServer@@PAVServantBase@4@@Z
?active@giopStrand@omni@@2VStrandList@2@A
?activeObjList@omniOrbBOA@omni@@QAEPAPAVomniObjTableEntry@@XZ
?active_timedout@giopStrand@omni@@2VStrandList@2@A
?actual_shutdown@omniOrbORB@@QAEXXZ
?adapter@omniLocalIdentity@@QBEPAVomniObjAdapter@omni@@XZ
?adapterActive@omniObjAdapter@omni@@QAEXXZ
?adapterDestroyed@omniObjAdapter@omni@@IAEXXZ
?adapterInactive@omniObjAdapter@omni@@QAEXXZ
?adapter_name_is_valid@omniOrbPOA@omni@@AAEHPBD@Z
?add@assignAMIThread_T@omniInterceptors@omni@@QAEXP6AXAAVinfo_T@123@@Z@Z
?add@assignUpcallThread_T@omniInterceptors@omni@@QAEXP6AXAAVinfo_T@123@@Z@Z
?add@clientOpenConnection_T@omniInterceptors@omni@@QAEXP6A_NAAVinfo_T@123@@Z@Z
?add@clientReceiveReply_T@omniInterceptors@omni@@QAEXP6A_NAAVinfo_T@123@@Z@Z
?add@clientSendRequest_T@omniInterceptors@omni@@QAEXP6A_NAAVinfo_T@123@@Z@Z
?add@createIdentity_T@omniInterceptors@omni@@QAEXP6A_NAAVinfo_T@123@@Z@Z
?add@createORBServer_T@omniInterceptors@omni@@QAEXP6A_NAAVinfo_T@123@@Z@Z
?add@createPolicy_T@omniInterceptors@omni@@QAEXP6A_NAAVinfo_T@123@@Z@Z
?add@createRope_T@omniInterceptors@omni@@QAEXP6A_NAAVinfo_T@123@@Z@Z
?add@createThread_T@omniInterceptors@omni@@QAEXP6AXAAVinfo_T@123@@Z@Z
?add@decodeIOR_T@omniInterceptors@omni@@QAEXP6A_NAAVinfo_T@123@@Z@Z
?add@encodeIOR_T@omniInterceptors@omni@@QAEXP6A_NAAVinfo_T@123@@Z@Z
?add@invokeLocalCall_T@omniInterceptors@omni@@QAEXP6AXPAVomniCallDescriptor@@PAVomniServant@@@Z@Z
?add@serverAcceptConnection_T@omniInterceptors@omni@@QAEXP6A_NAAVinfo_T@123@@Z@Z
?add@serverReceiveRequest_T@omniInterceptors@omni@@QAEXP6A_NAAVinfo_T@123@@Z@Z
?add@serverSendException_T@omniInterceptors@omni@@QAEXP6A_NAAVinfo_T@123@@Z@Z
?add@serverSendReply_T@omniInterceptors@omni@@QAEXP6A_NAAVinfo_T@123@@Z@Z
?addBiDirStrand@giopServer@omni@@QAE_NPAVgiopStrand@2@PAVgiopActiveCollection@2@@Z
?addIdle@omniAsyncWorker@@QAEXXZ
?addInterceptor@omniCallDescriptor@@SAXP6AXPAV1@PAVomniServant@@@Z@Z
?addKVBoolean@orbOptions@omni@@SAXPBD_NAAVStringSeq@CORBA@@@Z
?addKVLong@orbOptions@omni@@SAXPBDJAAVStringSeq@CORBA@@@Z
?addKVString@orbOptions@omni@@SAXPBD0AAVStringSeq@CORBA@@@Z
?addKVULong@orbOptions@omni@@SAXPBDKAAVStringSeq@CORBA@@@Z
?addMonitor@tcpActiveCollection@omni@@IAEXI@Z
?addOption@orbOptions@omni@@QAEXPBD0W4Source@12@@Z
?addOptions@orbOptions@omni@@QAEXQAY01PBD@Z
?addRope@BiDirServerRope@omni@@SAPAV12@PAVgiopStrand@2@ABV?$omnivector@PAVgiopAddress@omni@@@@@Z
?addRule@transportRules@omni@@QAEXPAVRule@12@ABVStringSeq@CORBA@@@Z
?addRuleType@transportRules@omni@@SAXPAVRuleType@12@@Z
?addSocket@SocketCollection@omni@@QAEXPAVSocketHolder@2@@Z
?addToIOR@giopEndpoint@omni@@SA_NPBDPAVIORPublish@2@@Z
?addToIOR@tcpTransportImpl@omni@@UAE_NPBDPAVIORPublish@2@@Z
?add_IIOP_ADDRESS@omniIOR@@SAXABUAddress@IIOP@@PAVIORPublish@omni@@@Z
?add_TAG_ALTERNATE_IIOP_ADDRESS@omniIOR@@SAXABUAddress@IIOP@@PAVIORPublish@omni@@@Z
?add_TAG_CODE_SETS@omniIOR@@SAXABUCodeSetComponentInfo@CONV_FRAME@omni@@@Z
?add_TAG_OMNIORB_BIDIR@omniIOR@@SAXPBDAAV1@@Z
?add_TAG_OMNIORB_UNIX_TRANS@omniIOR@@SAXPBDPAVIORPublish@omni@@@Z
?add_TAG_SSL_SEC_TRANS@omniIOR@@SAXABUAddress@IIOP@@GGPAVIORPublish@omni@@@Z
?add_object_to_etherealisation_queue@omniOrbPOA@omni@@AAEXPAVomniObjTableEntry@@PAVServantActivator@PortableServer@@HH@Z
?addr@FullAddrInfo@omni@@UAEPAUsockaddr@@XZ
?addrAndNameToURI@omniURI@omni@@SAPADPBD0@Z
?addrFamily@FullAddrInfo@omni@@UAEHXZ
?addrOfNextInObjectTable@omniObjTableEntry@@QAEPAPAV1@XZ
?addrSize@FullAddrInfo@omni@@UAEHXZ
?addrToPort@tcpSocket@omni@@SAGPAUsockaddr@@@Z
?addrToString@tcpSocket@omni@@SAPADPAUsockaddr@@@Z
?addrToURI@tcpSocket@omni@@SAPADPAUsockaddr@@PBD@Z
?addr_mode@omniIOR@@QAEXF@Z
?addr_mode@omniIOR@@QBEFXZ
?addr_selected_profile_index@omniIOR@@QAEXJ@Z
?addr_selected_profile_index@omniIOR@@QBEJXZ
?address@tcpAddress@omni@@UBEPBDXZ
?address@tcpEndpoint@omni@@UBEPBDXZ
?addressMask@Rule@transportRules@omni@@QAEPBDXZ
?addresses@IORInfo@omniIOR@@QAEAAV?$omnivector@PAVgiopAddress@omni@@@@XZ
?addresses@tcpEndpoint@omni@@UBEPBV_CORBA_Unbounded_Sequence_String@@XZ
?alignInput@cdrStream@@QAEXW4alignment_t@omni@@@Z
?alignOutput@cdrStream@@QAEXW4alignment_t@omni@@@Z
?alignStart@giopStream_Buffer@omni@@QAEXW4alignment_t@2@@Z
?align_to@omni@@YAKKW4alignment_t@1@@Z
?all_destroyed@omniOrbORB@@SA_NXZ
?alloc@_CORBA_String_helper@@SAPADH@Z
?alloc@_CORBA_WString_helper@@SAPA_WH@Z
?allocC@omniCodeSetUtil@omni@@SAPADK@Z
?allocU@omniCodeSetUtil@omni@@SAPA_WK@Z
?allocW@omniCodeSetUtil@omni@@SAPA_WK@Z
?allocate@?$omnivector@K@@AAEPAKI@Z
?allocate@?$omnivector@PAUEndpointURI@Options@omniObjAdapter@omni@@@@AAEPAPAUEndpointURI@Options@omniObjAdapter@omni@@I@Z
?allocate@?$omnivector@PAUHandlerValuePair@orbOptions@omni@@@@AAEPAPAUHandlerValuePair@orbOptions@omni@@I@Z
?allocate@?$omnivector@PAURuleActionPair@transportRules@omni@@@@AAEPAPAURuleActionPair@transportRules@omni@@I@Z
?allocate@?$omnivector@PAVHandler@orbOptions@omni@@@@AAEPAPAVHandler@orbOptions@omni@@I@Z
?allocate@?$omnivector@PAVObject@CORBA@@@@AAEPAPAVObject@CORBA@@I@Z
?allocate@?$omnivector@PAVRuleType@transportRules@omni@@@@AAEPAPAVRuleType@transportRules@omni@@I@Z
?allocate@?$omnivector@PAVURIHandler@omniURI@omni@@@@AAEPAPAVURIHandler@omniURI@omni@@I@Z
?allocate@?$omnivector@PAVgiopActiveCollection@omni@@@@AAEPAPAVgiopActiveCollection@omni@@I@Z
?allocate@?$omnivector@PAVgiopAddress@omni@@@@AAEPAPAVgiopAddress@omni@@I@Z
?allocate@?$omnivector@PAVgiopEndpoint@omni@@@@AAEPAPAVgiopEndpoint@omni@@I@Z
?allocate@?$omnivector@PAVgiopStrand@omni@@@@AAEPAPAVgiopStrand@omni@@I@Z
?allocate@?$omnivector@PAVomniInitialiser@omni@@@@AAEPAPAVomniInitialiser@omni@@I@Z
?allocate@?$omnivector@PAVomniObjRef@@@@AAEPAPAVomniObjRef@@I@Z
?allocate@?$omnivector@PAVomniObjTableEntry@@@@AAEPAPAVomniObjTableEntry@@I@Z
?allocate@?$omnivector@PAVomniTrackedObject@omni@@@@AAEPAPAVomniTrackedObject@omni@@I@Z
?allocate@?$omnivector@PAVorbServer@omni@@@@AAEPAPAVorbServer@omni@@I@Z
?allocate@?$omnivector@PBD@@AAEPAPBDI@Z
?allocate@?$omnivector@UresolvePseudoEntry@omni@@@@AAEPAUresolvePseudoEntry@omni@@I@Z
?allocbuf@?$_CORBA_PseudoValue_Sequence@PAVIORExtraInfo@omniIOR@@@@SAPAPAVIORExtraInfo@omniIOR@@K@Z
?allocbuf@?$_CORBA_PseudoValue_Sequence@PAVomniOrbPOA@omni@@@@SAPAPAVomniOrbPOA@omni@@K@Z
?allocbuf@?$_CORBA_PseudoValue_Sequence@UserviceRecord@omni@@@@SAPAUserviceRecord@omni@@K@Z
?allocbuf@?$_CORBA_Sequence@E@@SAPAEK@Z
?allocbuf@?$_CORBA_Sequence@K@@SAPAKK@Z
?allocbuf@?$_CORBA_Sequence@UAddress@IIOP@@@@SAPAUAddress@IIOP@@K@Z
?allocbuf@?$_CORBA_Sequence@UBinding@CosNaming@@@@SAPAUBinding@CosNaming@@K@Z
?allocbuf@?$_CORBA_Sequence@UNameComponent@CosNaming@@@@SAPAUNameComponent@CosNaming@@K@Z
?allocbuf@?$_CORBA_Sequence@UServiceContext@IOP@@@@SAPAUServiceContext@IOP@@K@Z
?allocbuf@?$_CORBA_Sequence@UTaggedComponent@IOP@@@@SAPAUTaggedComponent@IOP@@K@Z
?allocbuf@?$_CORBA_Sequence@UTaggedProfile@IOP@@@@SAPAUTaggedProfile@IOP@@K@Z
?allocbuf@?$_CORBA_Sequence@V_CORBA_Unbounded_Sequence_Octet@@@@SAPAV_CORBA_Unbounded_Sequence_Octet@@K@Z
?allocbuf@?$_CORBA_Sequence_ObjRef@VPOA@PortableServer@@V?$_CORBA_ObjRef_Element@VPOA@PortableServer@@VPOA_Helper@2@@@VPOA_Helper@2@@@SAPAPAVPOA@PortableServer@@K@Z
?allocbuf@_CORBA_Sequence_String@@SAPAPADK@Z
?allocbuf@_CORBA_Sequence_WString@@SAPAPA_WK@Z
?anyCharCodeSet@orbParameters@omni@@3PAVTCS_C@omniCodeSet@2@A
?anyWCharCodeSet@orbParameters@omni@@3PAVTCS_W@omniCodeSet@2@A
?append@ObjAddrList@corbalocURIHandler@omni@@QAEXPAVObjAddr@23@@Z
?argvHasNoValue@Handler@orbOptions@omni@@QBE_NXZ
?argvYes@Handler@orbOptions@omni@@QBE_NXZ
?asString@FullAddrInfo@omni@@UAEPADXZ
?assertFail@omni@@YAXPBDH0@Z
?assign@omniAsyncWorker@@QAEXPAVomniAsyncPool@@@Z
?assign@omni_time_t@@QAEXKK@Z
?assignAMIThread@omniInterceptorP@omni@@2PAUelmT@12@A
?assignUpcallThread@omniInterceptorP@omni@@2PAUelmT@12@A
?attach@omni_ObjRef_initialiser@omni@@UAEXXZ
?attach@omni_cdrStream_initialiser@omni@@UAEXXZ
?attach@omni_codeSet_initialiser@omni@@UAEXXZ
?attach@omni_corbaOrb_initialiser@omni@@UAEXXZ
?attach@omni_dynamiclib_initialiser@omni@@UAEXXZ
?attach@omni_giopEndpoint_initialiser@omni@@UAEXXZ
?attach@omni_giopImpl10_initialiser@omni@@UAEXXZ
?attach@omni_giopImpl11_initialiser@omni@@UAEXXZ
?attach@omni_giopImpl12_initialiser@omni@@UAEXXZ
?attach@omni_giopRope_initialiser@omni@@UAEXXZ
?attach@omni_giopStrand_initialiser@omni@@UAEXXZ
?attach@omni_giopStreamImpl_initialiser@omni@@UAEXXZ
?attach@omni_giopbidir_initialiser@omni@@UAEXXZ
?attach@omni_giopserver_initialiser@omni@@UAEXXZ
?attach@omni_hooked_initialiser@omni@@UAEXXZ
?attach@omni_initRefs_initialiser@omni@@UAEXXZ
?attach@omni_interceptor_initialiser@omni@@UAEXXZ
?attach@omni_invoker_initialiser@omni@@UAEXXZ
?attach@omni_ior_initialiser@omni@@UAEXXZ
?attach@omni_objadpt_initialiser@omni@@UAEXXZ
?attach@omni_omniCurrent_initialiser@omni@@UAEXXZ
?attach@omni_omniIOR_initialiser@omni@@UAEXXZ
?attach@omni_omniInternal_initialiser@omni@@UAEXXZ
?attach@omni_omniTransport_initialiser@omni@@UAEXXZ
?attach@omni_orbOptions_initialiser@omni@@UAEXXZ
?attach@omni_poa_initialiser@omni@@UAEXXZ
?attach@omni_transportRules_initialiser@omni@@UAEXXZ
?attach@omni_uri_initialiser@omni@@UAEXXZ
?attempt_to_activate_adapter@omniOrbPOA@omni@@AAEPAV12@PBD@Z
?bInitialized@?1??WspiapiLoad@@9@4@4HA
?begin@?$omnivector@PAUEndpointURI@Options@omniObjAdapter@omni@@@@QAEPAPAUEndpointURI@Options@omniObjAdapter@omni@@XZ
?begin@?$omnivector@PAUHandlerValuePair@orbOptions@omni@@@@QAEPAPAUHandlerValuePair@orbOptions@omni@@XZ
?begin@?$omnivector@PAUHandlerValuePair@orbOptions@omni@@@@QBEPBQAUHandlerValuePair@orbOptions@omni@@XZ
?begin@?$omnivector@PAURuleActionPair@transportRules@omni@@@@QAEPAPAURuleActionPair@transportRules@omni@@XZ
?begin@?$omnivector@PAVHandler@orbOptions@omni@@@@QAEPAPAVHandler@orbOptions@omni@@XZ
?begin@?$omnivector@PAVHandler@orbOptions@omni@@@@QBEPBQAVHandler@orbOptions@omni@@XZ
?begin@?$omnivector@PAVObject@CORBA@@@@QAEPAPAVObject@CORBA@@XZ
?begin@?$omnivector@PAVRuleType@transportRules@omni@@@@QAEPAPAVRuleType@transportRules@omni@@XZ
?begin@?$omnivector@PAVURIHandler@omniURI@omni@@@@QAEPAPAVURIHandler@omniURI@omni@@XZ
?begin@?$omnivector@PAVgiopActiveCollection@omni@@@@QAEPAPAVgiopActiveCollection@omni@@XZ
?begin@?$omnivector@PAVgiopAddress@omni@@@@QAEPAPAVgiopAddress@omni@@XZ
?begin@?$omnivector@PAVgiopAddress@omni@@@@QBEPBQAVgiopAddress@omni@@XZ
?begin@?$omnivector@PAVgiopEndpoint@omni@@@@QAEPAPAVgiopEndpoint@omni@@XZ
?begin@?$omnivector@PAVgiopStrand@omni@@@@QAEPAPAVgiopStrand@omni@@XZ
?begin@?$omnivector@PAVomniInitialiser@omni@@@@QAEPAPAVomniInitialiser@omni@@XZ
?begin@?$omnivector@PAVomniObjRef@@@@QAEPAPAVomniObjRef@@XZ
?begin@?$omnivector@PAVomniObjTableEntry@@@@QAEPAPAVomniObjTableEntry@@XZ
?begin@?$omnivector@PAVomniObjTableEntry@@@@QBEPBQAVomniObjTableEntry@@XZ
?begin@?$omnivector@PAVomniTrackedObject@omni@@@@QAEPAPAVomniTrackedObject@omni@@XZ
?begin@?$omnivector@PAVorbServer@omni@@@@QAEPAPAVorbServer@omni@@XZ
?begin@?$omnivector@PBD@@QAEPAPBDXZ
?begin@?$omnivector@PBD@@QBEPBQBDXZ
?begin@?$omnivector@UresolvePseudoEntry@omni@@@@QAEPAUresolvePseudoEntry@omni@@XZ
?bind@_objref_NamingContext@CosNaming@@QAEXABVName@2@PAVObject@CORBA@@@Z
?bind_context@_objref_NamingContext@CosNaming@@QAEXABVName@2@PAV12@@Z
?bind_new_context@_objref_NamingContext@CosNaming@@QAEPAV12@ABVName@2@@Z
?bootstrapAgentHostname@orbParameters@omni@@3V_CORBA_String_var@@A
?bootstrapAgentPort@orbParameters@omni@@3GA
?buf@BufferCompressor@omni@@QAEPAUgiopStream_Buffer@2@XZ
?bufEnd@giopStream_Buffer@omni@@QAEKXZ
?bufLast@giopStream_Buffer@omni@@QAEKXZ
?bufPtr@cdrMemoryStream@@QBEPAXXZ
?bufSize@cdrMemoryStream@@QBEKXZ
?bufStart@giopStream_Buffer@omni@@QAEKXZ
?buff@?1??gai_strerrorA@@9@4PADA
?buffer@BufferC@omniCodeSetUtil@omni@@QAEPADXZ
?buffer@BufferU@omniCodeSetUtil@omni@@QAEPA_WXZ
?bufferSize@giopStream@omni@@2KA
?bufferedOutputSize@giopStream@omni@@AAEKXZ
?buildURI@omniURI@omni@@SAPADPBD0G@Z
?byteSwap@cdrStream@@SAFF@Z
?byteSwap@cdrStream@@SAGG@Z
?byteSwap@cdrStream@@SAJJ@Z
?byteSwap@cdrStream@@SAKK@Z
?byteSwap@cdrStream@@SA_J_J@Z
?byteSwap@cdrStream@@SA_K_K@Z
?callDescriptor@omniCurrent@@QAEPAVomniCallDescriptor@@XZ
?call_desc@omniCallHandle@@QBEPAVomniCallDescriptor@@XZ
?calldescriptor@GIOP_C@omni@@QAEPAVomniCallDescriptor@@XZ
?calldescriptor@GIOP_C@omni@@QAEXPAVomniCallDescriptor@@@Z
?calldescriptor@GIOP_S@omni@@QAEPAVomniCallDescriptor@@XZ
?calldescriptor@GIOP_S@omni@@QAEXPAVomniCallDescriptor@@@Z
?capacity@?$omnivector@K@@QBEIXZ
?capacity@?$omnivector@PAUEndpointURI@Options@omniObjAdapter@omni@@@@QBEIXZ
?capacity@?$omnivector@PAUHandlerValuePair@orbOptions@omni@@@@QBEIXZ
?capacity@?$omnivector@PAURuleActionPair@transportRules@omni@@@@QBEIXZ
?capacity@?$omnivector@PAVHandler@orbOptions@omni@@@@QBEIXZ
?capacity@?$omnivector@PAVObject@CORBA@@@@QBEIXZ
?capacity@?$omnivector@PAVRuleType@transportRules@omni@@@@QBEIXZ
?capacity@?$omnivector@PAVURIHandler@omniURI@omni@@@@QBEIXZ
?capacity@?$omnivector@PAVgiopActiveCollection@omni@@@@QBEIXZ
?capacity@?$omnivector@PAVgiopAddress@omni@@@@QBEIXZ
?capacity@?$omnivector@PAVgiopEndpoint@omni@@@@QBEIXZ
?capacity@?$omnivector@PAVgiopStrand@omni@@@@QBEIXZ
?capacity@?$omnivector@PAVomniInitialiser@omni@@@@QBEIXZ
?capacity@?$omnivector@PAVomniObjRef@@@@QBEIXZ
?capacity@?$omnivector@PAVomniObjTableEntry@@@@QBEIXZ
?capacity@?$omnivector@PAVomniTrackedObject@omni@@@@QBEIXZ
?capacity@?$omnivector@PAVorbServer@omni@@@@QBEIXZ
?capacity@?$omnivector@PBD@@QBEIXZ
?capacity@?$omnivector@UresolvePseudoEntry@omni@@@@QBEIXZ
?category@omniTask@@QAE?AW4Category@1@XZ
?change_implementation@omniOrbBOA@omni@@UAEXPAVObject@CORBA@@PAVImplementationDef@4@@Z
?checkInputOverrun@cdrCountingStream@@UAE_NKKW4alignment_t@omni@@@Z
?checkInputOverrun@cdrMemoryStream@@UAE_NKKW4alignment_t@omni@@@Z
?checkInputOverrun@cdrStreamAdapter@@MAE_NKKW4alignment_t@omni@@@Z
?checkInputOverrun@cdrValueChunkStream@@UAE_NKKW4alignment_t@omni@@@Z
?checkInputOverrun@giopStream@omni@@UAE_NKKW4alignment_t@2@@Z
?checkOutputOverrun@cdrCountingStream@@UAE_NKKW4alignment_t@omni@@@Z
?checkOutputOverrun@cdrMemoryStream@@UAE_NKKW4alignment_t@omni@@@Z
?checkOutputOverrun@cdrStreamAdapter@@MAE_NKKW4alignment_t@omni@@@Z
?checkOutputOverrun@cdrValueChunkStream@@UAE_NKKW4alignment_t@omni@@@Z
?checkOutputOverrun@giopStream@omni@@UAE_NKKW4alignment_t@2@@Z
?cleanup@GIOP_C@omni@@QAEXXZ
?clearDeadline@giopStream@omni@@QAEXXZ
?clearSelectable@SocketHolder@omni@@QAEXXZ
?clearSelectable@tcpConnection@omni@@UAEXXZ
?clearValueTracker@cdrStream@@QAEXXZ
?clientCallTimeOutPeriod@orbParameters@omni@@3Uomni_time_t@@A
?clientConnectTimeOutPeriod@orbParameters@omni@@3Uomni_time_t@@A
?clientOpenConnection@omniInterceptorP@omni@@2PAUelmT@12@A
?clientReceiveReply@omniInterceptorP@omni@@2PAUelmT@12@A
?clientRules@transportRules@omni@@SAAAV12@XZ
?clientSendRequest@omniInterceptorP@omni@@2PAUelmT@12@A
?collection@giopMonitor@omni@@QBEPAVgiopActiveCollection@2@XZ
?completeCallback@omniAsyncCallDescriptor@@UAEXXZ
?complete_object_deactivation@omniOrbPOA@omni@@AAEXPAVomniObjTableEntry@@@Z
?completed@CommFailure@giopStream@omni@@QBE?AW4CompletionStatus@CORBA@@XZ
?completed@SystemException@CORBA@@QBE?AW4CompletionStatus@2@XZ
?completion@GIOP_C@omni@@UAEKXZ
?completion@GIOP_S@omni@@UAEKXZ
?completion@cdrStream@@UAEKXZ
?completion@cdrStreamAdapter@@MAEKXZ
?completion@cdrValueChunkStream@@UAEKXZ
?compressorFactory@giopStream@omni@@2PAVgiopCompressorFactory@2@A
?cond@Scavenger@omni@@0PAVomni_tracedcondition@@A
?connection@omniCallHandle@@QAEPAVgiopConnection@omni@@XZ
?connectionWatchImmediate@orbParameters@omni@@3_NA
?containsValues@omniCallDescriptor@@QAE_NXZ
?copy@BidirectionalPolicy@BiDirPolicy@@UAEPAVPolicy@CORBA@@XZ
?copy@EndPointPublishPolicy@omniPolicy@@UAEPAVPolicy@CORBA@@XZ
?copy@IdAssignmentPolicy@PortableServer@@UAEPAVPolicy@CORBA@@XZ
?copy@IdUniquenessPolicy@PortableServer@@UAEPAVPolicy@CORBA@@XZ
?copy@ImplicitActivationPolicy@PortableServer@@UAEPAVPolicy@CORBA@@XZ
?copy@LifespanPolicy@PortableServer@@UAEPAVPolicy@CORBA@@XZ
?copy@LocalShortcutPolicy@omniPolicy@@UAEPAVPolicy@CORBA@@XZ
?copy@Policy@CORBA@@UAEPAV12@XZ
?copy@RequestProcessingPolicy@PortableServer@@UAEPAVPolicy@CORBA@@XZ
?copy@ServantRetentionPolicy@PortableServer@@UAEPAVPolicy@CORBA@@XZ
?copy@ThreadPolicy@PortableServer@@UAEPAVPolicy@CORBA@@XZ
?copyInputData@giopImpl10@omni@@SAXPAVgiopStream@2@PAXIW4alignment_t@2@@Z
?copyInputData@giopImpl11@omni@@SAXPAVgiopStream@2@PAXIW4alignment_t@2@@Z
?copyInputData@giopImpl12@omni@@SAXPAVgiopStream@2@PAXIW4alignment_t@2@@Z
?copyOutputData@giopImpl10@omni@@SAXPAVgiopStream@2@PAXIW4alignment_t@2@@Z
?copyOutputData@giopImpl11@omni@@SAXPAVgiopStream@2@PAXIW4alignment_t@2@@Z
?copyOutputData@giopImpl12@omni@@SAXPAVgiopStream@2@PAXIW4alignment_t@2@@Z
?copyStateFromActual@cdrStreamAdapter@@QAEXXZ
?copyStateFromActual@cdrValueChunkStream@@QAEXXZ
?copyStateToActual@cdrStreamAdapter@@QBEXXZ
?copyStateToActual@cdrValueChunkStream@@QBEXXZ
?copyValuesInLocalCalls@orbParameters@omni@@3_NA
?copy_to@cdrCountingStream@@UAEXAAVcdrStream@@HW4alignment_t@omni@@@Z
?copy_to@cdrMemoryStream@@UAEXAAVcdrStream@@HW4alignment_t@omni@@@Z
?copy_to@cdrStream@@UAEXAAV1@HW4alignment_t@omni@@@Z
?copy_to@cdrStreamAdapter@@MAEXAAVcdrStream@@HW4alignment_t@omni@@@Z
?copybuffer@?$_CORBA_Sequence@E@@IAEXK@Z
?copybuffer@?$_CORBA_Sequence@K@@IAEXK@Z
?copybuffer@?$_CORBA_Sequence@UAddress@IIOP@@@@IAEXK@Z
?copybuffer@?$_CORBA_Sequence@UBinding@CosNaming@@@@IAEXK@Z
?copybuffer@?$_CORBA_Sequence@UNameComponent@CosNaming@@@@IAEXK@Z
?copybuffer@?$_CORBA_Sequence@UServiceContext@IOP@@@@IAEXK@Z
?copybuffer@?$_CORBA_Sequence@UTaggedComponent@IOP@@@@IAEXK@Z
?copybuffer@?$_CORBA_Sequence@UTaggedProfile@IOP@@@@IAEXK@Z
?copybuffer@?$_CORBA_Sequence@V_CORBA_Unbounded_Sequence_Octet@@@@IAEXK@Z
?copybuffer@?$_CORBA_Sequence_ObjRef@VPOA@PortableServer@@V?$_CORBA_ObjRef_Element@VPOA@PortableServer@@VPOA_Helper@2@@@VPOA_Helper@2@@@IAEXK@Z
?copybuffer@_CORBA_Sequence_String@@AAEXK@Z
?copybuffer@_CORBA_Sequence_WString@@AAEXK@Z
?cpy@_CORBA_WString_helper@@SAXPA_WPB_W@Z
?create@omniOrbBOA@omni@@UAEPAVObject@CORBA@@ABVReferenceData@4@PAV_objref_InterfaceDef@4@PAVImplementationDef@4@@Z
?createIdentity@omni@@YAPAVomniIdentity@@PAVomniIOR@@PBD_N@Z
?createIdentity@omniInterceptorP@omni@@2PAUelmT@12@A
?createInProcessIdentity@omni@@YAPAVomniIdentity@@PBEH@Z
?createLocalObjRef@omni@@YAPAVomniObjRef@@PBD0PAVomniObjTableEntry@@ABVomniIORHints@@@Z
?createLocalObjRef@omni@@YAPAVomniObjRef@@PBD0PBEHABVomniIORHints@@@Z
?createORBServer@omniInterceptorP@omni@@2PAUelmT@12@A
?createObjRef@omni@@YAPAVomniObjRef@@PBDPAVomniIOR@@_NPAVomniIdentity@@@Z
?createPolicy@omniInterceptorP@omni@@2PAUelmT@12@A
?createRope@omniInterceptorP@omni@@2PAUelmT@12@A
?createRules@builtinRuleType@omni@@UAE_NPBDABVStringSeq@CORBA@@AAVtransportRules@2@@Z
?createThread@omniInterceptorP@omni@@2PAUelmT@12@A
?create_POA@omniOrbPOA@omni@@UAEPAVPOA@PortableServer@@PBDPAVPOAManager@4@ABV?$_CORBA_Pseudo_Unbounded_Sequence@VPolicy@CORBA@@V?$_CORBA_PseudoObj_Member@VPolicy@CORBA@@V?$_CORBA_PseudoObj_Var@VPolicy@CORBA@@@@@@@@@Z
?create_endpoint_publish_policy@omniPolicy@@YAPAVEndPointPublishPolicy@1@ABVStringSeq@CORBA@@@Z
?create_id_assignment_policy@POA@PortableServer@@UAEPAVIdAssignmentPolicy@2@W4IdAssignmentPolicyValue@2@@Z
?create_id_uniqueness_policy@POA@PortableServer@@UAEPAVIdUniquenessPolicy@2@W4IdUniquenessPolicyValue@2@@Z
?create_implicit_activation_policy@POA@PortableServer@@UAEPAVImplicitActivationPolicy@2@W4ImplicitActivationPolicyValue@2@@Z
?create_key@omniOrbPOA@omni@@AAEXAAVomniObjKey@@PBEH@Z
?create_lifespan_policy@POA@PortableServer@@UAEPAVLifespanPolicy@2@W4LifespanPolicyValue@2@@Z
?create_local_shortcut_policy@omniPolicy@@YAPAVLocalShortcutPolicy@1@G@Z
?create_new_key@omniOrbPOA@omni@@AAEXAAVomniObjKey@@PAPBEPAH@Z
?create_reference@omniOrbPOA@omni@@UAEPAVObject@CORBA@@PBD@Z
?create_reference_with_id@omniOrbPOA@omni@@UAEPAVObject@CORBA@@ABVObjectId@PortableServer@@PBD@Z
?create_request_processing_policy@POA@PortableServer@@UAEPAVRequestProcessingPolicy@2@W4RequestProcessingPolicyValue@2@@Z
?create_servant_retention_policy@POA@PortableServer@@UAEPAVServantRetentionPolicy@2@W4ServantRetentionPolicyValue@2@@Z
?create_thread_policy@POA@PortableServer@@UAEPAVThreadPolicy@2@W4ThreadPolicyValue@2@@Z
?csInsert@giopServer@omni@@AAEPAUconnectionState@12@PAVgiopConnection@2@@Z
?csInsert@giopServer@omni@@AAEPAUconnectionState@12@PAVgiopStrand@2@@Z
?csLocate@giopServer@omni@@AAEPAUconnectionState@12@PAVgiopConnection@2@@Z
?csRemove@giopServer@omni@@AAEPAUconnectionState@12@PAVgiopConnection@2@@Z
?currentAddress@omniCallDescriptor@@QAEPBVgiopAddress@omni@@XZ
?currentAddress@omniCallDescriptor@@QAEXPBVgiopAddress@omni@@@Z
?currentInputPtr@cdrCountingStream@@UBEKXZ
?currentInputPtr@cdrMemoryStream@@UBEKXZ
?currentInputPtr@cdrStreamAdapter@@MBEKXZ
?currentInputPtr@cdrValueChunkStream@@UBEKXZ
?currentInputPtr@giopImpl10@omni@@SAKPBVgiopStream@2@@Z
?currentInputPtr@giopImpl11@omni@@SAKPBVgiopStream@2@@Z
?currentInputPtr@giopImpl12@omni@@SAKPBVgiopStream@2@@Z
?currentInputPtr@giopStream@omni@@UBEKXZ
?currentOutputPtr@cdrCountingStream@@UBEKXZ
?currentOutputPtr@cdrMemoryStream@@UBEKXZ
?currentOutputPtr@cdrStreamAdapter@@MBEKXZ
?currentOutputPtr@cdrValueChunkStream@@UBEKXZ
?currentOutputPtr@giopImpl10@omni@@SAKPBVgiopStream@2@@Z
?currentOutputPtr@giopImpl11@omni@@SAKPBVgiopStream@2@@Z
?currentOutputPtr@giopImpl12@omni@@SAKPBVgiopStream@2@@Z
?currentOutputPtr@giopStream@omni@@UBEKXZ
?dataSize@giopStream_Buffer@omni@@QAEKXZ
?deactivate@giopMonitor@omni@@QAEXXZ
?deactivate@giopServer@omni@@AAEXXZ
?deactivate@omniOrbPOAManager@omni@@UAEX_N0@Z
?deactivate@tcpActiveCollection@omni@@UAEXXZ
?deactivate_impl@omniOrbBOA@omni@@UAEXPAVImplementationDef@CORBA@@@Z
?deactivate_obj@omniOrbBOA@omni@@UAEXPAVObject@CORBA@@@Z
?deactivate_object@omniOrbPOA@omni@@UAEXABVObjectId@PortableServer@@@Z
?deactivate_objects@omniOrbPOA@omni@@AAEXPAVomniObjTableEntry@@@Z
?deactivated@omniLocalIdentity@@QBE_NXZ
?dealloc@_CORBA_String_helper@@SAXPAD@Z
?dealloc@_CORBA_WString_helper@@SAXPA_W@Z
?deallocate@?$omnivector@K@@AAEXXZ
?deallocate@?$omnivector@PAUEndpointURI@Options@omniObjAdapter@omni@@@@AAEXXZ
?deallocate@?$omnivector@PAUHandlerValuePair@orbOptions@omni@@@@AAEXXZ
?deallocate@?$omnivector@PAURuleActionPair@transportRules@omni@@@@AAEXXZ
?deallocate@?$omnivector@PAVHandler@orbOptions@omni@@@@AAEXXZ
?deallocate@?$omnivector@PAVObject@CORBA@@@@AAEXXZ
?deallocate@?$omnivector@PAVRuleType@transportRules@omni@@@@AAEXXZ
?deallocate@?$omnivector@PAVURIHandler@omniURI@omni@@@@AAEXXZ
?deallocate@?$omnivector@PAVgiopActiveCollection@omni@@@@AAEXXZ
?deallocate@?$omnivector@PAVgiopAddress@omni@@@@AAEXXZ
?deallocate@?$omnivector@PAVgiopEndpoint@omni@@@@AAEXXZ
?deallocate@?$omnivector@PAVgiopStrand@omni@@@@AAEXXZ
?deallocate@?$omnivector@PAVomniInitialiser@omni@@@@AAEXXZ
?deallocate@?$omnivector@PAVomniObjRef@@@@AAEXXZ
?deallocate@?$omnivector@PAVomniObjTableEntry@@@@AAEXXZ
?deallocate@?$omnivector@PAVomniTrackedObject@omni@@@@AAEXXZ
?deallocate@?$omnivector@PAVorbServer@omni@@@@AAEXXZ
?deallocate@?$omnivector@PBD@@AAEXXZ
?deallocate@?$omnivector@UresolvePseudoEntry@omni@@@@AAEXXZ
?dec@omni_refcount@@QAEHXZ
?declareArrayLength@cdrStream@@UAEXW4alignment_t@omni@@I@Z
?declareArrayLength@cdrValueChunkStream@@UAEXW4alignment_t@omni@@I@Z
?decodeIOPprofile@omniIOR@@QAEXABUProfileBody@IIOP@@@Z
?decodeIOR@omniInterceptorP@omni@@2PAUelmT@12@A
?decrRefCount@BiDirServerRope@omni@@UAEXXZ
?decrRefCount@SocketCollection@omni@@QAEXXZ
?decrRefCount@giopConnection@omni@@QAEH_N@Z
?decrRefCount@giopRope@omni@@UAEXXZ
?decrRefCount@omniOrbBOA@omni@@UAEXXZ
?decrRefCount@omniOrbPOA@omni@@UAEXXZ
?deleteBuffer@giopStream_Buffer@omni@@SAXPAU12@@Z
?deletePending@giopStrand@omni@@QAE_NXZ
?deleteStrandAndConnection@giopStrand@omni@@QAEX_N@Z
?deq@omniTaskLink@@QAEXXZ
?destroy@Policy@CORBA@@UAEXXZ
?destroy@_objref_BindingIterator@CosNaming@@QAEXXZ
?destroy@_objref_NamingContext@CosNaming@@QAEXXZ
?destroy@omniOrbBOA@omni@@UAEXXZ
?destroy@omniOrbORB@@UAEXXZ
?destroy@omniOrbPOA@omni@@UAEX_N0@Z
?detach@omni_ObjRef_initialiser@omni@@UAEXXZ
?detach@omni_cdrStream_initialiser@omni@@UAEXXZ
?detach@omni_codeSet_initialiser@omni@@UAEXXZ
?detach@omni_corbaOrb_initialiser@omni@@UAEXXZ
?detach@omni_dynamiclib_initialiser@omni@@UAEXXZ
?detach@omni_giopEndpoint_initialiser@omni@@UAEXXZ
?detach@omni_giopImpl10_initialiser@omni@@UAEXXZ
?detach@omni_giopImpl11_initialiser@omni@@UAEXXZ
?detach@omni_giopImpl12_initialiser@omni@@UAEXXZ
?detach@omni_giopRope_initialiser@omni@@UAEXXZ
?detach@omni_giopStrand_initialiser@omni@@UAEXXZ
?detach@omni_giopStreamImpl_initialiser@omni@@UAEXXZ
?detach@omni_giopbidir_initialiser@omni@@UAEXXZ
?detach@omni_giopserver_initialiser@omni@@UAEXXZ
?detach@omni_hooked_initialiser@omni@@UAEXXZ
?detach@omni_initRefs_initialiser@omni@@UAEXXZ
?detach@omni_interceptor_initialiser@omni@@UAEXXZ
?detach@omni_invoker_initialiser@omni@@UAEXXZ
?detach@omni_ior_initialiser@omni@@UAEXXZ
?detach@omni_objadpt_initialiser@omni@@UAEXXZ
?detach@omni_omniCurrent_initialiser@omni@@UAEXXZ
?detach@omni_omniIOR_initialiser@omni@@UAEXXZ
?detach@omni_omniInternal_initialiser@omni@@UAEXXZ
?detach@omni_omniTransport_initialiser@omni@@UAEXXZ
?detach@omni_orbOptions_initialiser@omni@@UAEXXZ
?detach@omni_poa_initialiser@omni@@UAEXXZ
?detach@omni_transportRules_initialiser@omni@@UAEXXZ
?detach@omni_uri_initialiser@omni@@UAEXXZ
?detached_object@omniObjAdapter@omni@@QAEXXZ
?die@omniServantActivatorTaskQueue@omni@@QAEXXZ
?diiThrowsSysExceptions@orbParameters@omni@@3_NA
?directReceiveCutOff@giopStream@omni@@2KA
?directSendCutOff@giopStream@omni@@2KA
?discard_requests@omniOrbPOAManager@omni@@UAEX_N@Z
?disconnect@giopRope@omni@@UAEXXZ
?disconnect@omniIdentity@@UAEXXZ
?disconnect@omniRemoteIdentity@@UAEXXZ
?dispatch@omniInProcessIdentity@@UAEXAAVomniCallDescriptor@@@Z
?dispatch@omniLocalIdentity@@QAEXAAVomniCallHandle@@@Z
?dispatch@omniLocalIdentity@@UAEXAAVomniCallDescriptor@@@Z
?dispatch@omniOrbBOA@omni@@UAEXAAVomniCallDescriptor@@PAVomniLocalIdentity@@@Z
?dispatch@omniOrbBOA@omni@@UAEXAAVomniCallHandle@@PAVomniLocalIdentity@@@Z
?dispatch@omniOrbBOA@omni@@UAEXAAVomniCallHandle@@PBEH@Z
?dispatch@omniOrbPOA@omni@@UAEXAAVomniCallDescriptor@@PAVomniLocalIdentity@@@Z
?dispatch@omniOrbPOA@omni@@UAEXAAVomniCallHandle@@PAVomniLocalIdentity@@@Z
?dispatch@omniOrbPOA@omni@@UAEXAAVomniCallHandle@@PBEH@Z
?dispatch@omniRemoteIdentity@@UAEXAAVomniCallDescriptor@@@Z
?dispatch@omniShutdownIdentity@@UAEXAAVomniCallDescriptor@@@Z
?dispatch_to_ds@omniOrbPOA@omni@@AAEXAAVomniCallHandle@@PBEH@Z
?dispatch_to_sa@omniOrbPOA@omni@@AAEXAAVomniCallHandle@@PBEH@Z
?dispatch_to_sl@omniOrbPOA@omni@@AAEXAAVomniCallHandle@@PBEH@Z
?dispatcher@GIOP_S@omni@@QAE_NXZ
?dispose@omniOrbBOA@omni@@QAEXPAVomniIdentity@@@Z
?dispose@omniOrbBOA@omni@@UAEXPAVObject@CORBA@@@Z
?doLocalCall@omniCallDescriptor@@QAEXPAVomniServant@@@Z
?do_destroy@omniOrbPOA@omni@@QAEX_N@Z
?do_logs@omniORB@@YAXPBD@Z
?do_shutdown@omniOrbORB@@AAEX_N@Z
?doit@omniEtherealiser@@UAEXXZ
?downcast@GIOP_C@omni@@SAPAV12@PAVcdrStream@@@Z
?downcast@GIOP_S@omni@@SAPAV12@PAVcdrStream@@@Z
?downcast@giopStream@omni@@SAPAV12@PAVcdrStream@@@Z
?downcast@omniInProcessIdentity@@SAPAV1@PAVomniIdentity@@@Z
?downcast@omniLocalIdentity@@SAPAV1@PAVomniIdentity@@@Z
?downcast@omniObjTableEntry@@SAPAV1@PAVomniIdentity@@@Z
?downcast@omniRemoteIdentity@@SAPAV1@PAVomniIdentity@@@Z
?drop@HolderC@omniCodeSetUtil@omni@@QAEXXZ
?drop@HolderU@omniCodeSetUtil@omni@@QAEXXZ
?drop@HolderW@omniCodeSetUtil@omni@@QAEXXZ
?dump@DefaultInitRefHandler@omni@@UAEXAAVStringSeq@CORBA@@@Z
?dump@InitRefHandler@omni@@UAEXAAVStringSeq@CORBA@@@Z
?dump@abortOnInternalErrorHandler@@UAEXAAVStringSeq@CORBA@@@Z
?dump@abortOnNativeExceptionHandler@@UAEXAAVStringSeq@CORBA@@@Z
?dump@acceptBiDirectionalGIOPHandler@omni@@UAEXAAVStringSeq@CORBA@@@Z
?dump@acceptMisalignedTcIndirectionsHandler@omni@@UAEXAAVStringSeq@CORBA@@@Z
?dump@bootstrapAgentHostnameHandler@omni@@UAEXAAVStringSeq@CORBA@@@Z
?dump@bootstrapAgentPortHandler@omni@@UAEXAAVStringSeq@CORBA@@@Z
?dump@clientCallTimeOutPeriodHandler@omni@@UAEXAAVStringSeq@CORBA@@@Z
?dump@clientConnectTimeOutPeriodHandler@omni@@UAEXAAVStringSeq@CORBA@@@Z
?dump@clientTransportRuleHandler@omni@@UAEXAAVStringSeq@CORBA@@@Z
?dump@configFileHandler@omni@@UAEXAAVStringSeq@CORBA@@@Z
?dump@connectionWatchImmediateHandler@omni@@UAEXAAVStringSeq@CORBA@@@Z
?dump@connectionWatchPeriodHandler@omni@@UAEXAAVStringSeq@CORBA@@@Z
?dump@copyValuesInLocalCallsHandler@omni@@UAEXAAVStringSeq@CORBA@@@Z
?dump@diiThrowsSysExceptionsHandler@omni@@UAEXAAVStringSeq@CORBA@@@Z
?dump@dumpConfigurationHandler@omni@@UAEXAAVStringSeq@CORBA@@@Z
?dump@endpointHandler@omni@@UAEXAAVStringSeq@CORBA@@@Z
?dump@endpointNoListenHandler@omni@@UAEXAAVStringSeq@CORBA@@@Z
?dump@endpointNoPublishHandler@omni@@UAEXAAVStringSeq@CORBA@@@Z
?dump@endpointPublishAllIFsHandler@omni@@UAEXAAVStringSeq@CORBA@@@Z
?dump@endpointPublishHandler@omni@@UAEXAAVStringSeq@CORBA@@@Z
?dump@giopMaxMsgSizeHandler@omni@@UAEXAAVStringSeq@CORBA@@@Z
?dump@giopTargetAddressModeHandler@omni@@UAEXAAVStringSeq@CORBA@@@Z
?dump@helpHandler@omni@@UAEXAAVStringSeq@CORBA@@@Z
?dump@idHandler@omni@@UAEXAAVStringSeq@CORBA@@@Z
?dump@idleThreadTimeoutHandler@omni@@UAEXAAVStringSeq@CORBA@@@Z
?dump@immediateRopeSwitchHandler@omni@@UAEXAAVStringSeq@CORBA@@@Z
?dump@inConScanPeriodHandler@omni@@UAEXAAVStringSeq@CORBA@@@Z
?dump@lcdModeHandler@omni@@UAEXAAVStringSeq@CORBA@@@Z
?dump@listenBacklogHandler@omni@@UAEXAAVStringSeq@CORBA@@@Z
?dump@maxClientThreadPoolSizeHandler@omni@@UAEXAAVStringSeq@CORBA@@@Z
?dump@maxGIOPConnectionPerServerHandler@omni@@UAEXAAVStringSeq@CORBA@@@Z
?dump@maxGIOPVersionHandler@omni@@UAEXAAVStringSeq@CORBA@@@Z
?dump@maxInterleavedCallsPerConnectionHandler@omni@@UAEXAAVStringSeq@CORBA@@@Z
?dump@maxServerThreadPerConnectionHandler@omni@@UAEXAAVStringSeq@CORBA@@@Z
?dump@maxServerThreadPoolSizeHandler@omni@@UAEXAAVStringSeq@CORBA@@@Z
?dump@maxSocketRecvHandler@omni@@UAEXAAVStringSeq@CORBA@@@Z
?dump@maxSocketSendHandler@omni@@UAEXAAVStringSeq@CORBA@@@Z
?dump@nativeCharCodeSetHandler@@UAEXAAVStringSeq@CORBA@@@Z
?dump@nativeWCharCodeSetHandler@@UAEXAAVStringSeq@CORBA@@@Z
?dump@objectTableSizeHandler@@UAEXAAVStringSeq@CORBA@@@Z
?dump@offerBiDirectionalGIOPHandler@omni@@UAEXAAVStringSeq@CORBA@@@Z
?dump@oneCallPerConnectionHandler@omni@@UAEXAAVStringSeq@CORBA@@@Z
?dump@outConScanPeriodHandler@omni@@UAEXAAVStringSeq@CORBA@@@Z
?dump@poaHoldRequestTimeoutHandler@omni@@UAEXAAVStringSeq@CORBA@@@Z
?dump@poaUniquePersistentSystemIdsHandler@omni@@UAEXAAVStringSeq@CORBA@@@Z
?dump@principalHandler@omni@@UAEXAAVStringSeq@CORBA@@@Z
?dump@resetTimeOutOnRetriesHandler@omni@@UAEXAAVStringSeq@CORBA@@@Z
?dump@scanGranularityHandler@omni@@UAEXAAVStringSeq@CORBA@@@Z
?dump@serverCallTimeOutPeriodHandler@omni@@UAEXAAVStringSeq@CORBA@@@Z
?dump@serverTransportRuleHandler@omni@@UAEXAAVStringSeq@CORBA@@@Z
?dump@socketSendBufferHandler@omni@@UAEXAAVStringSeq@CORBA@@@Z
?dump@strictIIOPHandler@omni@@UAEXAAVStringSeq@CORBA@@@Z
?dump@supportBootstrapAgentHandler@omni@@UAEXAAVStringSeq@CORBA@@@Z
?dump@supportCurrentHandler@@UAEXAAVStringSeq@CORBA@@@Z
?dump@supportPerThreadTimeOutHandler@omni@@UAEXAAVStringSeq@CORBA@@@Z
?dump@tcAliasExpandHandler@omni@@UAEXAAVStringSeq@CORBA@@@Z
?dump@threadPerConnectionLowerLimitHandler@omni@@UAEXAAVStringSeq@CORBA@@@Z
?dump@threadPerConnectionPolicyHandler@omni@@UAEXAAVStringSeq@CORBA@@@Z
?dump@threadPerConnectionUpperLimitHandler@omni@@UAEXAAVStringSeq@CORBA@@@Z
?dump@threadPoolWatchConnectionHandler@omni@@UAEXAAVStringSeq@CORBA@@@Z
?dump@throwTransientOnTimeOutHandler@@UAEXAAVStringSeq@CORBA@@@Z
?dump@traceExceptionsHandler@@UAEXAAVStringSeq@CORBA@@@Z
?dump@traceFileHandler@@UAEXAAVStringSeq@CORBA@@@Z
?dump@traceInvocationReturnsHandler@@UAEXAAVStringSeq@CORBA@@@Z
?dump@traceInvocationsHandler@@UAEXAAVStringSeq@CORBA@@@Z
?dump@traceLevelHandler@@UAEXAAVStringSeq@CORBA@@@Z
?dump@traceLockingHandler@@UAEXAAVStringSeq@CORBA@@@Z
?dump@traceThreadIdHandler@@UAEXAAVStringSeq@CORBA@@@Z
?dump@traceTimeHandler@@UAEXAAVStringSeq@CORBA@@@Z
?dump@unixTransportDirectoryHandler@omni@@UAEXAAVStringSeq@CORBA@@@Z
?dump@unixTransportPermissionHandler@omni@@UAEXAAVStringSeq@CORBA@@@Z
?dump@useTypeCodeIndirectionsHandler@omni@@UAEXAAVStringSeq@CORBA@@@Z
?dump@validateUTF8Handler@omni@@UAEXAAVStringSeq@CORBA@@@Z
?dump@verifyObjectExistsAndTypeHandler@omni@@UAEXAAVStringSeq@CORBA@@@Z
?dumpConfiguration@orbParameters@omni@@3_NA
?dumpCurrentSet@orbOptions@omni@@QBEPAVStringSeq@CORBA@@XZ
?dumpRecord@InitRefHandler@omni@@QAEXAAUserviceRecord@2@AAVStringSeq@CORBA@@@Z
?dumpRule@transportRules@omni@@QAEPADK@Z
?dumpSpecified@orbOptions@omni@@QBEPAVStringSeq@CORBA@@XZ
?dumpbuf@giopStream@omni@@SAXPAEI@Z
?dup@_CORBA_String_helper@@SAPADPBD@Z
?dup@_CORBA_WString_helper@@SAPA_WPB_W@Z
?duplicate@BindingIterator_Helper@CosNaming@@SAXPAV_objref_BindingIterator@2@@Z
?duplicate@CORBA_InitialReferences_Helper@@SAXPAV_objref_CORBA_InitialReferences@@@Z
?duplicate@LocalObject_Helper@CORBA@@SAXPAVLocalObject@2@@Z
?duplicate@NamingContextExt_Helper@CosNaming@@SAXPAV_objref_NamingContextExt@2@@Z
?duplicate@NamingContext_Helper@CosNaming@@SAXPAV_objref_NamingContext@2@@Z
?duplicate@Object_Helper@CORBA@@SAXPAVObject@2@@Z
?duplicate@POA_Helper@PortableServer@@SAXPAVPOA@2@@Z
?duplicate@ServantActivator_Helper@PortableServer@@SAXPAVServantActivator@2@@Z
?duplicate@ServantLocator_Helper@PortableServer@@SAXPAVServantLocator@2@@Z
?duplicate@ServantManager_Helper@PortableServer@@SAXPAVServantManager@2@@Z
?duplicate@giopAddress@omni@@UBEPAV12@PBD@Z
?duplicate@omniIOR@@QAEPAV1@XZ
?duplicate@tcpAddress@omni@@UBEPAVgiopAddress@2@PBD@Z
?duplicate@tcpAddress@omni@@UBEPAVgiopAddress@2@XZ
?duplicateNoLock@omniIOR@@QAEPAV1@XZ
?duplicateObjRef@omni@@YAXPAVomniObjRef@@@Z
?empty16BitTable@omniCodeSet@omni@@2QBGB
?empty8BitTable@omniCodeSet@omni@@2QBEB
?empty@?$omnivector@K@@QBEHXZ
?empty@?$omnivector@PAUEndpointURI@Options@omniObjAdapter@omni@@@@QBEHXZ
?empty@?$omnivector@PAVgiopAddress@omni@@@@QBEHXZ
?empty@?$omnivector@PAVomniObjRef@@@@QBEHXZ
?empty@?$omnivector@PAVomniObjTableEntry@@@@QBEHXZ
?empty@?$omnivector@PAVorbServer@omni@@@@QBEHXZ
?empty@?$omnivector@PBD@@QBEHXZ
?empty_string@_CORBA_String_helper@@2QBDB
?empty_wstring@_CORBA_WString_helper@@2QB_WB
?encodeIOR@omniInterceptorP@omni@@2PAUelmT@12@A
?encodeMultiComponentProfile@IIOP@@SAXABV?$_CORBA_Unbounded_Sequence@UTaggedComponent@IOP@@@@AAUTaggedProfile@IOP@@@Z
?encodeProfile@IIOP@@SAXABUProfileBody@1@AAUTaggedProfile@IOP@@@Z
?end@?$omnivector@PAUEndpointURI@Options@omniObjAdapter@omni@@@@QAEPAPAUEndpointURI@Options@omniObjAdapter@omni@@XZ
?end@?$omnivector@PAUHandlerValuePair@orbOptions@omni@@@@QAEPAPAUHandlerValuePair@orbOptions@omni@@XZ
?end@?$omnivector@PAUHandlerValuePair@orbOptions@omni@@@@QBEPBQAUHandlerValuePair@orbOptions@omni@@XZ
?end@?$omnivector@PAURuleActionPair@transportRules@omni@@@@QAEPAPAURuleActionPair@transportRules@omni@@XZ
?end@?$omnivector@PAVHandler@orbOptions@omni@@@@QAEPAPAVHandler@orbOptions@omni@@XZ
?end@?$omnivector@PAVHandler@orbOptions@omni@@@@QBEPBQAVHandler@orbOptions@omni@@XZ
?end@?$omnivector@PAVObject@CORBA@@@@QAEPAPAVObject@CORBA@@XZ
?end@?$omnivector@PAVRuleType@transportRules@omni@@@@QAEPAPAVRuleType@transportRules@omni@@XZ
?end@?$omnivector@PAVURIHandler@omniURI@omni@@@@QAEPAPAVURIHandler@omniURI@omni@@XZ
?end@?$omnivector@PAVgiopActiveCollection@omni@@@@QAEPAPAVgiopActiveCollection@omni@@XZ
?end@?$omnivector@PAVgiopAddress@omni@@@@QAEPAPAVgiopAddress@omni@@XZ
?end@?$omnivector@PAVgiopAddress@omni@@@@QBEPBQAVgiopAddress@omni@@XZ
?end@?$omnivector@PAVgiopEndpoint@omni@@@@QAEPAPAVgiopEndpoint@omni@@XZ
?end@?$omnivector@PAVgiopStrand@omni@@@@QAEPAPAVgiopStrand@omni@@XZ
?end@?$omnivector@PAVomniInitialiser@omni@@@@QAEPAPAVomniInitialiser@omni@@XZ
?end@?$omnivector@PAVomniObjRef@@@@QAEPAPAVomniObjRef@@XZ
?end@?$omnivector@PAVomniObjTableEntry@@@@QAEPAPAVomniObjTableEntry@@XZ
?end@?$omnivector@PAVomniObjTableEntry@@@@QBEPBQAVomniObjTableEntry@@XZ
?end@?$omnivector@PAVomniTrackedObject@omni@@@@QAEPAPAVomniTrackedObject@omni@@XZ
?end@?$omnivector@PAVorbServer@omni@@@@QAEPAPAVorbServer@omni@@XZ
?end@?$omnivector@PBD@@QAEPAPBDXZ
?end@?$omnivector@PBD@@QBEPBQBDXZ
?end@?$omnivector@UresolvePseudoEntry@omni@@@@QAEPAUresolvePseudoEntry@omni@@XZ
?endInputValue@cdrValueChunkStream@@AAEXXZ
?endOutputChunk@cdrValueChunkStream@@AAEXXZ
?endOutputValue@cdrValueChunkStream@@QAEXXZ
?endpoint@giopRendezvouser@omni@@QBEPAVgiopEndpoint@2@XZ
?endpointInList@omniObjAdapter@omni@@SA_NPBDABV_CORBA_Unbounded_Sequence_String@@@Z
?enq@omniTaskLink@@QAEXAAV1@@Z
?ensureNotInFlux@giopServer@omni@@AAEXXZ
?ensureSaneHeader@giopStream@omni@@AAEKPBDKPAUgiopStream_Buffer@2@K@Z
?enterAdapter@omniObjAdapter@omni@@QAEXXZ
?erase@?$omnivector@PAUEndpointURI@Options@omniObjAdapter@omni@@@@QAEPAPAUEndpointURI@Options@omniObjAdapter@omni@@PAPAU2345@0@Z
?erase@?$omnivector@PAUHandlerValuePair@orbOptions@omni@@@@QAEPAPAUHandlerValuePair@orbOptions@omni@@PAPAU234@0@Z
?erase@?$omnivector@PAURuleActionPair@transportRules@omni@@@@QAEPAPAURuleActionPair@transportRules@omni@@PAPAU234@0@Z
?erase@?$omnivector@PAVgiopActiveCollection@omni@@@@QAEPAPAVgiopActiveCollection@omni@@PAPAV23@@Z
?erase@?$omnivector@PAVgiopEndpoint@omni@@@@QAEPAPAVgiopEndpoint@omni@@PAPAV23@@Z
?erase@?$omnivector@PAVgiopStrand@omni@@@@QAEPAPAVgiopStrand@omni@@PAPAV23@@Z
?erase@?$omnivector@PAVomniObjRef@@@@QAEPAPAVomniObjRef@@PAPAV2@@Z
?erase@?$omnivector@PAVomniObjTableEntry@@@@QAEPAPAVomniObjTableEntry@@PAPAV2@@Z
?erase@?$omnivector@PAVorbServer@omni@@@@QAEPAPAVorbServer@omni@@PAPAV23@0@Z
?erase@?$omnivector@PBD@@QAEPAPBDPAPBD@Z
?errmsg@fatalException@omniORB@@QBEPBDXZ
?errorOnReceive@giopStream@omni@@AAEXHPBDKPAUgiopStream_Buffer@2@_N0@Z
?errorOnSend@giopStream@omni@@AAEXHPBDK_N0@Z
?etherealise_objects@omniOrbPOA@omni@@AAEXPAVomniObjTableEntry@@_NPAVServantActivator@PortableServer@@@Z
?etherealize@_objref_ServantActivator@PortableServer@@$4PPPPPPPM@A@AEXABVObjectId@2@PAVPOA@2@PAVServantBase@2@_N3@Z
?etherealize@_objref_ServantActivator@PortableServer@@UAEXABVObjectId@2@PAVPOA@2@PAVServantBase@2@_N3@Z
?execute@AsyncRequest@omni@@UAEXXZ
?execute@Scavenger@omni@@UAEXXZ
?execute@giopMonitor@omni@@UAEXXZ
?execute@giopRendezvouser@omni@@UAEXXZ
?execute@giopWorker@omni@@UAEXXZ
?execute@omniServantActivatorTaskQueue@omni@@UAEXXZ
?exitAdapter@omniObjAdapter@omni@@QAEXHH@Z
?expect_boolean_msg@orbOptions@omni@@2PBDB
?expect_greater_than_zero_ulong_msg@orbOptions@omni@@2PBDB
?expect_ulong_msg@orbOptions@omni@@2PBDB
?extraInfo@IORInfo@omniIOR@@QAEAAV?$_CORBA_PseudoValue_Sequence@PAVIORExtraInfo@omniIOR@@@@XZ
?extract@BufferC@omniCodeSetUtil@omni@@QAEPADXZ
?extract@BufferU@omniCodeSetUtil@omni@@QAEPA_WXZ
?extractHostPort@omniURI@omni@@SAPADPBDAAGPAPBD@Z
?extractHostPortRange@omniURI@omni@@SAPADPBDAAG1@Z
?extractInitOptions@orbOptions@omni@@QAEXAAHPAPAD@Z
?fastMarshalChar@TCS_C@omniCodeSet@omni@@UAE_NAAVcdrStream@@PAVNCS_C@23@E@Z
?fastMarshalChar@TCS_C_8bit@omniCodeSet@omni@@UAE_NAAVcdrStream@@PAVNCS_C@23@E@Z
?fastMarshalChar@TCS_C_UTF_8@omni@@UAE_NAAVcdrStream@@PAVNCS_C@omniCodeSet@2@E@Z
?fastMarshalString@TCS_C@omniCodeSet@omni@@UAE_NAAVcdrStream@@PAVNCS_C@23@KKPBD@Z
?fastMarshalString@TCS_C_8bit@omniCodeSet@omni@@UAE_NAAVcdrStream@@PAVNCS_C@23@KKPBD@Z
?fastMarshalString@TCS_C_UTF_8@omni@@UAE_NAAVcdrStream@@PAVNCS_C@omniCodeSet@2@KKPBD@Z
?fastMarshalWChar@TCS_W@omniCodeSet@omni@@UAE_NAAVcdrStream@@PAVNCS_W@23@_W@Z
?fastMarshalWChar@TCS_W_16bit@omniCodeSet@omni@@UAE_NAAVcdrStream@@PAVNCS_W@23@_W@Z
?fastMarshalWChar@TCS_W_UTF_16@omni@@UAE_NAAVcdrStream@@PAVNCS_W@omniCodeSet@2@_W@Z
?fastMarshalWString@TCS_W@omniCodeSet@omni@@UAE_NAAVcdrStream@@PAVNCS_W@23@KKPB_W@Z
?fastMarshalWString@TCS_W_16bit@omniCodeSet@omni@@UAE_NAAVcdrStream@@PAVNCS_W@23@KKPB_W@Z
?fastMarshalWString@TCS_W_UTF_16@omni@@UAE_NAAVcdrStream@@PAVNCS_W@omniCodeSet@2@KKPB_W@Z
?fastUnmarshalChar@TCS_C@omniCodeSet@omni@@UAE_NAAVcdrStream@@PAVNCS_C@23@AAE@Z
?fastUnmarshalChar@TCS_C_8bit@omniCodeSet@omni@@UAE_NAAVcdrStream@@PAVNCS_C@23@AAE@Z
?fastUnmarshalChar@TCS_C_UTF_8@omni@@UAE_NAAVcdrStream@@PAVNCS_C@omniCodeSet@2@AAE@Z
?fastUnmarshalString@TCS_C@omniCodeSet@omni@@UAE_NAAVcdrStream@@PAVNCS_C@23@KAAKAAPAD@Z
?fastUnmarshalString@TCS_C_8bit@omniCodeSet@omni@@UAE_NAAVcdrStream@@PAVNCS_C@23@KAAKAAPAD@Z
?fastUnmarshalString@TCS_C_UTF_8@omni@@UAE_NAAVcdrStream@@PAVNCS_C@omniCodeSet@2@KAAKAAPAD@Z
?fastUnmarshalWChar@TCS_W@omniCodeSet@omni@@UAE_NAAVcdrStream@@PAVNCS_W@23@AA_W@Z
?fastUnmarshalWChar@TCS_W_16bit@omniCodeSet@omni@@UAE_NAAVcdrStream@@PAVNCS_W@23@AA_W@Z
?fastUnmarshalWChar@TCS_W_UTF_16@omni@@UAE_NAAVcdrStream@@PAVNCS_W@omniCodeSet@2@AA_W@Z
?fastUnmarshalWString@TCS_W@omniCodeSet@omni@@UAE_NAAVcdrStream@@PAVNCS_W@23@KAAKAAPA_W@Z
?fastUnmarshalWString@TCS_W_16bit@omniCodeSet@omni@@UAE_NAAVcdrStream@@PAVNCS_W@23@KAAKAAPA_W@Z
?fastUnmarshalWString@TCS_W_UTF_16@omni@@UAE_NAAVcdrStream@@PAVNCS_W@omniCodeSet@2@KAAKAAPA_W@Z
?fetchAndUnmarshalDouble@cdrStream@@AAENXZ
?fetchAndUnmarshalLong@cdrStream@@AAEJXZ
?fetchAndUnmarshalLongLong@cdrStream@@AAE_JXZ
?fetchAndUnmarshalOctet@cdrStream@@AAEEXZ
?fetchAndUnmarshalShort@cdrStream@@AAEFXZ
?fetchAndUnmarshalULong@cdrStream@@AAEKXZ
?fetchAndUnmarshalULongLong@cdrStream@@AAE_KXZ
?fetchAndUnmarshalUShort@cdrStream@@AAEGXZ
?fetchInputData@cdrCountingStream@@UAEXW4alignment_t@omni@@I@Z
?fetchInputData@cdrMemoryStream@@UAEXW4alignment_t@omni@@I@Z
?fetchInputData@cdrStreamAdapter@@MAEXW4alignment_t@omni@@I@Z
?fetchInputData@cdrValueChunkStream@@UAEXW4alignment_t@omni@@I@Z
?fetchInputData@giopStream@omni@@UAEXW4alignment_t@2@I@Z
?file@fatalException@omniORB@@QBEPBDXZ
?filename@UiopObjAddr@corbalocURIHandler@omni@@QAEPBDXZ
?filterAndSortAddressList@BiDirClientRope@omni@@MAEXXZ
?filterAndSortAddressList@giopRope@omni@@MAEXXZ
?find@omniExHandlers_iterator@@QAEPAVomniExHandlers@@PAVomniObjRef@@@Z
?findHandler@orbOptions@omni@@AAEPAVHandler@12@PBD@Z
?find_POA@omniOrbPOA@omni@@UAEPAVPOA@PortableServer@@PBD_N@Z
?find_child@omniOrbPOA@omni@@AAEPAV12@PBD0@Z
?find_child@omniOrbPOA@omni@@AAEPAV12@PBD@Z
?find_or_create@omniExHandlers_iterator@@QAEPAVomniExHandlers@@PAVomniObjRef@@@Z
?finish_adapteractivating_child@omniOrbPOA@omni@@AAEXPBD@Z
?firstAddressUsed@omniCallDescriptor@@QAEPBVgiopAddress@omni@@XZ
?firstAddressUsed@omniCallDescriptor@@QAEXPBVgiopAddress@omni@@@Z
?fixed_digits@Fixed@CORBA@@QBEGXZ
?fixed_scale@Fixed@CORBA@@QBEGXZ
?flags@IORInfo@omniIOR@@QBEKXZ
?flush@logger@omniORB@@QAEXXZ
?freeAddrInfo@LibcWrapper@omni@@SAXPAVAddrInfo@12@@Z
?freeC@omniCodeSetUtil@omni@@SAXPAD@Z
?freeU@omniCodeSetUtil@omni@@SAXPA_W@Z
?freeW@omniCodeSetUtil@omni@@SAXPA_W@Z
?freebuf@?$_CORBA_Sequence@E@@SAXPAE@Z
?freebuf@?$_CORBA_Sequence@K@@SAXPAK@Z
?freebuf@?$_CORBA_Sequence@UAddress@IIOP@@@@SAXPAUAddress@IIOP@@@Z
?freebuf@?$_CORBA_Sequence@UBinding@CosNaming@@@@SAXPAUBinding@CosNaming@@@Z
?freebuf@?$_CORBA_Sequence@UExceptionDescription@CORBA@@@@SAXPAUExceptionDescription@CORBA@@@Z
?freebuf@?$_CORBA_Sequence@UNameComponent@CosNaming@@@@SAXPAUNameComponent@CosNaming@@@Z
?freebuf@?$_CORBA_Sequence@UParameterDescription@CORBA@@@@SAXPAUParameterDescription@CORBA@@@Z
?freebuf@?$_CORBA_Sequence@UServiceContext@IOP@@@@SAXPAUServiceContext@IOP@@@Z
?freebuf@?$_CORBA_Sequence@UStructMember@CORBA@@@@SAXPAUStructMember@CORBA@@@Z
?freebuf@?$_CORBA_Sequence@UTaggedComponent@IOP@@@@SAXPAUTaggedComponent@IOP@@@Z
?freebuf@?$_CORBA_Sequence@UTaggedProfile@IOP@@@@SAXPAUTaggedProfile@IOP@@@Z
?freebuf@?$_CORBA_Sequence@V_CORBA_Unbounded_Sequence_Octet@@@@SAXPAV_CORBA_Unbounded_Sequence_Octet@@@Z
?freebuf@?$_CORBA_Sequence_ObjRef@VPOA@PortableServer@@V?$_CORBA_ObjRef_Element@VPOA@PortableServer@@VPOA_Helper@2@@@VPOA_Helper@2@@@SAXPAPAVPOA@PortableServer@@@Z
?freebuf@_CORBA_Sequence_String@@SAXPAPAD@Z
?freebuf@_CORBA_Sequence_WString@@SAXPAPA_W@Z
?fromSslAddress@giopAddress@omni@@SAPAV12@ABUAddress@IIOP@@@Z
?fromTcpAddress@giopAddress@omni@@SAPAV12@ABUAddress@IIOP@@@Z
?fromU@NCS_C_8bit@omniCodeSet@omni@@QBEPAPBEXZ
?gainRef@omniInProcessIdentity@@UAEXPAVomniObjRef@@@Z
?gainRef@omniLocalIdentity@@UAEXPAVomniObjRef@@@Z
?gainRef@omniObjTableEntry@@UAEXPAVomniObjRef@@@Z
?gainRef@omniRemoteIdentity@@UAEXPAVomniObjRef@@@Z
?gainRef@omniShutdownIdentity@@UAEXPAVomniObjRef@@@Z
?gain_poa@omniOrbPOAManager@omni@@QAEXPAVomniOrbPOA@2@@Z
?gatekeeperCheck@giopConnection@omni@@QAE_NPAVgiopStrand@2@@Z
?gatekeeperCheckSpecific@giopConnection@omni@@UAE_NPAVgiopStrand@2@@Z
?generateNewKey@omniORB@@YAXAAUomniOrbBoaKey@@@Z
?get@CORBA_InitialReferences_i@omni@@$4PPPPPPPM@A@AEPAVObject@CORBA@@PBD@Z
?get@CORBA_InitialReferences_i@omni@@UAEPAVObject@CORBA@@PBD@Z
?get@_objref_CORBA_InitialReferences@@QAEPAVObject@CORBA@@PBD@Z
?get@omniCurrent@@SAPAV1@PAVomni_thread@@@Z
?get@omniCurrent@@SAPAV1@XZ
?getAdapter@omniObjAdapter@omni@@SAPAV12@PBEH@Z
?getAdapter@omniOrbPOA@omni@@SAPAV12@PBEH@Z
?getAddrInfo@LibcWrapper@omni@@SAPAVAddrInfo@12@PBDG@Z
?getBOA@BOA@CORBA@@SAPAV12@XZ
?getBoolean@orbOptions@omni@@SA_NPBDAA_N@Z
?getConfigFileName@orbOptions@omni@@QAEPBDHPAPADPBD@Z
?getConnection@tcpActiveConnection@omni@@UAEAAVgiopConnection@2@XZ
?getDeadline@giopStream@omni@@QBEABUomni_time_t@@XZ
?getDeadline@omniCallDescriptor@@QBEABUomni_time_t@@XZ
?getEPs@EndPointPublishPolicy@omniPolicy@@QAEPAVIORPublish@omni@@XZ
?getHandler@omniAsyncCallDescriptor@@UAEPAVomniObjRef@@XZ
?getIORInfo@omniIOR@@QBEPAVIORInfo@1@XZ
?getInputData@giopImpl10@omni@@SAXPAVgiopStream@2@W4alignment_t@2@I@Z
?getInputData@giopImpl11@omni@@SAXPAVgiopStream@2@W4alignment_t@2@I@Z
?getInputData@giopImpl12@omni@@SAXPAVgiopStream@2@W4alignment_t@2@I@Z
?getInterceptors@omniORB@@YAPAVomniInterceptors@omni@@XZ
?getInterfaceAddress@giopTransportImpl@omni@@SAPBV?$omnivector@PBD@@PBD@Z
?getInterfaceAddress@tcpTransportImpl@omni@@UAEPBV?$omnivector@PBD@@XZ
?getLength@cdrValueChunkStream@@AAEKXZ
?getLogFilename@omniORB@@YAPBDXZ
?getLong@orbOptions@omni@@SA_NPBDAAJ@Z
?getNCS_C@omniCodeSet@omni@@SAPAVNCS_C@12@K@Z
?getNCS_C@omniCodeSet@omni@@SAPAVNCS_C@12@PBD@Z
?getNCS_W@omniCodeSet@omni@@SAPAVNCS_W@12@K@Z
?getNCS_W@omniCodeSet@omni@@SAPAVNCS_W@12@PBD@Z
?getOctetStream@cdrEncapsulationStream@@QAEXAAPAEAAK1@Z
?getReserveSpace@giopImpl10@omni@@SAXPAVgiopStream@2@W4alignment_t@2@I@Z
?getReserveSpace@giopImpl11@omni@@SAXPAVgiopStream@2@W4alignment_t@2@I@Z
?getReserveSpace@giopImpl12@omni@@SAXPAVgiopStream@2@W4alignment_t@2@I@Z
?getStream@GIOP_C@omni@@UAEAAVcdrStream@@XZ
?getStream@GIOP_S@omni@@UAEAAVcdrStream@@XZ
?getTCS_C@omniCodeSet@omni@@SAPAVTCS_C@12@KUVersion@GIOP@@@Z
?getTCS_C@omniCodeSet@omni@@SAPAVTCS_C@12@PBDUVersion@GIOP@@@Z
?getTCS_W@omniCodeSet@omni@@SAPAVTCS_W@12@KUVersion@GIOP@@@Z
?getTCS_W@omniCodeSet@omni@@SAPAVTCS_W@12@PBDUVersion@GIOP@@@Z
?getTraceLevel@orbOptions@omni@@QAEXHPAPAD@Z
?getULong@orbOptions@omni@@SA_NPBDAAK@Z
?getWorker@omniAsyncInvoker@@AAEPAVomniAsyncWorker@@PAVomniAsyncPool@@@Z
?get_POA@omniOrbPOACurrent@omni@@UAEPAVPOA@PortableServer@@XZ
?get_buffer@?$_CORBA_PseudoValue_Sequence@UserviceRecord@omni@@@@QAEPAUserviceRecord@omni@@_N@Z
?get_buffer@?$_CORBA_Sequence@E@@QAEPAE_N@Z
?get_buffer@?$_CORBA_Sequence@E@@QBEPBEXZ
?get_buffer@?$_CORBA_Sequence@UTaggedProfile@IOP@@@@QBEPBUTaggedProfile@IOP@@XZ
?get_buffer@_CORBA_Sequence_String@@QAEPAPAD_N@Z
?get_id@omniOrbBOA@omni@@UAEPAVReferenceData@CORBA@@PAVObject@4@@Z
?get_obj@LOCATION_FORWARD@omniORB@@QBEPAVObject@CORBA@@XZ
?get_object_id@omniOrbPOACurrent@omni@@UAEPAVObjectId@PortableServer@@XZ
?get_octet_array@cdrCountingStream@@UAEXPAEHW4alignment_t@omni@@@Z
?get_octet_array@cdrMemoryStream@@UAEXPAEHW4alignment_t@omni@@@Z
?get_octet_array@cdrStreamAdapter@@MAEXPAEHW4alignment_t@omni@@@Z
?get_octet_array@cdrValueChunkStream@@UAEXPAEHW4alignment_t@omni@@@Z
?get_octet_array@giopStream@omni@@UAEXPAEHW4alignment_t@2@@Z
?get_principal@omniOrbBOA@omni@@UAEPAVPrincipal@CORBA@@PAVObject@4@PAVEnvironment@4@@Z
?get_real_is_equivalent@omniInProcessIdentity@@UBEP6A_NPBVomniIdentity@@0@ZXZ
?get_real_is_equivalent@omniLocalIdentity@@MBEP6A_NPBVomniIdentity@@0@ZXZ
?get_real_is_equivalent@omniRemoteIdentity@@UBEP6A_NPBVomniIdentity@@0@ZXZ
?get_real_is_equivalent@omniShutdownIdentity@@UBEP6A_NPBVomniIdentity@@0@ZXZ
?get_reference@omniOrbPOACurrent@omni@@UAEPAVObject@CORBA@@XZ
?get_servant@omniOrbPOA@omni@@UAEPAVServantBase@PortableServer@@XZ
?get_servant@omniOrbPOACurrent@omni@@UAEPAVServantBase@PortableServer@@XZ
?get_servant_manager@omniOrbPOA@omni@@UAEPAVServantManager@PortableServer@@XZ
?get_state@omniOrbPOAManager@omni@@UAE?AW4State@POAManager@PortableServer@@XZ
?get_time@omni_thread@@SAXAAUomni_time_t@@@Z
?get_time@omni_thread@@SAXAAUomni_time_t@@ABU2@@Z
?get_time@omni_thread@@SAXAAUomni_time_t@@K@Z
?giopMaxMsgSize@omniORB@@YAKXZ
?giopMaxMsgSize@orbParameters@omni@@3KA
?giopTargetAddressMode@orbParameters@omni@@3FA
?giopVersion@TCS_C@omniCodeSet@omni@@QBE?AUVersion@GIOP@@XZ
?giopVersion@TCS_W@omniCodeSet@omni@@QBE?AUVersion@GIOP@@XZ
?handle@omniAsyncWorker@@QAEXPAVomniTask@@@Z
?handleCancelRequest@GIOP_S@omni@@QAE_NXZ
?handleLocateRequest@GIOP_S@omni@@AAE_NXZ
?handleRequest@GIOP_S@omni@@AAE_NXZ
?hasAddress@giopRope@omni@@QAE_NPBVgiopAddress@2@@Z
?hash@omni@@YAKPBEH@Z
?hashsize@connectionState@giopServer@omni@@2KA
?haslocalCallFn@omniCallDescriptor@@QBE_NXZ
?hold_requests@omniOrbPOAManager@omni@@UAEX_N@Z
?hook@omniDynamicLib@omni@@2PAV12@A
?host@IiopObjAddr@corbalocURIHandler@omni@@QAEPBDXZ
?host@giopAddress@omni@@UBEPBDXZ
?host@tcpAddress@omni@@UBEPBDXZ
?id@Base@omniCodeSet@omni@@QBEKXZ
?id@omniOrbORB@@UAEPADXZ
?id@omniOrbPOA@omni@@UAEPAVOctetSeq@CORBA@@XZ
?id@omni_thread@@QAEHXZ
?id_to_reference@omniOrbPOA@omni@@UAEPAVObject@CORBA@@ABVObjectId@PortableServer@@@Z
?id_to_servant@omniOrbPOA@omni@@UAEPAVServantBase@PortableServer@@ABVObjectId@4@@Z
?identity_count@omniIdentity@@1HA
?idleIncomingBeats@giopStrand@omni@@2KA
?idleOutgoingBeats@giopStrand@omni@@2KA
?idle_scans@SocketCollection@omni@@2IA
?idle_timeout@omniAsyncInvoker@@2IA
?immediateRopeSwitch@orbParameters@omni@@3_NA
?impl@giopStream@omni@@QAEXPAVgiopStreamImpl@2@@Z
?impl@giopStream@omni@@QBEPAVgiopStreamImpl@2@XZ
?impl_is_ready@omniOrbBOA@omni@@UAEXPAVImplementationDef@CORBA@@_N@Z
?impl_shutdown@omniOrbBOA@omni@@UAEXXZ
?importFromEnv@orbOptions@omni@@QAEXXZ
?importFromFile@orbOptions@omni@@QAE_NPBD@Z
?importFromRegistry@orbOptions@omni@@QAE_NXZ
?in@?$_CORBA_ObjRef_Var@V_objref_NamingContext@CosNaming@@VNamingContext_Helper@2@@@QBEPAV_objref_NamingContext@CosNaming@@XZ
?in@AddrInfo_var@LibcWrapper@omni@@QBEPAVAddrInfo@23@XZ
?in@Name_var@CosNaming@@QBEABVName@2@XZ
?in@Object_var@CORBA@@QBEPAVObject@2@XZ
?in@_CORBA_String_var@@QBEPBDXZ
?inConScanPeriod@orbParameters@omni@@3KA
?inEnd@cdrStream@@IAEKXZ
?inMkr@cdrStream@@IAEKW4alignment_t@omni@@@Z
?inMkr@cdrStream@@IAEKXZ
?inThisAddressSpace@omniInProcessIdentity@@UAE_NXZ
?inThisAddressSpace@omniLocalIdentity@@UAE_NXZ
?inThisAddressSpace@omniRemoteIdentity@@UAE_NXZ
?inThisAddressSpace@omniShutdownIdentity@@UAE_NXZ
?inc@omni_refcount@@QAEHXZ
?incarnate@_objref_ServantActivator@PortableServer@@$4PPPPPPPM@A@AEPAVServantBase@2@ABVObjectId@2@PAVPOA@2@@Z
?incarnate@_objref_ServantActivator@PortableServer@@UAEPAVServantBase@2@ABVObjectId@2@PAVPOA@2@@Z
?incrRefCount@SocketCollection@omni@@QAEXXZ
?incrRefCount@giopConnection@omni@@QAEXXZ
?incrRefCount@giopRope@omni@@UAEXXZ
?incrRefCount@omniOrbBOA@omni@@UAEXXZ
?incrRefCount@omniOrbPOA@omni@@UAEXXZ
?incrRefCount_locked@omniOrbBOA@omni@@QAEXXZ
?init@omniCurrent@@SAXXZ
?initialise@GIOP_C@omni@@QAEXPBVomniIOR@@PBEHPAVomniCallDescriptor@@@Z
?initialise@Scavenger@omni@@SAXXZ
?initialise@giopTransportImpl@omni@@UAEXXZ
?initialise@omniObjAdapter@omni@@SAXXZ
?initialise@tcpTransportImpl@omni@@UAEXXZ
?initialiseCall@omniCallDescriptor@@UAEXAAVcdrStream@@@Z
?initialiseInput@cdrValueChunkStream@@QAEXXZ
?initialise_bootstrap_agent@omniInitialReferences@omni@@SAXPBDG@Z
?initialise_bootstrap_agentImpl@omniInitialReferences@omni@@SAXXZ
?inout@StringSeq_var@CORBA@@QAEAAVStringSeq@2@XZ
?inputBufferDataSize@giopStream@omni@@AAEKXZ
?inputBufferLast@giopStream@omni@@AAEKXZ
?inputBufferMsgSize@giopStream@omni@@AAEKXZ
?inputBufferStart@giopStream@omni@@AAEKXZ
?inputChunk@giopStream@omni@@AAEPAUgiopStream_Buffer@2@K@Z
?inputCopyChunk@giopStream@omni@@AAEXPAXK@Z
?inputExpectAnotherFragment@giopStream@omni@@AAEX_N@Z
?inputExpectAnotherFragment@giopStream@omni@@ABE_NXZ
?inputFragmentToCome@giopStream@omni@@AAEXK@Z
?inputFragmentToCome@giopStream@omni@@ABEKXZ
?inputFullyBuffered@giopStream@omni@@AAEX_N@Z
?inputFullyBuffered@giopStream@omni@@ABE_NXZ
?inputMatchedId@giopStream@omni@@AAEX_N@Z
?inputMatchedId@giopStream@omni@@ABE_NXZ
?inputMessage@giopStream@omni@@AAEPAUgiopStream_Buffer@2@XZ
?inputMessageBegin@giopImpl10@omni@@SAXPAVgiopStream@2@P6AX0@Z@Z
?inputMessageBegin@giopImpl11@omni@@SAXPAVgiopStream@2@P6AX0@Z@Z
?inputMessageBegin@giopImpl12@omni@@SAXPAVgiopStream@2@P6AX0@Z@Z
?inputMessageEnd@giopImpl10@omni@@SAXPAVgiopStream@2@_N@Z
?inputMessageEnd@giopImpl11@omni@@SAXPAVgiopStream@2@_N@Z
?inputMessageEnd@giopImpl12@omni@@SAXPAVgiopStream@2@_N@Z
?inputMessageSize@giopStream@omni@@AAEXK@Z
?inputMessageSize@giopStream@omni@@ABEKXZ
?inputNewFragment@giopImpl11@omni@@SAXPAVgiopStream@2@@Z
?inputNewFragment@giopImpl12@omni@@SAXPAVgiopStream@2@@Z
?inputNewServerMessage@giopImpl12@omni@@SAXPAVgiopStream@2@@Z
?inputQueueMessage@giopImpl12@omni@@SAXPAVgiopStream@2@PAUgiopStream_Buffer@2@@Z
?inputRaiseCommFailure@giopImpl10@omni@@SAXPAVgiopStream@2@PBD@Z
?inputRaiseCommFailure@giopImpl11@omni@@SAXPAVgiopStream@2@PBD@Z
?inputRaiseCommFailure@giopImpl12@omni@@SAXPAVgiopStream@2@PBD@Z
?inputRemaining@giopImpl10@omni@@SAIPAVgiopStream@2@@Z
?inputRemaining@giopImpl11@omni@@SAIPAVgiopStream@2@@Z
?inputRemaining@giopImpl12@omni@@SAIPAVgiopStream@2@@Z
?inputReplyBegin@giopImpl10@omni@@SA_NPAVgiopStream@2@P6AX0@Z@Z
?inputReplyBegin@giopImpl11@omni@@SA_NPAVgiopStream@2@P6AX0@Z@Z
?inputReplyBegin@giopImpl12@omni@@SAXPAVgiopStream@2@P6AX0@Z@Z
?inputSkipWholeMessage@giopImpl11@omni@@SAXPAVgiopStream@2@@Z
?inputSkipWholeMessage@giopImpl12@omni@@SAXPAVgiopStream@2@@Z
?inputTerminalProtocolError@giopImpl10@omni@@SAXPAVgiopStream@2@PBDH1@Z
?inputTerminalProtocolError@giopImpl11@omni@@SAXPAVgiopStream@2@PBDH1@Z
?inputTerminalProtocolError@giopImpl12@omni@@SAXPAVgiopStream@2@PBDH1@Z
?insert@BufferC@omniCodeSetUtil@omni@@QAEXE@Z
?insert@BufferU@omniCodeSetUtil@omni@@QAEX_W@Z
?insert@Link@giopServer@omni@@QAEXAAV123@@Z
?insert@RopeLink@omni@@QAEXAAV12@@Z
?insert@StrandList@omni@@QAEXAAV12@@Z
?insert@giopStreamList@omni@@QAEXAAV12@@Z
?insert@omniAsyncDedicated@@QAE_NPAVomniTask@@@Z
?insert@omniAsyncInvoker@@QAE_NPAVomniTask@@@Z
?insert@omniAsyncPool@@QAE_NPAVomniTask@@@Z
?insert@omniServantActivatorTaskQueue@omni@@QAEXPAVTask@12@@Z
?insertIntoOAObjList@omniObjTableEntry@@QAEXPAPAV1@@Z
?insertToAnyFn@AdapterAlreadyExists@POA@PortableServer@@2P6AXAAVAny@CORBA@@ABVException@5@@ZA
?insertToAnyFn@AdapterInactive@POA@PortableServer@@2P6AXAAVAny@CORBA@@ABVException@5@@ZA
?insertToAnyFn@AdapterInactive@POAManager@PortableServer@@2P6AXAAVAny@CORBA@@ABVException@5@@ZA
?insertToAnyFn@AdapterNonExistent@POA@PortableServer@@2P6AXAAVAny@CORBA@@ABVException@5@@ZA
?insertToAnyFn@AlreadyBound@NamingContext@CosNaming@@2P6AXAAVAny@CORBA@@ABVException@5@@ZA
?insertToAnyFn@BAD_CONTEXT@CORBA@@2P6AXAAVAny@2@ABVException@2@@ZA
?insertToAnyFn@BAD_INV_ORDER@CORBA@@2P6AXAAVAny@2@ABVException@2@@ZA
?insertToAnyFn@BAD_OPERATION@CORBA@@2P6AXAAVAny@2@ABVException@2@@ZA
?insertToAnyFn@BAD_PARAM@CORBA@@2P6AXAAVAny@2@ABVException@2@@ZA
?insertToAnyFn@BAD_QOS@CORBA@@2P6AXAAVAny@2@ABVException@2@@ZA
?insertToAnyFn@BAD_TYPECODE@CORBA@@2P6AXAAVAny@2@ABVException@2@@ZA
?insertToAnyFn@CODESET_INCOMPATIBLE@CORBA@@2P6AXAAVAny@2@ABVException@2@@ZA
?insertToAnyFn@COMM_FAILURE@CORBA@@2P6AXAAVAny@2@ABVException@2@@ZA
?insertToAnyFn@CannotProceed@NamingContext@CosNaming@@2P6AXAAVAny@CORBA@@ABVException@5@@ZA
?insertToAnyFn@DATA_CONVERSION@CORBA@@2P6AXAAVAny@2@ABVException@2@@ZA
?insertToAnyFn@FREE_MEM@CORBA@@2P6AXAAVAny@2@ABVException@2@@ZA
?insertToAnyFn@ForwardRequest@PortableServer@@2P6AXAAVAny@CORBA@@ABVException@4@@ZA
?insertToAnyFn@IMP_LIMIT@CORBA@@2P6AXAAVAny@2@ABVException@2@@ZA
?insertToAnyFn@INITIALIZE@CORBA@@2P6AXAAVAny@2@ABVException@2@@ZA
?insertToAnyFn@INTERNAL@CORBA@@2P6AXAAVAny@2@ABVException@2@@ZA
?insertToAnyFn@INTF_REPOS@CORBA@@2P6AXAAVAny@2@ABVException@2@@ZA
?insertToAnyFn@INVALID_TRANSACTION@CORBA@@2P6AXAAVAny@2@ABVException@2@@ZA
?insertToAnyFn@INV_FLAG@CORBA@@2P6AXAAVAny@2@ABVException@2@@ZA
?insertToAnyFn@INV_IDENT@CORBA@@2P6AXAAVAny@2@ABVException@2@@ZA
?insertToAnyFn@INV_OBJREF@CORBA@@2P6AXAAVAny@2@ABVException@2@@ZA
?insertToAnyFn@INV_POLICY@CORBA@@2P6AXAAVAny@2@ABVException@2@@ZA
?insertToAnyFn@InvalidAddress@NamingContextExt@CosNaming@@2P6AXAAVAny@CORBA@@ABVException@5@@ZA
?insertToAnyFn@InvalidName@NamingContext@CosNaming@@2P6AXAAVAny@CORBA@@ABVException@5@@ZA
?insertToAnyFn@InvalidName@ORB@CORBA@@2P6AXAAVAny@3@ABVException@3@@ZA
?insertToAnyFn@InvalidPolicy@POA@PortableServer@@2P6AXAAVAny@CORBA@@ABVException@5@@ZA
?insertToAnyFn@MARSHAL@CORBA@@2P6AXAAVAny@2@ABVException@2@@ZA
?insertToAnyFn@NO_IMPLEMENT@CORBA@@2P6AXAAVAny@2@ABVException@2@@ZA
?insertToAnyFn@NO_MEMORY@CORBA@@2P6AXAAVAny@2@ABVException@2@@ZA
?insertToAnyFn@NO_PERMISSION@CORBA@@2P6AXAAVAny@2@ABVException@2@@ZA
?insertToAnyFn@NO_RESOURCES@CORBA@@2P6AXAAVAny@2@ABVException@2@@ZA
?insertToAnyFn@NO_RESPONSE@CORBA@@2P6AXAAVAny@2@ABVException@2@@ZA
?insertToAnyFn@NoContext@Current@PortableServer@@2P6AXAAVAny@CORBA@@ABVException@5@@ZA
?insertToAnyFn@NoServant@POA@PortableServer@@2P6AXAAVAny@CORBA@@ABVException@5@@ZA
?insertToAnyFn@NotEmpty@NamingContext@CosNaming@@2P6AXAAVAny@CORBA@@ABVException@5@@ZA
?insertToAnyFn@NotFound@NamingContext@CosNaming@@2P6AXAAVAny@CORBA@@ABVException@5@@ZA
?insertToAnyFn@OBJECT_NOT_EXIST@CORBA@@2P6AXAAVAny@2@ABVException@2@@ZA
?insertToAnyFn@OBJ_ADAPTER@CORBA@@2P6AXAAVAny@2@ABVException@2@@ZA
?insertToAnyFn@ObjectAlreadyActive@POA@PortableServer@@2P6AXAAVAny@CORBA@@ABVException@5@@ZA
?insertToAnyFn@ObjectNotActive@POA@PortableServer@@2P6AXAAVAny@CORBA@@ABVException@5@@ZA
?insertToAnyFn@PERSIST_STORE@CORBA@@2P6AXAAVAny@2@ABVException@2@@ZA
?insertToAnyFn@PolicyError@CORBA@@2P6AXAAVAny@2@ABVException@2@@ZA
?insertToAnyFn@REBIND@CORBA@@2P6AXAAVAny@2@ABVException@2@@ZA
?insertToAnyFn@ServantAlreadyActive@POA@PortableServer@@2P6AXAAVAny@CORBA@@ABVException@5@@ZA
?insertToAnyFn@ServantNotActive@POA@PortableServer@@2P6AXAAVAny@CORBA@@ABVException@5@@ZA
?insertToAnyFn@TIMEOUT@CORBA@@2P6AXAAVAny@2@ABVException@2@@ZA
?insertToAnyFn@TRANSACTION_MODE@CORBA@@2P6AXAAVAny@2@ABVException@2@@ZA
?insertToAnyFn@TRANSACTION_REQUIRED@CORBA@@2P6AXAAVAny@2@ABVException@2@@ZA
?insertToAnyFn@TRANSACTION_ROLLEDBACK@CORBA@@2P6AXAAVAny@2@ABVException@2@@ZA
?insertToAnyFn@TRANSACTION_UNAVAILABLE@CORBA@@2P6AXAAVAny@2@ABVException@2@@ZA
?insertToAnyFn@TRANSIENT@CORBA@@2P6AXAAVAny@2@ABVException@2@@ZA
?insertToAnyFn@UNKNOWN@CORBA@@2P6AXAAVAny@2@ABVException@2@@ZA
?insertToAnyFn@WrongAdapter@POA@PortableServer@@2P6AXAAVAny@CORBA@@ABVException@5@@ZA
?insertToAnyFn@WrongPolicy@POA@PortableServer@@2P6AXAAVAny@CORBA@@ABVException@5@@ZA
?insertToAnyFnNCP@AdapterAlreadyExists@POA@PortableServer@@2P6AXAAVAny@CORBA@@PBVException@5@@ZA
?insertToAnyFnNCP@AdapterInactive@POA@PortableServer@@2P6AXAAVAny@CORBA@@PBVException@5@@ZA
?insertToAnyFnNCP@AdapterInactive@POAManager@PortableServer@@2P6AXAAVAny@CORBA@@PBVException@5@@ZA
?insertToAnyFnNCP@AdapterNonExistent@POA@PortableServer@@2P6AXAAVAny@CORBA@@PBVException@5@@ZA
?insertToAnyFnNCP@AlreadyBound@NamingContext@CosNaming@@2P6AXAAVAny@CORBA@@PBVException@5@@ZA
?insertToAnyFnNCP@BAD_CONTEXT@CORBA@@2P6AXAAVAny@2@PBVException@2@@ZA
?insertToAnyFnNCP@BAD_INV_ORDER@CORBA@@2P6AXAAVAny@2@PBVException@2@@ZA
?insertToAnyFnNCP@BAD_OPERATION@CORBA@@2P6AXAAVAny@2@PBVException@2@@ZA
?insertToAnyFnNCP@BAD_PARAM@CORBA@@2P6AXAAVAny@2@PBVException@2@@ZA
?insertToAnyFnNCP@BAD_QOS@CORBA@@2P6AXAAVAny@2@PBVException@2@@ZA
?insertToAnyFnNCP@BAD_TYPECODE@CORBA@@2P6AXAAVAny@2@PBVException@2@@ZA
?insertToAnyFnNCP@CODESET_INCOMPATIBLE@CORBA@@2P6AXAAVAny@2@PBVException@2@@ZA
?insertToAnyFnNCP@COMM_FAILURE@CORBA@@2P6AXAAVAny@2@PBVException@2@@ZA
?insertToAnyFnNCP@CannotProceed@NamingContext@CosNaming@@2P6AXAAVAny@CORBA@@PBVException@5@@ZA
?insertToAnyFnNCP@DATA_CONVERSION@CORBA@@2P6AXAAVAny@2@PBVException@2@@ZA
?insertToAnyFnNCP@FREE_MEM@CORBA@@2P6AXAAVAny@2@PBVException@2@@ZA
?insertToAnyFnNCP@ForwardRequest@PortableServer@@2P6AXAAVAny@CORBA@@PBVException@4@@ZA
?insertToAnyFnNCP@IMP_LIMIT@CORBA@@2P6AXAAVAny@2@PBVException@2@@ZA
?insertToAnyFnNCP@INITIALIZE@CORBA@@2P6AXAAVAny@2@PBVException@2@@ZA
?insertToAnyFnNCP@INTERNAL@CORBA@@2P6AXAAVAny@2@PBVException@2@@ZA
?insertToAnyFnNCP@INTF_REPOS@CORBA@@2P6AXAAVAny@2@PBVException@2@@ZA
?insertToAnyFnNCP@INVALID_TRANSACTION@CORBA@@2P6AXAAVAny@2@PBVException@2@@ZA
?insertToAnyFnNCP@INV_FLAG@CORBA@@2P6AXAAVAny@2@PBVException@2@@ZA
?insertToAnyFnNCP@INV_IDENT@CORBA@@2P6AXAAVAny@2@PBVException@2@@ZA
?insertToAnyFnNCP@INV_OBJREF@CORBA@@2P6AXAAVAny@2@PBVException@2@@ZA
?insertToAnyFnNCP@INV_POLICY@CORBA@@2P6AXAAVAny@2@PBVException@2@@ZA
?insertToAnyFnNCP@InvalidAddress@NamingContextExt@CosNaming@@2P6AXAAVAny@CORBA@@PBVException@5@@ZA
?insertToAnyFnNCP@InvalidName@NamingContext@CosNaming@@2P6AXAAVAny@CORBA@@PBVException@5@@ZA
?insertToAnyFnNCP@InvalidName@ORB@CORBA@@2P6AXAAVAny@3@PBVException@3@@ZA
?insertToAnyFnNCP@InvalidPolicy@POA@PortableServer@@2P6AXAAVAny@CORBA@@PBVException@5@@ZA
?insertToAnyFnNCP@MARSHAL@CORBA@@2P6AXAAVAny@2@PBVException@2@@ZA
?insertToAnyFnNCP@NO_IMPLEMENT@CORBA@@2P6AXAAVAny@2@PBVException@2@@ZA
?insertToAnyFnNCP@NO_MEMORY@CORBA@@2P6AXAAVAny@2@PBVException@2@@ZA
?insertToAnyFnNCP@NO_PERMISSION@CORBA@@2P6AXAAVAny@2@PBVException@2@@ZA
?insertToAnyFnNCP@NO_RESOURCES@CORBA@@2P6AXAAVAny@2@PBVException@2@@ZA
?insertToAnyFnNCP@NO_RESPONSE@CORBA@@2P6AXAAVAny@2@PBVException@2@@ZA
?insertToAnyFnNCP@NoContext@Current@PortableServer@@2P6AXAAVAny@CORBA@@PBVException@5@@ZA
?insertToAnyFnNCP@NoServant@POA@PortableServer@@2P6AXAAVAny@CORBA@@PBVException@5@@ZA
?insertToAnyFnNCP@NotEmpty@NamingContext@CosNaming@@2P6AXAAVAny@CORBA@@PBVException@5@@ZA
?insertToAnyFnNCP@NotFound@NamingContext@CosNaming@@2P6AXAAVAny@CORBA@@PBVException@5@@ZA
?insertToAnyFnNCP@OBJECT_NOT_EXIST@CORBA@@2P6AXAAVAny@2@PBVException@2@@ZA
?insertToAnyFnNCP@OBJ_ADAPTER@CORBA@@2P6AXAAVAny@2@PBVException@2@@ZA
?insertToAnyFnNCP@ObjectAlreadyActive@POA@PortableServer@@2P6AXAAVAny@CORBA@@PBVException@5@@ZA
?insertToAnyFnNCP@ObjectNotActive@POA@PortableServer@@2P6AXAAVAny@CORBA@@PBVException@5@@ZA
?insertToAnyFnNCP@PERSIST_STORE@CORBA@@2P6AXAAVAny@2@PBVException@2@@ZA
?insertToAnyFnNCP@PolicyError@CORBA@@2P6AXAAVAny@2@PBVException@2@@ZA
?insertToAnyFnNCP@REBIND@CORBA@@2P6AXAAVAny@2@PBVException@2@@ZA
?insertToAnyFnNCP@ServantAlreadyActive@POA@PortableServer@@2P6AXAAVAny@CORBA@@PBVException@5@@ZA
?insertToAnyFnNCP@ServantNotActive@POA@PortableServer@@2P6AXAAVAny@CORBA@@PBVException@5@@ZA
?insertToAnyFnNCP@TIMEOUT@CORBA@@2P6AXAAVAny@2@PBVException@2@@ZA
?insertToAnyFnNCP@TRANSACTION_MODE@CORBA@@2P6AXAAVAny@2@PBVException@2@@ZA
?insertToAnyFnNCP@TRANSACTION_REQUIRED@CORBA@@2P6AXAAVAny@2@PBVException@2@@ZA
?insertToAnyFnNCP@TRANSACTION_ROLLEDBACK@CORBA@@2P6AXAAVAny@2@PBVException@2@@ZA
?insertToAnyFnNCP@TRANSACTION_UNAVAILABLE@CORBA@@2P6AXAAVAny@2@PBVException@2@@ZA
?insertToAnyFnNCP@TRANSIENT@CORBA@@2P6AXAAVAny@2@PBVException@2@@ZA
?insertToAnyFnNCP@UNKNOWN@CORBA@@2P6AXAAVAny@2@PBVException@2@@ZA
?insertToAnyFnNCP@WrongAdapter@POA@PortableServer@@2P6AXAAVAny@CORBA@@PBVException@5@@ZA
?insertToAnyFnNCP@WrongPolicy@POA@PortableServer@@2P6AXAAVAny@CORBA@@PBVException@5@@ZA
?insert_child@omniOrbPOA@omni@@AAEXPAV12@@Z
?install@omniInitialiser@omni@@SAXPAV12@@Z
?installCommFailureExceptionHandler@omniORB@@YAXPAVObject@CORBA@@PAXP6A_N1KABVCOMM_FAILURE@3@@Z@Z
?installCommFailureExceptionHandler@omniORB@@YAXPAXP6A_N0KABVCOMM_FAILURE@CORBA@@@Z@Z
?installCommFailureExceptionHandlerExt@omniORB@@YAXPAVObject@CORBA@@PAXP6A_N1KABVCOMM_FAILURE@3@0PBD@Z@Z
?installCommFailureExceptionHandlerExt@omniORB@@YAXPAXP6A_N0KABVCOMM_FAILURE@CORBA@@PAVObject@3@PBD@Z@Z
?installSystemExceptionHandler@omniORB@@YAXPAVObject@CORBA@@PAXP6A_N1KABVSystemException@3@@Z@Z
?installSystemExceptionHandler@omniORB@@YAXPAXP6A_N0KABVSystemException@CORBA@@@Z@Z
?installSystemExceptionHandlerExt@omniORB@@YAXPAVObject@CORBA@@PAXP6A_N1KABVSystemException@3@0PBD@Z@Z
?installSystemExceptionHandlerExt@omniORB@@YAXPAXP6A_N0KABVSystemException@CORBA@@PAVObject@3@PBD@Z@Z
?installTimeoutExceptionHandler@omniORB@@YAXPAVObject@CORBA@@PAXP6A_N1KABVTIMEOUT@3@@Z@Z
?installTimeoutExceptionHandler@omniORB@@YAXPAXP6A_N0KABVTIMEOUT@CORBA@@@Z@Z
?installTimeoutExceptionHandlerExt@omniORB@@YAXPAVObject@CORBA@@PAXP6A_N1KABVTIMEOUT@3@0PBD@Z@Z
?installTimeoutExceptionHandlerExt@omniORB@@YAXPAXP6A_N0KABVTIMEOUT@CORBA@@PAVObject@3@PBD@Z@Z
?installTransientExceptionHandler@omniORB@@YAXPAVObject@CORBA@@PAXP6A_N1KABVTRANSIENT@3@@Z@Z
?installTransientExceptionHandler@omniORB@@YAXPAXP6A_N0KABVTRANSIENT@CORBA@@@Z@Z
?installTransientExceptionHandlerExt@omniORB@@YAXPAVObject@CORBA@@PAXP6A_N1KABVTRANSIENT@3@0PBD@Z@Z
?installTransientExceptionHandlerExt@omniORB@@YAXPAXP6A_N0KABVTRANSIENT@CORBA@@PAVObject@3@PBD@Z@Z
?instantiate@giopServer@omni@@UAE_NPBD_NAAV_CORBA_Unbounded_Sequence_String@@@Z
?interceptedCall@omniCallDescriptor@@QAEXPAVomniServant@@@Z
?internalLock@omni@@3PAVomni_tracedmutex@@A
?invoke_bootstrap_agentImpl@omniInitialReferences@omni@@SAHAAVomniCallHandle@@@Z
?iopProfiles@omniIOR@@QBEABV?$_CORBA_Unbounded_Sequence@UTaggedProfile@IOP@@@@XZ
?ior@GIOP_C@omni@@QAEXPBVomniIOR@@@Z
?ior@GIOP_C@omni@@QBEPBVomniIOR@@XZ
?isBiDir@giopStrand@omni@@QAE_NXZ
?isClient@giopStrand@omni@@QAE_NXZ
?isDeactivating@omniObjAdapter@omni@@SA_NXZ
?isEmpty@tcpActiveCollection@omni@@UBE_NXZ
?isInitialised@omniObjAdapter@omni@@SA_NXZ
?isSelectable@SocketCollection@omni@@QAE_NI@Z
?isSelectable@tcpConnection@omni@@UAE_NXZ
?isValid@tcpTransportImpl@omni@@UAE_NPBD@Z
?is_COMM_FAILURE_minor@omni@@YA_NK@Z
?is_a@_pof_AdapterActivator@PortableServer@@UBE_NPBD@Z
?is_a@_pof_BindingIterator@CosNaming@@UBE_NPBD@Z
?is_a@_pof_CORBA_InitialReferences@@UBE_NPBD@Z
?is_a@_pof_NamingContext@CosNaming@@UBE_NPBD@Z
?is_a@_pof_NamingContextExt@CosNaming@@UBE_NPBD@Z
?is_a@_pof_ServantActivator@PortableServer@@UBE_NPBD@Z
?is_a@_pof_ServantLocator@PortableServer@@UBE_NPBD@Z
?is_a@_pof_ServantManager@PortableServer@@UBE_NPBD@Z
?is_a@omniAnonObjRef_pof@omni@@UBE_NPBD@Z
?is_adapteractivating_child@omniOrbPOA@omni@@AAEHPBD@Z
?is_bootstrap_agentImpl_initialised@omniInitialReferences@omni@@SAHXZ
?is_empty@Link@giopServer@omni@@SA_NAAV123@@Z
?is_empty@RopeLink@omni@@SA_NAAV12@@Z
?is_empty@StrandList@omni@@SA_NAAV12@@Z
?is_empty@giopStreamList@omni@@SA_NAAV12@@Z
?is_empty@omniTaskLink@@SAIAAV1@@Z
?is_equal@omniIdentity@@QBEHPBEH@Z
?is_equal@omniObjKey@@QBEHPBEH@Z
?is_equivalent@omniIdentity@@QAE_NPBV1@@Z
?is_idle@omniLocalIdentity@@QBEHXZ
?is_nil@AdapterActivator_Helper@PortableServer@@SA_NPAVAdapterActivator@2@@Z
?is_nil@BindingIterator_Helper@CosNaming@@SA_NPAV_objref_BindingIterator@2@@Z
?is_nil@CORBA@@YA_NPAVObject@1@@Z
?is_nil@CORBA_InitialReferences_Helper@@SA_NPAV_objref_CORBA_InitialReferences@@@Z
?is_nil@LocalObject_Helper@CORBA@@SA_NPAVLocalObject@2@@Z
?is_nil@NamingContextExt_Helper@CosNaming@@SA_NPAV_objref_NamingContextExt@2@@Z
?is_nil@NamingContext_Helper@CosNaming@@SA_NPAV_objref_NamingContext@2@@Z
?is_nil@Object_Helper@CORBA@@SA_NPAVObject@2@@Z
?is_nil@POA_Helper@PortableServer@@SA_NPAVPOA@2@@Z
?is_nil@ServantActivator_Helper@PortableServer@@SA_NPAVServantActivator@2@@Z
?is_nil@ServantLocator_Helper@PortableServer@@SA_NPAVServantLocator@2@@Z
?is_nil@ServantManager_Helper@PortableServer@@SA_NPAVServantManager@2@@Z
?is_oneway@omniCallDescriptor@@QBE_NXZ
?is_permanent@LOCATION_FORWARD@omniORB@@QBE_NXZ
?is_upcall@omniCallDescriptor@@QBE_NXZ
?isip4addr@LibcWrapper@omni@@SA_NPBD@Z
?isip6addr@LibcWrapper@omni@@SA_NPBD@Z
?isipaddr@LibcWrapper@omni@@SA_NPBD@Z
?key@GIOP_C@omni@@QAEXPBE@Z
?key@GIOP_C@omni@@QBEPBEXZ
?key@GIOP_S@omni@@QBEPAEXZ
?key@Handler@orbOptions@omni@@QBEPBDXZ
?key@omniIdentity@@QBEPBEXZ
?key@omniObjKey@@QBEPBEXZ
?keyToOctetSequence@omniORB@@YAPAV_CORBA_Unbounded_Sequence_Octet@@ABUomniOrbBoaKey@@@Z
?keysize@GIOP_C@omni@@QAEXK@Z
?keysize@GIOP_C@omni@@QBEKXZ
?keysize@GIOP_S@omni@@QAEXH@Z
?keysize@GIOP_S@omni@@QBEHXZ
?keysize@omniIdentity@@QBEHXZ
?kind@Base@omniCodeSet@omni@@QBE?AW4Kind@23@XZ
?kind@IiopObjAddr@corbalocURIHandler@omni@@UAE?AW4AddrKind@ObjAddr@23@XZ
?kind@RirObjAddr@corbalocURIHandler@omni@@UAE?AW4AddrKind@ObjAddr@23@XZ
?kind@SsliopObjAddr@corbalocURIHandler@omni@@UAE?AW4AddrKind@ObjAddr@23@XZ
?kind@UiopObjAddr@corbalocURIHandler@omni@@UAE?AW4AddrKind@ObjAddr@23@XZ
?lastIdentityHasBeenDeleted@omniIdentity@@KAXXZ
?lastInvocationHasCompleted@omniOrbBOA@omni@@UAEXPAVomniLocalIdentity@@@Z
?lastInvocationHasCompleted@omniOrbPOA@omni@@UAEXPAVomniLocalIdentity@@@Z
?lcdMode@orbParameters@omni@@3_NA
?lcfn@omni_interface_CallDesc@omni@@SAXPAVomniCallDescriptor@@PAVomniServant@@@Z
?lcfn@omni_is_a_CallDesc@omni@@SAXPAVomniCallDescriptor@@PAVomniServant@@@Z
?lcfn@omni_non_existent_CallDesc@omni@@SAXPAVomniCallDescriptor@@PAVomniServant@@@Z
?leaveAdapter@omniObjAdapter@omni@@QAEXXZ
?len@_CORBA_WString_helper@@SAHPB_W@Z
?length@?$_CORBA_PseudoValue_Sequence@PAVIORExtraInfo@omniIOR@@@@QAEXK@Z
?length@?$_CORBA_PseudoValue_Sequence@PAVIORExtraInfo@omniIOR@@@@QBEKXZ
?length@?$_CORBA_PseudoValue_Sequence@PAVomniOrbPOA@omni@@@@QAEXK@Z
?length@?$_CORBA_PseudoValue_Sequence@PAVomniOrbPOA@omni@@@@QBEKXZ
?length@?$_CORBA_PseudoValue_Sequence@UserviceRecord@omni@@@@QAEXK@Z
?length@?$_CORBA_PseudoValue_Sequence@UserviceRecord@omni@@@@QBEKXZ
?length@?$_CORBA_Pseudo_Unbounded_Sequence@VPolicy@CORBA@@V?$_CORBA_PseudoObj_Member@VPolicy@CORBA@@V?$_CORBA_PseudoObj_Var@VPolicy@CORBA@@@@@@@@QAEXK@Z
?length@?$_CORBA_Pseudo_Unbounded_Sequence@VPolicy@CORBA@@V?$_CORBA_PseudoObj_Member@VPolicy@CORBA@@V?$_CORBA_PseudoObj_Var@VPolicy@CORBA@@@@@@@@QBEKXZ
?length@?$_CORBA_Sequence@E@@QAEXK@Z
?length@?$_CORBA_Sequence@E@@QBEKXZ
?length@?$_CORBA_Sequence@K@@QAEXK@Z
?length@?$_CORBA_Sequence@K@@QBEKXZ
?length@?$_CORBA_Sequence@UAddress@IIOP@@@@QAEXK@Z
?length@?$_CORBA_Sequence@UAddress@IIOP@@@@QBEKXZ
?length@?$_CORBA_Sequence@UBinding@CosNaming@@@@QAEXK@Z
?length@?$_CORBA_Sequence@UNameComponent@CosNaming@@@@QAEXK@Z
?length@?$_CORBA_Sequence@UNameComponent@CosNaming@@@@QBEKXZ
?length@?$_CORBA_Sequence@UServiceContext@IOP@@@@QAEXK@Z
?length@?$_CORBA_Sequence@UServiceContext@IOP@@@@QBEKXZ
?length@?$_CORBA_Sequence@UTaggedComponent@IOP@@@@QAEXK@Z
?length@?$_CORBA_Sequence@UTaggedComponent@IOP@@@@QBEKXZ
?length@?$_CORBA_Sequence@UTaggedProfile@IOP@@@@QAEXK@Z
?length@?$_CORBA_Sequence@UTaggedProfile@IOP@@@@QBEKXZ
?length@?$_CORBA_Sequence@V_CORBA_Unbounded_Sequence_Octet@@@@QAEXK@Z
?length@?$_CORBA_Sequence@V_CORBA_Unbounded_Sequence_Octet@@@@QBEKXZ
?length@?$_CORBA_Sequence_ObjRef@VPOA@PortableServer@@V?$_CORBA_ObjRef_Element@VPOA@PortableServer@@VPOA_Helper@2@@@VPOA_Helper@2@@@QAEXK@Z
?length@BufferC@omniCodeSetUtil@omni@@QAEKXZ
?length@BufferU@omniCodeSetUtil@omni@@QAEKXZ
?length@_CORBA_Sequence_String@@QAEXK@Z
?length@_CORBA_Sequence_String@@QBEKXZ
?length@_CORBA_Sequence_WString@@QAEXK@Z
?line@fatalException@omniORB@@QBEHXZ
?list@CORBA_InitialReferences_i@omni@@$4PPPPPPPM@A@AEPAVObjIdList@CORBA_InitialReferences@@XZ
?list@CORBA_InitialReferences_i@omni@@UAEPAVObjIdList@CORBA_InitialReferences@@XZ
?list@_objref_CORBA_InitialReferences@@QAEPAVObjIdList@CORBA_InitialReferences@@XZ
?list@_objref_NamingContext@CosNaming@@QAEXKVBindingList_out@2@V?$_CORBA_ObjRef_OUT_arg@V_objref_BindingIterator@CosNaming@@VBindingIterator_Helper@2@@@@Z
?list@omniInitialReferences@omni@@SAPAVObjectIdList@ORB@CORBA@@XZ
?listMyEndpoints@omniObjAdapter@omni@@SAABV_CORBA_Unbounded_Sequence_String@@XZ
?list_initial_services@omniOrbORB@@UAEPAVObjectIdList@ORB@CORBA@@XZ
?listenBacklog@orbParameters@omni@@3KA
?locToObject@corbalocURIHandler@omni@@SAPAVObject@CORBA@@AAPBDIPBD@Z
?localId@omniCallDescriptor@@QAEPAVomniLocalIdentity@@XZ
?localId@omniCallDescriptor@@QAEXPAVomniLocalIdentity@@@Z
?localId@omniCallHandle@@QAEXPAVomniLocalIdentity@@@Z
?localId_to_ObjectId@omniOrbPOA@omni@@QAEPAVObjectId@PortableServer@@PAVomniIdentity@@@Z
?localId_to_ObjectId@omniOrbPOA@omni@@QAEXPAVomniIdentity@@AAVObjectId@PortableServer@@@Z
?localInvocationCount@omni@@3HA
?locate@omniObjTable@@SAPAVomniObjTableEntry@@PBEHKK@Z
?locateActive@omniObjTable@@SAPAVomniObjTableEntry@@PBEHK_N@Z
?locateRequest@omniInProcessIdentity@@UAEXAAVomniCallDescriptor@@@Z
?locateRequest@omniRemoteIdentity@@UAEXAAVomniCallDescriptor@@@Z
?locateRequest@omniShutdownIdentity@@UAEXAAVomniCallDescriptor@@@Z
?locateStatus@GIOP_C@omni@@QAEXW4LocateStatusType@GIOP@@@Z
?locateStatus@GIOP_C@omni@@QBE?AW4LocateStatusType@GIOP@@XZ
?locationForward@omni@@YAXPAVomniObjRef@@0_N@Z
?lock@omniIOR@@2PAVomni_tracedmutex@@A
?lock@omniServantActivatorTaskQueue@omni@@QAEXXZ
?lock@omni_mutex@@QAEXXZ
?lock@omni_rmutex@@QAEXXZ
?logCodeSets@omniCodeSet@omni@@SAXXZ
?logConnectFailure@tcpSocket@omni@@SAXPBDPAVAddrInfo@LibcWrapper@2@@Z
?logs@omniORB@@YAXKPBD@Z
?lookup@proxyObjectFactory@omni@@SAPAV12@PBD@Z
?loseRef@omniInProcessIdentity@@UAEXPAVomniObjRef@@@Z
?loseRef@omniLocalIdentity@@UAEXPAVomniObjRef@@@Z
?loseRef@omniObjTableEntry@@UAEXPAVomniObjRef@@@Z
?loseRef@omniRemoteIdentity@@UAEXPAVomniObjRef@@@Z
?loseRef@omniShutdownIdentity@@UAEXPAVomniObjRef@@@Z
?lose_child@omniOrbPOA@omni@@AAEXPAV12@@Z
?lose_poa@omniOrbPOAManager@omni@@QAEXPAVomniOrbPOA@2@@Z
?mainThread@omniCallHandle@@QAEXPAVomni_tracedmutex@@PAVomni_tracedcondition@@@Z
?mainThreadId@omni@@3HA
?majver@IiopObjAddr@corbalocURIHandler@omni@@QAEEXZ
?markRdLock@giopStream@omni@@QAEXXZ
?marshalArguments@_0RL_cd_69ceca6a39f685b5_00000000@@UAEXAAVcdrStream@@@Z
?marshalArguments@_0RL_cd_69ceca6a39f685b5_02000000@@UAEXAAVcdrStream@@@Z
?marshalArguments@_0RL_cd_69ceca6a39f685b5_20000000@@UAEXAAVcdrStream@@@Z
?marshalArguments@_0RL_cd_69ceca6a39f685b5_21000000@@UAEXAAVcdrStream@@@Z
?marshalArguments@_0RL_cd_69ceca6a39f685b5_40000000@@UAEXAAVcdrStream@@@Z
?marshalArguments@_0RL_cd_69ceca6a39f685b5_60000000@@UAEXAAVcdrStream@@@Z
?marshalArguments@_0RL_cd_69ceca6a39f685b5_61000000@@UAEXAAVcdrStream@@@Z
?marshalArguments@_0RL_cd_69ceca6a39f685b5_80000000@@UAEXAAVcdrStream@@@Z
?marshalArguments@_0RL_cd_69ceca6a39f685b5_a0000000@@UAEXAAVcdrStream@@@Z
?marshalArguments@_0RL_cd_69ceca6a39f685b5_a1000000@@UAEXAAVcdrStream@@@Z
?marshalArguments@_0RL_cd_69ceca6a39f685b5_c1000000@@UAEXAAVcdrStream@@@Z
?marshalArguments@_0RL_cd_69ceca6a39f685b5_e0000000@@UAEXAAVcdrStream@@@Z
?marshalArguments@_0RL_cd_69ceca6a39f685b5_e1000000@@UAEXAAVcdrStream@@@Z
?marshalArguments@_0RL_cd_96f078e2247ab9da_00000000@@UAEXAAVcdrStream@@@Z
?marshalArguments@_cCORBA_mObject_i_cstring@omniStdCallDesc@@UAEXAAVcdrStream@@@Z
?marshalArguments@omniCallDescriptor@@UAEXAAVcdrStream@@@Z
?marshalArguments@omniLocalOnlyCallDescriptor@@UAEXAAVcdrStream@@@Z
?marshalArguments@omni_is_a_CallDesc@omni@@UAEXAAVcdrStream@@@Z
?marshalBoolean@cdrStream@@QAEX_N@Z
?marshalChar@NCS_C_8bit@omniCodeSet@omni@@UAEXAAVcdrStream@@PAVTCS_C@23@E@Z
?marshalChar@NCS_C_UTF_8@omni@@UAEXAAVcdrStream@@PAVTCS_C@omniCodeSet@2@E@Z
?marshalChar@TCS_C_8bit@omniCodeSet@omni@@UAEXAAVcdrStream@@_W@Z
?marshalChar@TCS_C_UTF_8@omni@@UAEXAAVcdrStream@@_W@Z
?marshalDouble@cdrStream@@QAEXN@Z
?marshalIORAddressingInfo@omniIOR@@QBEXAAVcdrStream@@@Z
?marshalLong@cdrStream@@QAEXJ@Z
?marshalLongLong@cdrStream@@QAEX_J@Z
?marshalObjRef@AdapterActivator_Helper@PortableServer@@SAXPAVAdapterActivator@2@AAVcdrStream@@@Z
?marshalObjRef@BindingIterator_Helper@CosNaming@@SAXPAV_objref_BindingIterator@2@AAVcdrStream@@@Z
?marshalObjRef@CORBA_InitialReferences_Helper@@SAXPAV_objref_CORBA_InitialReferences@@AAVcdrStream@@@Z
?marshalObjRef@LocalObject_Helper@CORBA@@SAXPAVLocalObject@2@AAVcdrStream@@@Z
?marshalObjRef@NamingContextExt_Helper@CosNaming@@SAXPAV_objref_NamingContextExt@2@AAVcdrStream@@@Z
?marshalObjRef@NamingContext_Helper@CosNaming@@SAXPAV_objref_NamingContext@2@AAVcdrStream@@@Z
?marshalObjRef@Object_Helper@CORBA@@SAXPAVObject@2@AAVcdrStream@@@Z
?marshalObjRef@ServantActivator_Helper@PortableServer@@SAXPAVServantActivator@2@AAVcdrStream@@@Z
?marshalObjRef@ServantLocator_Helper@PortableServer@@SAXPAVServantLocator@2@AAVcdrStream@@@Z
?marshalObjRef@ServantManager_Helper@PortableServer@@SAXPAVServantManager@2@AAVcdrStream@@@Z
?marshalOctet@cdrStream@@QAEXE@Z
?marshalRawString@cdrStream@@QAEKPBD@Z
?marshalReplyHeader@giopImpl10@omni@@SAXPAVgiopStream@2@@Z
?marshalReplyHeader@giopImpl11@omni@@SAXPAVgiopStream@2@@Z
?marshalReplyHeader@giopImpl12@omni@@SAXPAVgiopStream@2@@Z
?marshalRequestHeader@giopImpl10@omni@@SAXPAVgiopStream@2@@Z
?marshalRequestHeader@giopImpl11@omni@@SAXPAVgiopStream@2@@Z
?marshalRequestHeader@giopImpl12@omni@@SAXPAVgiopStream@2@@Z
?marshalReturnedValues@_0RL_cd_69ceca6a39f685b5_02000000@@UAEXAAVcdrStream@@@Z
?marshalReturnedValues@_0RL_cd_69ceca6a39f685b5_21000000@@UAEXAAVcdrStream@@@Z
?marshalReturnedValues@_0RL_cd_69ceca6a39f685b5_41000000@@UAEXAAVcdrStream@@@Z
?marshalReturnedValues@_0RL_cd_69ceca6a39f685b5_61000000@@UAEXAAVcdrStream@@@Z
?marshalReturnedValues@_0RL_cd_69ceca6a39f685b5_80000000@@UAEXAAVcdrStream@@@Z
?marshalReturnedValues@_0RL_cd_69ceca6a39f685b5_a1000000@@UAEXAAVcdrStream@@@Z
?marshalReturnedValues@_0RL_cd_69ceca6a39f685b5_c0000000@@UAEXAAVcdrStream@@@Z
?marshalReturnedValues@_0RL_cd_69ceca6a39f685b5_c1000000@@UAEXAAVcdrStream@@@Z
?marshalReturnedValues@_0RL_cd_69ceca6a39f685b5_e0000000@@UAEXAAVcdrStream@@@Z
?marshalReturnedValues@_0RL_cd_69ceca6a39f685b5_e1000000@@UAEXAAVcdrStream@@@Z
?marshalReturnedValues@_0RL_cd_96f078e2247ab9da_00000000@@UAEXAAVcdrStream@@@Z
?marshalReturnedValues@_0RL_cd_96f078e2247ab9da_20000000@@UAEXAAVcdrStream@@@Z
?marshalReturnedValues@_cCORBA_mObject_i_cstring@omniStdCallDesc@@UAEXAAVcdrStream@@@Z
?marshalReturnedValues@omniCallDescriptor@@UAEXAAVcdrStream@@@Z
?marshalReturnedValues@omni_interface_CallDesc@omni@@UAEXAAVcdrStream@@@Z
?marshalReturnedValues@omni_is_a_CallDesc@omni@@UAEXAAVcdrStream@@@Z
?marshalReturnedValues@omni_non_existent_CallDesc@omni@@UAEXAAVcdrStream@@@Z
?marshalShort@cdrStream@@QAEXF@Z
?marshalString@NCS_C_8bit@omniCodeSet@omni@@UAEXAAVcdrStream@@PAVTCS_C@23@KKPBD@Z
?marshalString@NCS_C_UTF_8@omni@@UAEXAAVcdrStream@@PAVTCS_C@omniCodeSet@2@KKPBD@Z
?marshalString@TCS_C_8bit@omniCodeSet@omni@@UAEXAAVcdrStream@@KKPB_W@Z
?marshalString@TCS_C_UTF_8@omni@@UAEXAAVcdrStream@@KKPB_W@Z
?marshalString@cdrStream@@QAEXPBDH@Z
?marshalULong@cdrStream@@QAEXK@Z
?marshalULongLong@cdrStream@@QAEX_K@Z
?marshalUShort@cdrStream@@QAEXG@Z
?marshalWChar@NCS_W_16bit@omniCodeSet@omni@@UAEXAAVcdrStream@@PAVTCS_W@23@_W@Z
?marshalWChar@NCS_W_UTF_16@omni@@UAEXAAVcdrStream@@PAVTCS_W@omniCodeSet@2@_W@Z
?marshalWChar@TCS_W_16bit@omniCodeSet@omni@@UAEXAAVcdrStream@@_W@Z
?marshalWChar@TCS_W_UTF_16@omni@@UAEXAAVcdrStream@@_W@Z
?marshalWString@NCS_W_16bit@omniCodeSet@omni@@UAEXAAVcdrStream@@PAVTCS_W@23@KKPB_W@Z
?marshalWString@NCS_W_UTF_16@omni@@UAEXAAVcdrStream@@PAVTCS_W@omniCodeSet@2@KKPB_W@Z
?marshalWString@TCS_W_16bit@omniCodeSet@omni@@UAEXAAVcdrStream@@KKPB_W@Z
?marshalWString@TCS_W_UTF_16@omni@@UAEXAAVcdrStream@@KKPB_W@Z
?marshalWString@cdrStream@@QAEXPB_WH@Z
?marshal_byte_swap@cdrStream@@QBE_NXZ
?match@BiDirServerRope@omni@@ABE_NPBDABV?$omnivector@PAVgiopAddress@omni@@@@@Z
?match@builtinIPv4Rule@omni@@UAE_NPBD@Z
?match@builtinIPv6Rule@omni@@UAE_NPBD@Z
?match@builtinLocalHostRule@omni@@UAE_NPBD@Z
?match@builtinMatchAllRule@omni@@UAE_NPBD@Z
?match@giopRope@omni@@MBE_NABV?$omnivector@PAVgiopAddress@omni@@@@PAVIORInfo@omniIOR@@@Z
?match@transportRules@omni@@QAE_NPBDAAVStringSeq@CORBA@@AAK@Z
?matchAddr@builtinIPv4Rule@omni@@QAE_NPBD@Z
?matchAddr@builtinIPv6Rule@omni@@QAE_NPBD@Z
?matchMyEndpoints@omniObjAdapter@omni@@SA_NPBD@Z
?matchVersion@giopStreamImpl@omni@@SAPAV12@ABUVersion@GIOP@@@Z
?maxClientThreadPoolSize@orbParameters@omni@@3KA
?maxGIOPConnectionPerServer@orbParameters@omni@@3KA
?maxGIOPVersion@orbParameters@omni@@3UVersion@GIOP@@A
?maxInterleavedCallsPerConnection@orbParameters@omni@@3KA
?maxServerThreadPerConnection@orbParameters@omni@@3KA
?maxServerThreadPoolSize@orbParameters@omni@@3KA
?maxSocketRecv@orbParameters@omni@@3IA
?maxSocketSend@orbParameters@omni@@3IA
?maxVersion@giopStreamImpl@omni@@SAPAV12@XZ
?max_alignment@omni@@3W4alignment_t@1@B
?maximum@?$_CORBA_Sequence@E@@QBEKXZ
?maximum@?$_CORBA_Sequence@UTaggedComponent@IOP@@@@QBEKXZ
?maximum@?$_CORBA_Sequence@UTaggedProfile@IOP@@@@QBEKXZ
?maximum@_CORBA_Sequence_String@@QBEKXZ
?maybeReserveOutputSpace@cdrCountingStream@@UAE_NW4alignment_t@omni@@I@Z
?maybeReserveOutputSpace@cdrMemoryStream@@UAE_NW4alignment_t@omni@@I@Z
?maybeReserveOutputSpace@cdrStreamAdapter@@MAE_NW4alignment_t@omni@@I@Z
?maybeReserveOutputSpace@cdrValueChunkStream@@UAE_NW4alignment_t@omni@@I@Z
?maybeReserveOutputSpace@giopStream@omni@@UAE_NW4alignment_t@2@I@Z
?maybeStartNewChunk@cdrValueChunkStream@@AAEXW4alignment_t@omni@@I@Z
?met_detached_object@omniObjAdapter@omni@@QAEXXZ
?mid_run@omniAsyncWorker@@QAEXXZ
?minChunkBeforeDirectSend@giopStream@omni@@2KA
?minor@CommFailure@giopStream@omni@@QBEKXZ
?minor@SystemException@CORBA@@QBEKXZ
?minorCode2String@omni@@YAPBDQBUminorCodeLookup@1@K@Z
?minver@IiopObjAddr@corbalocURIHandler@omni@@QAEEXZ
?more@?$omnivector@K@@AAEXXZ
?more@?$omnivector@PAUEndpointURI@Options@omniObjAdapter@omni@@@@AAEXXZ
?more@?$omnivector@PAUHandlerValuePair@orbOptions@omni@@@@AAEXXZ
?more@?$omnivector@PAURuleActionPair@transportRules@omni@@@@AAEXXZ
?more@?$omnivector@PAVHandler@orbOptions@omni@@@@AAEXXZ
?more@?$omnivector@PAVObject@CORBA@@@@AAEXXZ
?more@?$omnivector@PAVRuleType@transportRules@omni@@@@AAEXXZ
?more@?$omnivector@PAVURIHandler@omniURI@omni@@@@AAEXXZ
?more@?$omnivector@PAVgiopActiveCollection@omni@@@@AAEXXZ
?more@?$omnivector@PAVgiopAddress@omni@@@@AAEXXZ
?more@?$omnivector@PAVgiopEndpoint@omni@@@@AAEXXZ
?more@?$omnivector@PAVgiopStrand@omni@@@@AAEXXZ
?more@?$omnivector@PAVomniInitialiser@omni@@@@AAEXXZ
?more@?$omnivector@PAVomniObjRef@@@@AAEXXZ
?more@?$omnivector@PAVomniObjTableEntry@@@@AAEXXZ
?more@?$omnivector@PAVomniTrackedObject@omni@@@@AAEXXZ
?more@?$omnivector@PAVorbServer@omni@@@@AAEXXZ
?more@?$omnivector@PBD@@AAEXXZ
?more@?$omnivector@UresolvePseudoEntry@omni@@@@AAEXXZ
?more@logger@omniORB@@AAEXH@Z
?move_args@orbOptions@omni@@SAXAAHPAPADHH@Z
?mutex@Scavenger@omni@@0PAVomni_tracedmutex@@A
?myByteOrder@omni@@3EB
?myPrincipalID@omni@@3V_CORBA_Unbounded_Sequence_Octet@@A
?myaddress@info_T@clientOpenConnection_T@omniInterceptors@omni@@QAEPBDXZ
?myaddress@info_T@clientReceiveReply_T@omniInterceptors@omni@@QAEPBDXZ
?myaddress@info_T@clientSendRequest_T@omniInterceptors@omni@@QAEPBDXZ
?myaddress@info_T@serverAcceptConnection_T@omniInterceptors@omni@@QAEPBDXZ
?myaddress@info_T@serverReceiveRequest_T@omniInterceptors@omni@@QAEPBDXZ
?myaddress@info_T@serverSendException_T@omniInterceptors@omni@@QAEPBDXZ
?myaddress@info_T@serverSendReply_T@omniInterceptors@omni@@QAEPBDXZ
?myaddress@omniCallHandle@@QAEPBDXZ
?myaddress@tcpConnection@omni@@UAEPBDXZ
?n_user_excns@omniCallDescriptor@@QAEHXZ
?name@Base@omniCodeSet@omni@@QBEPBDXZ
?name@FullAddrInfo@omni@@UAEPADXZ
?nameToString@omniURI@omni@@SAPADABVName@CosNaming@@@Z
?nativeCharCodeSet@orbParameters@omni@@3PAVNCS_C@omniCodeSet@2@A
?nativeWCharCodeSet@orbParameters@omni@@3PAVNCS_W@omniCodeSet@2@A
?newBuffer@giopStream_Buffer@omni@@SAPAU12@K@Z
?newEntry@omniObjTable@@SAPAVomniObjTableEntry@@AAVomniObjKey@@@Z
?newEntry@omniObjTable@@SAPAVomniObjTableEntry@@AAVomniObjKey@@K@Z
?newIIOPtaggedComponent@omniIOR@@SAAAUTaggedComponent@IOP@@AAV?$_CORBA_Unbounded_Sequence@UTaggedComponent@IOP@@@@@Z
?newObjRef@_pof_AdapterActivator@PortableServer@@UAEPAVomniObjRef@@PAVomniIOR@@PAVomniIdentity@@@Z
?newObjRef@_pof_BindingIterator@CosNaming@@UAEPAVomniObjRef@@PAVomniIOR@@PAVomniIdentity@@@Z
?newObjRef@_pof_CORBA_InitialReferences@@UAEPAVomniObjRef@@PAVomniIOR@@PAVomniIdentity@@@Z
?newObjRef@_pof_NamingContext@CosNaming@@UAEPAVomniObjRef@@PAVomniIOR@@PAVomniIdentity@@@Z
?newObjRef@_pof_NamingContextExt@CosNaming@@UAEPAVomniObjRef@@PAVomniIOR@@PAVomniIdentity@@@Z
?newObjRef@_pof_ServantActivator@PortableServer@@UAEPAVomniObjRef@@PAVomniIOR@@PAVomniIdentity@@@Z
?newObjRef@_pof_ServantLocator@PortableServer@@UAEPAVomniObjRef@@PAVomniIOR@@PAVomniIdentity@@@Z
?newObjRef@_pof_ServantManager@PortableServer@@UAEPAVomniObjRef@@PAVomniIOR@@PAVomniIdentity@@@Z
?newObjRef@omniAnonObjRef_pof@omni@@UAEPAVomniObjRef@@PAVomniIOR@@PAVomniIdentity@@@Z
?newSeqNumber@giopStrand@omni@@QAEKXZ
?new_context@_objref_NamingContext@CosNaming@@QAEPAV12@XZ
?next@FullAddrInfo@omni@@UAEPAVAddrInfo@LibcWrapper@2@XZ
?nextInOAObjList@omniObjTableEntry@@QAEPAV1@XZ
?nextInObjectTable@omniObjTableEntry@@QAEPAV1@XZ
?next_n@_objref_BindingIterator@CosNaming@@QAE_NKVBindingList_out@2@@Z
?next_one@_objref_BindingIterator@CosNaming@@QAE_NV?$_CORBA_ConstrType_Variable_OUT_arg@UBinding@CosNaming@@V?$_CORBA_ConstrType_Variable_Var@UBinding@CosNaming@@@@@@@Z
?nilRefLock@omni@@YAAAVomni_tracedmutex@@XZ
?noLockWaiting@giopStream@omni@@SA_NPAVgiopStrand@2@@Z
?no_publish@giopEndpoint@omni@@QAE_NXZ
?notify@Scavenger@omni@@SAXXZ
?notifyCallFullyBuffered@giopServer@omni@@QAEXPAVgiopConnection@2@@Z
?notifyCommFailure@GIOP_C@omni@@UAEX_NAAKAA_N@Z
?notifyCommFailure@GIOP_S@omni@@UAEX_NAAKAA_N@Z
?notifyCommFailure@giopRope@omni@@UAEPBVgiopAddress@2@PBV32@_N@Z
?notifyCommFailure@giopStream@omni@@UAEX_NAAKAA_N@Z
?notifyMrDone@giopServer@omni@@QAEXPAVgiopMonitor@2@_N@Z
?notifyReadable@giopMonitor@omni@@SAXPAXPAVgiopConnection@2@@Z
?notifyReadable@giopRendezvouser@omni@@SAXPAXPAVgiopConnection@2@@Z
?notifyReadable@tcpActiveCollection@omni@@MAE_NPAVSocketHolder@2@@Z
?notifyReadable@tcpEndpoint@omni@@MAE_NPAVSocketHolder@2@@Z
?notifyRzDone@giopServer@omni@@AAEXPAVgiopRendezvouser@2@_N@Z
?notifyRzNewConnection@giopServer@omni@@AAEXPAVgiopRendezvouser@2@PAVgiopConnection@2@@Z
?notifyRzReadable@giopServer@omni@@AAEXPAVgiopConnection@2@_N@Z
?notifySwitchToBiDirectional@giopServer@omni@@QAE_NPAVgiopConnection@2@@Z
?notifyWkDone@giopServer@omni@@AAE_NPAVgiopWorker@2@_N@Z
?notifyWkPreUpCall@giopServer@omni@@QAEXPAVgiopWorker@2@_N@Z
?nullkey@omniORB@@YA?AUomniOrbBoaKey@@XZ
?objRefs@omniObjTableEntry@@QAEAAV?$omnivector@PAVomniObjRef@@@@XZ
?obj_is_ready@omniOrbBOA@omni@@UAEXPAVObject@CORBA@@PAVImplementationDef@4@@Z
?obj_is_ready@omniOrbBOA@omni@@UAEXPAVomniOrbBoaServant@@PAVImplementationDef@CORBA@@@Z
?objectExists@omniOrbBOA@omni@@UAEHPBEH@Z
?objectExists@omniOrbPOA@omni@@UAEHPBEH@Z
?objectTableSize@orbParameters@omni@@3KA
?objectToString@omniURI@omni@@SAPADPAVObject@CORBA@@@Z
?object_to_string@omniOrbORB@@UAEPADPAVObject@CORBA@@@Z
?objref@omniCallDescriptor@@QAEPAVomniObjRef@@XZ
?objref@omniCallDescriptor@@QAEXPAVomniObjRef@@@Z
?objref_rc_lock@omni@@3PAVomni_tracedmutex@@A
?octetSequenceToKey@omniORB@@YA?AUomniOrbBoaKey@@ABV_CORBA_Unbounded_Sequence_Octet@@@Z
?offerBiDirectionalGIOP@orbParameters@omni@@3_NA
?omniINSPOA@omniOrbPOA@omni@@SAPAVPOA@PortableServer@@XZ
?omniORB_4_2@omni@@3PBDB
?omniORB_TAG_ORB_TYPE@omni@@3KB
?omniTransportLock@omni@@3PAVomni_tracedmutex@@A
?omni_ObjRef_initialiser_@omni@@3AAVomniInitialiser@1@A
?omni_cdrStream_initialiser_@omni@@3AAVomniInitialiser@1@A
?omni_codeSet_initialiser_@omni@@3AAVomniInitialiser@1@A
?omni_corbaOrb_initialiser_@omni@@3AAVomniInitialiser@1@A
?omni_dynamiclib_initialiser_@omni@@3AAVomniInitialiser@1@A
?omni_giopEndpoint_initialiser_@omni@@3AAVomniInitialiser@1@A
?omni_giopImpl10_initialiser_@omni@@3AAVomniInitialiser@1@A
?omni_giopImpl11_initialiser_@omni@@3AAVomniInitialiser@1@A
?omni_giopImpl12_initialiser_@omni@@3AAVomniInitialiser@1@A
?omni_giopRope_initialiser_@omni@@3AAVomniInitialiser@1@A
?omni_giopStrand_initialiser_@omni@@3AAVomniInitialiser@1@A
?omni_giopStreamImpl_initialiser_@omni@@3AAVomniInitialiser@1@A
?omni_giopbidir_initialiser_@omni@@3AAVomniInitialiser@1@A
?omni_giopserver_initialiser_@omni@@3AAVomniInitialiser@1@A
?omni_hooked_initialiser_@omni@@3AAVomniInitialiser@1@A
?omni_initRefs_initialiser_@omni@@3AAVomniInitialiser@1@A
?omni_interceptor_initialiser_@omni@@3AAVomniInitialiser@1@A
?omni_invoker_initialiser_@omni@@3AAVomniInitialiser@1@A
?omni_ior_initialiser_@omni@@3AAVomniInitialiser@1@A
?omni_objadpt_initialiser_@omni@@3AAVomniInitialiser@1@A
?omni_omniCurrent_initialiser_@omni@@3AAVomniInitialiser@1@A
?omni_omniIOR_initialiser_@omni@@3AAVomniInitialiser@1@A
?omni_omniInternal_initialiser_@omni@@3AAVomniInitialiser@1@A
?omni_omniTransport_initialiser_@omni@@3AAVomniInitialiser@1@A
?omni_orbOptions_initialiser_@omni@@3AAVomniInitialiser@1@A
?omni_poa_initialiser_@omni@@3AAVomniInitialiser@1@A
?omni_transportRules_initialiser_@omni@@3AAVomniInitialiser@1@A
?omni_uri_initialiser_@omni@@3AAVomniInitialiser@1@A
?once@?1??attach@omni_giopEndpoint_initialiser@omni@@UAEXXZ@4_NA
?oneCallPerConnection@orbParameters@omni@@3_NA
?op@omniCallDescriptor@@QBEPBDXZ
?op_len@omniCallDescriptor@@QBEIXZ
?openConnection@giopStream@omni@@QAEPAVgiopActiveConnection@2@XZ
?operation@GIOP_C@omni@@QAEPBDXZ
?operation@GIOP_S@omni@@QBEPADXZ
?operation@info_T@clientOpenConnection_T@omniInterceptors@omni@@QAEPBDXZ
?operation@info_T@clientReceiveReply_T@omniInterceptors@omni@@QAEPBDXZ
?operation@info_T@clientSendRequest_T@omniInterceptors@omni@@QAEPBDXZ
?operation@info_T@serverReceiveRequest_T@omniInterceptors@omni@@QAEPBDXZ
?operation@info_T@serverSendException_T@omniInterceptors@omni@@QAEPBDXZ
?operation@info_T@serverSendReply_T@omniInterceptors@omni@@QAEPBDXZ
?operation_name@GIOP_S@omni@@UBEPBDXZ
?operation_name@omniCallHandle@@QBEPBDXZ
?ops@omniDynamicLib@omni@@2PAV12@A
?options@omniObjAdapter@omni@@2UOptions@12@A
?orbAsyncInvoker@omni@@3PAVomniAsyncInvoker@@A
?orbType@IORInfo@omniIOR@@QAEXK@Z
?out@?$_CORBA_ConstrType_Variable_Var@UBinding@CosNaming@@@@QAEAAPAUBinding@CosNaming@@XZ
?out@?$_CORBA_ObjRef_Var@V_objref_BindingIterator@CosNaming@@VBindingIterator_Helper@2@@@QAEAAPAV_objref_BindingIterator@CosNaming@@XZ
?out@BindingList_var@CosNaming@@QAEAAPAVBindingList@2@XZ
?outConScanPeriod@orbParameters@omni@@3KA
?outEnd@cdrStream@@IAEKXZ
?outMkr@cdrStream@@IAEKW4alignment_t@omni@@@Z
?outMkr@cdrStream@@IAEKXZ
?outputBufferEnd@giopStream@omni@@AAEKXZ
?outputBufferStart@giopStream@omni@@AAEKXZ
?outputFlush@giopImpl10@omni@@SAXPAVgiopStream@2@@Z
?outputFlush@giopImpl11@omni@@SAXPAVgiopStream@2@_N@Z
?outputFlush@giopImpl12@omni@@SAXPAVgiopStream@2@_N@Z
?outputFragmentSize@giopStream@omni@@AAEXK@Z
?outputFragmentSize@giopStream@omni@@ABEKXZ
?outputHasReachedLimit@giopImpl11@omni@@SA_NPAVgiopStream@2@@Z
?outputHasReachedLimit@giopImpl12@omni@@SA_NPAVgiopStream@2@@Z
?outputMessageBegin@giopImpl10@omni@@SAXPAVgiopStream@2@P6AX0@Z@Z
?outputMessageBegin@giopImpl11@omni@@SAXPAVgiopStream@2@P6AX0@Z@Z
?outputMessageBegin@giopImpl12@omni@@SAXPAVgiopStream@2@P6AX0@Z@Z
?outputMessageEnd@giopImpl10@omni@@SAXPAVgiopStream@2@@Z
?outputMessageEnd@giopImpl11@omni@@SAXPAVgiopStream@2@@Z
?outputMessageEnd@giopImpl12@omni@@SAXPAVgiopStream@2@@Z
?outputMessageSize@giopStream@omni@@AAEXK@Z
?outputMessageSize@giopStream@omni@@ABEKXZ
?outputNewMessage@giopImpl10@omni@@SAXPAVgiopStream@2@@Z
?outputNewMessage@giopImpl11@omni@@SAXPAVgiopStream@2@@Z
?outputNewMessage@giopImpl12@omni@@SAXPAVgiopStream@2@@Z
?outputRemaining@giopImpl10@omni@@SAIPBVgiopStream@2@@Z
?outputRemaining@giopImpl11@omni@@SAIPBVgiopStream@2@@Z
?outputRemaining@giopImpl12@omni@@SAIPBVgiopStream@2@@Z
?outputSetFragmentSize@giopImpl11@omni@@SAXPAVgiopStream@2@K@Z
?outputSetFragmentSize@giopImpl12@omni@@SAXPAVgiopStream@2@K@Z
?outputSetMessageSize@giopImpl10@omni@@SAXPAVgiopStream@2@K@Z
?p_deactivated@omniLocalIdentity@@QBEPB_NXZ
?parse@ObjAddr@corbalocURIHandler@omni@@SAPAV123@AAPBD@Z
?parseAddress@tcpTransportImpl@omni@@SA_NPBDAAUAddress@IIOP@@@Z
?parseIPv4AddressMask@builtinRuleType@omni@@SA_NPBDAAK1@Z
?parseIPv6AddressMask@builtinRuleType@omni@@SA_NPBDAAY0BA@EAAK@Z
?passive@giopStrand@omni@@2VStrandList@2@A
?peekCallBack@giopServer@omni@@SAXPAXPAVgiopConnection@2@@Z
?peekChunkTag@cdrValueChunkStream@@AAEJXZ
?peerToURI@tcpSocket@omni@@SAPADIPBD@Z
?peeraddress@info_T@clientOpenConnection_T@omniInterceptors@omni@@QAEPBDXZ
?peeraddress@info_T@clientReceiveReply_T@omniInterceptors@omni@@QAEPBDXZ
?peeraddress@info_T@clientSendRequest_T@omniInterceptors@omni@@QAEPBDXZ
?peeraddress@info_T@serverAcceptConnection_T@omniInterceptors@omni@@QAEPBDXZ
?peeraddress@info_T@serverReceiveRequest_T@omniInterceptors@omni@@QAEPBDXZ
?peeraddress@info_T@serverSendException_T@omniInterceptors@omni@@QAEPBDXZ
?peeraddress@info_T@serverSendReply_T@omniInterceptors@omni@@QAEPBDXZ
?peeraddress@omniCallHandle@@QAEPBDXZ
?peeraddress@tcpConnection@omni@@UAEPBDXZ
?peerdetails@giopConnection@omni@@UAEPAXXZ
?peerdetails@info_T@clientOpenConnection_T@omniInterceptors@omni@@QAEPAXXZ
?peerdetails@info_T@clientReceiveReply_T@omniInterceptors@omni@@QAEPAXXZ
?peerdetails@info_T@clientSendRequest_T@omniInterceptors@omni@@QAEPAXXZ
?peerdetails@info_T@serverAcceptConnection_T@omniInterceptors@omni@@QAEPAXXZ
?peerdetails@info_T@serverReceiveRequest_T@omniInterceptors@omni@@QAEPAXXZ
?peerdetails@info_T@serverSendException_T@omniInterceptors@omni@@QAEPAXXZ
?peerdetails@info_T@serverSendReply_T@omniInterceptors@omni@@QAEPAXXZ
?peerdetails@omniCallHandle@@QAEPAXXZ
?peeridentity@giopConnection@omni@@UAEPBDXZ
?peeridentity@info_T@clientOpenConnection_T@omniInterceptors@omni@@QAEPBDXZ
?peeridentity@info_T@clientReceiveReply_T@omniInterceptors@omni@@QAEPBDXZ
?peeridentity@info_T@clientSendRequest_T@omniInterceptors@omni@@QAEPBDXZ
?peeridentity@info_T@serverAcceptConnection_T@omniInterceptors@omni@@QAEPBDXZ
?peeridentity@info_T@serverReceiveRequest_T@omniInterceptors@omni@@QAEPBDXZ
?peeridentity@info_T@serverSendException_T@omniInterceptors@omni@@QAEPBDXZ
?peeridentity@info_T@serverSendReply_T@omniInterceptors@omni@@QAEPBDXZ
?peeridentity@omniCallHandle@@QAEPBDXZ
?perform@omniAsyncDedicated@@QAEXKK@Z
?perform@omniAsyncInvoker@@QAEXKK@Z
?perform_work@omniOrbORB@@UAEXXZ
?persistentId@orbParameters@omni@@3V_CORBA_Unbounded_Sequence_Octet@@A
?pfFreeAddrInfo@?1??WspiapiFreeAddrInfo@@9@4@4P6GXPAUaddrinfo@@@ZA
?pfGetAddrInfo@?1??WspiapiGetAddrInfo@@9@16@4P6GHPBD0PBUaddrinfo@@PAPAU2@@ZA
?pfGetNameInfo@?1??WspiapiGetNameInfo@@9@28@4P6GHPBUsockaddr@@HPADI1IH@ZA
?pm_change_state@omniOrbPOA@omni@@QAEXW4State@POAManager@PortableServer@@@Z
?pm_deactivate@omniOrbPOA@omni@@QAEX_N@Z
?pm_waitForReqCmpltnOrSttChnge@omniOrbPOA@omni@@QAEXW4State@POAManager@PortableServer@@@Z
?poRcLock@omni@@3PAVomni_tracedmutex@@A
?poa@omniCallDescriptor@@QAEPAVomniOrbPOA@omni@@XZ
?poa@omniCallDescriptor@@QAEXPAVomniOrbPOA@omni@@@Z
?poa@omniCallHandle@@QAEXPAVomniOrbPOA@omni@@@Z
?poaHoldRequestTimeout@orbParameters@omni@@3KA
?policy_list@omniOrbPOA@omni@@QBEPBV?$_CORBA_Pseudo_Unbounded_Sequence@VPolicy@CORBA@@V?$_CORBA_PseudoObj_Member@VPolicy@CORBA@@V?$_CORBA_PseudoObj_Var@VPolicy@CORBA@@@@@@@@XZ
?policy_type@Policy@CORBA@@UAEKXZ
?port@IiopObjAddr@corbalocURIHandler@omni@@QAEGXZ
?postinvoke@SLPostInvokeHook@omniOrbPOA@omni@@UAEXXZ
?postinvoke@_objref_ServantLocator@PortableServer@@$4PPPPPPPM@A@AEXABVObjectId@2@PAVPOA@2@PBDPAXPAVServantBase@2@@Z
?postinvoke@_objref_ServantLocator@PortableServer@@UAEXABVObjectId@2@PAVPOA@2@PBDPAXPAVServantBase@2@@Z
?postinvoke_hook@omniCallHandle@@QAEXPAVPostInvokeHook@1@@Z
?preinvoke@_objref_ServantLocator@PortableServer@@$4PPPPPPPM@A@AEPAVServantBase@2@ABVObjectId@2@PAVPOA@2@PBDAAPAX@Z
?preinvoke@_objref_ServantLocator@PortableServer@@UAEPAVServantBase@2@ABVObjectId@2@PAVPOA@2@PBDAAPAX@Z
?principal@GIOP_S@omni@@QBEPAEXZ
?ptrStrMatch@omni@@YA_NPBD0@Z
?ptrToClass@GIOP_C@omni@@UAEPAXPAH@Z
?ptrToClass@GIOP_S@omni@@UAEPAXPAH@Z
?ptrToClass@cdrCountingStream@@UAEPAXPAH@Z
?ptrToClass@cdrEncapsulationStream@@UAEPAXPAH@Z
?ptrToClass@cdrMemoryStream@@UAEPAXPAH@Z
?ptrToClass@cdrStream@@UAEPAXPAH@Z
?ptrToClass@cdrStreamAdapter@@UAEPAXPAH@Z
?ptrToClass@cdrValueChunkStream@@UAEPAXPAH@Z
?ptrToClass@giopStream@omni@@UAEPAXPAH@Z
?ptrToClass@omniIdentity@@UAEPAXPAH@Z
?ptrToClass@omniInProcessIdentity@@UAEPAXPAH@Z
?ptrToClass@omniLocalIdentity@@UAEPAXPAH@Z
?ptrToClass@omniObjTableEntry@@UAEPAXPAH@Z
?ptrToClass@omniRemoteIdentity@@UAEPAXPAH@Z
?ptrToClass@omniShutdownIdentity@@UAEPAXPAH@Z
?publish@giopServer@omni@@UAE_NABV_CORBA_Unbounded_Sequence_String@@_N1AAV3@@Z
?publish@tcpEndpoint@omni@@UAE_NABV_CORBA_Unbounded_Sequence_String@@_N1AAV3@@Z
?purpose@omniAsyncPool@@QAEPBDXZ
?purpose@omniTask@@QAE?AW4Purpose@1@XZ
?push_back@?$omnivector@K@@QAEXABK@Z
?push_back@?$omnivector@PAUEndpointURI@Options@omniObjAdapter@omni@@@@QAEXABQAUEndpointURI@Options@omniObjAdapter@omni@@@Z
?push_back@?$omnivector@PAUHandlerValuePair@orbOptions@omni@@@@QAEXABQAUHandlerValuePair@orbOptions@omni@@@Z
?push_back@?$omnivector@PAURuleActionPair@transportRules@omni@@@@QAEXABQAURuleActionPair@transportRules@omni@@@Z
?push_back@?$omnivector@PAVHandler@orbOptions@omni@@@@QAEXABQAVHandler@orbOptions@omni@@@Z
?push_back@?$omnivector@PAVObject@CORBA@@@@QAEXABQAVObject@CORBA@@@Z
?push_back@?$omnivector@PAVRuleType@transportRules@omni@@@@QAEXABQAVRuleType@transportRules@omni@@@Z
?push_back@?$omnivector@PAVURIHandler@omniURI@omni@@@@QAEXABQAVURIHandler@omniURI@omni@@@Z
?push_back@?$omnivector@PAVgiopActiveCollection@omni@@@@QAEXABQAVgiopActiveCollection@omni@@@Z
?push_back@?$omnivector@PAVgiopAddress@omni@@@@QAEXABQAVgiopAddress@omni@@@Z
?push_back@?$omnivector@PAVgiopEndpoint@omni@@@@QAEXABQAVgiopEndpoint@omni@@@Z
?push_back@?$omnivector@PAVgiopStrand@omni@@@@QAEXABQAVgiopStrand@omni@@@Z
?push_back@?$omnivector@PAVomniInitialiser@omni@@@@QAEXABQAVomniInitialiser@omni@@@Z
?push_back@?$omnivector@PAVomniObjRef@@@@QAEXABQAVomniObjRef@@@Z
?push_back@?$omnivector@PAVomniObjTableEntry@@@@QAEXABQAVomniObjTableEntry@@@Z
?push_back@?$omnivector@PAVomniTrackedObject@omni@@@@QAEXABQAVomniTrackedObject@omni@@@Z
?push_back@?$omnivector@PAVorbServer@omni@@@@QAEXABQAVorbServer@omni@@@Z
?push_back@?$omnivector@PBD@@QAEXABQBD@Z
?push_back@?$omnivector@UresolvePseudoEntry@omni@@@@QAEXABUresolvePseudoEntry@omni@@@Z
?put_octet_array@cdrCountingStream@@UAEXPBEHW4alignment_t@omni@@@Z
?put_octet_array@cdrMemoryStream@@UAEXPBEHW4alignment_t@omni@@@Z
?put_octet_array@cdrStreamAdapter@@MAEXPBEHW4alignment_t@omni@@@Z
?put_octet_array@cdrValueChunkStream@@UAEXPBEHW4alignment_t@omni@@@Z
?put_octet_array@giopStream@omni@@UAEXPBEHW4alignment_t@2@@Z
?put_small_octet_array@cdrStream@@QAEXPBEH@Z
?rdLock@giopStream@omni@@UAEXXZ
?rdLockNonBlocking@giopStream@omni@@SA_NPAVgiopStrand@2@@Z
?rdLockNonBlocking@giopStream@omni@@UAE_NXZ
?rdUnLock@giopStream@omni@@UAEXXZ
?reRootOAObjList@omniObjTableEntry@@QAEXPAPAV1@@Z
?readOnly@cdrMemoryStream@@QAE_NXZ
?realIncrRefCount@BiDirServerRope@omni@@MAEXXZ
?realIncrRefCount@giopRope@omni@@MAEXXZ
?real_get_reference@omniOrbPOACurrent@omni@@SAPAVomniObjRef@@PAVomniCallDescriptor@@@Z
?real_get_servant@omniOrbPOACurrent@omni@@SAPAVServantBase@PortableServer@@PAVomniCallDescriptor@@@Z
?real_is_equivalent@omniLocalIdentity@@SA_NPBVomniIdentity@@0@Z
?real_is_equivalent@omniRemoteIdentity@@CA_NPBVomniIdentity@@0@Z
?real_is_equivalent@omniShutdownIdentity@@CA_NPBVomniIdentity@@0@Z
?real_run@omniAsyncWorker@@QAEXXZ
?reallocC@omniCodeSetUtil@omni@@SAPADPADKK@Z
?reallocU@omniCodeSetUtil@omni@@SAPA_WPA_WKK@Z
?rebind@_objref_NamingContext@CosNaming@@QAEXABVName@2@PAVObject@CORBA@@@Z
?rebind_context@_objref_NamingContext@CosNaming@@QAEXABVName@2@PAV12@@Z
?reference_to_id@omniOrbPOA@omni@@UAEPAVObjectId@PortableServer@@PAVObject@CORBA@@@Z
?reference_to_servant@omniOrbPOA@omni@@UAEPAVServantBase@PortableServer@@PAVObject@CORBA@@@Z
?registerHandler@orbOptions@omni@@QAEXAAVHandler@12@@Z
?registerImpl@giopStreamImpl@omni@@SAXPAV12@@Z
?registerMonitor@tcpActiveConnection@omni@@UAEPAVgiopActiveCollection@2@XZ
?registerNCS_C@omniCodeSet@omni@@SAXPAVNCS_C@12@@Z
?registerNCS_W@omniCodeSet@omni@@SAXPAVNCS_W@12@@Z
?registerNilCorbaObject@omni@@YAXPAVObject@CORBA@@@Z
?registerPseudoObjFn@omniInitialReferences@omni@@SAXPBDP6APAVObject@CORBA@@XZ@Z
?registerTCS_C@omniCodeSet@omni@@SAXPAVTCS_C@12@@Z
?registerTCS_W@omniCodeSet@omni@@SAXPAVTCS_W@12@@Z
?registerTrackedObject@omni@@YAXPAVomniTrackedObject@1@@Z
?register_initial_reference@omniOrbORB@@UAEXPBDPAVObject@CORBA@@@Z
?release@AdapterActivator_Helper@PortableServer@@SAXPAVAdapterActivator@2@@Z
?release@BindingIterator_Helper@CosNaming@@SAXPAV_objref_BindingIterator@2@@Z
?release@CORBA@@YAXPAVObject@1@@Z
?release@CORBA_InitialReferences_Helper@@SAXPAV_objref_CORBA_InitialReferences@@@Z
?release@LocalObject_Helper@CORBA@@SAXPAVLocalObject@2@@Z
?release@NamingContextExt_Helper@CosNaming@@SAXPAV_objref_NamingContextExt@2@@Z
?release@NamingContext_Helper@CosNaming@@SAXPAV_objref_NamingContext@2@@Z
?release@Object_Helper@CORBA@@SAXPAVObject@2@@Z
?release@POA_Helper@PortableServer@@SAXPAVPOA@2@@Z
?release@ServantActivator_Helper@PortableServer@@SAXPAVServantActivator@2@@Z
?release@ServantLocator_Helper@PortableServer@@SAXPAVServantLocator@2@@Z
?release@ServantManager_Helper@PortableServer@@SAXPAVServantManager@2@@Z
?release@omniIOR@@QAEXXZ
?releaseClient@giopRope@omni@@UAEXPAVIOP_C@2@@Z
?releaseInputBuffer@giopStream@omni@@AAEXPAUgiopStream_Buffer@2@@Z
?releaseNoLock@omniIOR@@QAEXXZ
?releaseObjRef@omni@@YAXPAVomniObjRef@@@Z
?releaseServer@giopStrand@omni@@QAEXPAVIOP_S@2@@Z
?remFromArgs@omniInitialReferences@omni@@SAXPBD@Z
?remFromFile@omniInitialReferences@omni@@SAXPBD@Z
?remIdle@omniAsyncWorker@@QAEXXZ
?remoteInvocationCount@omni@@3HA
?remove@Link@giopServer@omni@@QAEXXZ
?remove@RopeLink@omni@@QAEXXZ
?remove@StrandList@omni@@QAEXXZ
?remove@assignAMIThread_T@omniInterceptors@omni@@QAEXP6AXAAVinfo_T@123@@Z@Z
?remove@assignUpcallThread_T@omniInterceptors@omni@@QAEXP6AXAAVinfo_T@123@@Z@Z
?remove@clientOpenConnection_T@omniInterceptors@omni@@QAEXP6A_NAAVinfo_T@123@@Z@Z
?remove@clientReceiveReply_T@omniInterceptors@omni@@QAEXP6A_NAAVinfo_T@123@@Z@Z
?remove@clientSendRequest_T@omniInterceptors@omni@@QAEXP6A_NAAVinfo_T@123@@Z@Z
?remove@createIdentity_T@omniInterceptors@omni@@QAEXP6A_NAAVinfo_T@123@@Z@Z
?remove@createORBServer_T@omniInterceptors@omni@@QAEXP6A_NAAVinfo_T@123@@Z@Z
?remove@createPolicy_T@omniInterceptors@omni@@QAEXP6A_NAAVinfo_T@123@@Z@Z
?remove@createRope_T@omniInterceptors@omni@@QAEXP6A_NAAVinfo_T@123@@Z@Z
?remove@createThread_T@omniInterceptors@omni@@QAEXP6AXAAVinfo_T@123@@Z@Z
?remove@decodeIOR_T@omniInterceptors@omni@@QAEXP6A_NAAVinfo_T@123@@Z@Z
?remove@encodeIOR_T@omniInterceptors@omni@@QAEXP6A_NAAVinfo_T@123@@Z@Z
?remove@giopServer@omni@@UAEXXZ
?remove@giopStreamList@omni@@QAEXXZ
?remove@invokeLocalCall_T@omniInterceptors@omni@@QAEXP6AXPAVomniCallDescriptor@@PAVomniServant@@@Z@Z
?remove@omniExHandlers_iterator@@QAEXPAVomniObjRef@@@Z
?remove@serverAcceptConnection_T@omniInterceptors@omni@@QAEXP6A_NAAVinfo_T@123@@Z@Z
?remove@serverReceiveRequest_T@omniInterceptors@omni@@QAEXP6A_NAAVinfo_T@123@@Z@Z
?remove@serverSendException_T@omniInterceptors@omni@@QAEXP6A_NAAVinfo_T@123@@Z@Z
?remove@serverSendReply_T@omniInterceptors@omni@@QAEXP6A_NAAVinfo_T@123@@Z@Z
?removeConnectionAndWorker@giopServer@omni@@AAEXPAVgiopWorker@2@@Z
?removeFromOAObjList@omniObjTableEntry@@QAEXXZ
?removeIdle@Scavenger@omni@@AAEXAAVStrandList@2@0_N@Z
?removeInterceptor@omniCallDescriptor@@SAXP6AXPAV1@PAVomniServant@@@Z@Z
?removeMonitor@tcpActiveCollection@omni@@IAEXI@Z
?removeSocket@SocketCollection@omni@@QAEXPAVSocketHolder@2@@Z
?replace@?$_CORBA_Sequence@E@@IAEXKKPAE_N@Z
?replace@?$_CORBA_Sequence@UTaggedProfile@IOP@@@@IAEXKKPAUTaggedProfile@IOP@@_N@Z
?replace@?$_CORBA_Unbounded_Sequence@UTaggedProfile@IOP@@@@QAEXKKPAUTaggedProfile@IOP@@_N@Z
?replace@_CORBA_Sequence_String@@IAEXKKPAPAD_N@Z
?replace@_CORBA_Unbounded_Sequence_Octet@@QAEXKKPAE_N@Z
?replace@_CORBA_Unbounded_Sequence_String@@QAEXKKPAPAD_N@Z
?replyId@GIOP_C@omni@@QAEXK@Z
?replyId@GIOP_C@omni@@QBEKXZ
?replyStatus@GIOP_C@omni@@QAEXW4ReplyStatusType@GIOP@@@Z
?replyStatus@GIOP_C@omni@@QBE?AW4ReplyStatusType@GIOP@@XZ
?repositoryID@omniIOR@@QBEPBDXZ
?requestId@giopStream@omni@@IAEXK@Z
?requestId@giopStream@omni@@IBEKXZ
?requestType@GIOP_S@omni@@QAEXW4MsgType@GIOP@@@Z
?requestType@GIOP_S@omni@@QBE?AW4MsgType@GIOP@@XZ
?reserve@?$omnivector@K@@QAEXI@Z
?reserve@?$omnivector@PAUEndpointURI@Options@omniObjAdapter@omni@@@@QAEXI@Z
?reserve@?$omnivector@PAUHandlerValuePair@orbOptions@omni@@@@QAEXI@Z
?reserve@?$omnivector@PAURuleActionPair@transportRules@omni@@@@QAEXI@Z
?reserve@?$omnivector@PAVHandler@orbOptions@omni@@@@QAEXI@Z
?reserve@?$omnivector@PAVObject@CORBA@@@@QAEXI@Z
?reserve@?$omnivector@PAVRuleType@transportRules@omni@@@@QAEXI@Z
?reserve@?$omnivector@PAVURIHandler@omniURI@omni@@@@QAEXI@Z
?reserve@?$omnivector@PAVgiopActiveCollection@omni@@@@QAEXI@Z
?reserve@?$omnivector@PAVgiopAddress@omni@@@@QAEXI@Z
?reserve@?$omnivector@PAVgiopEndpoint@omni@@@@QAEXI@Z
?reserve@?$omnivector@PAVgiopStrand@omni@@@@QAEXI@Z
?reserve@?$omnivector@PAVomniInitialiser@omni@@@@QAEXI@Z
?reserve@?$omnivector@PAVomniObjRef@@@@QAEXI@Z
?reserve@?$omnivector@PAVomniObjTableEntry@@@@QAEXI@Z
?reserve@?$omnivector@PAVomniTrackedObject@omni@@@@QAEXI@Z
?reserve@?$omnivector@PAVorbServer@omni@@@@QAEXI@Z
?reserve@?$omnivector@PBD@@QAEXI@Z
?reserve@?$omnivector@UresolvePseudoEntry@omni@@@@QAEXI@Z
?reserve@logger@omniORB@@AAEXH@Z
?reserveAndMarshalDouble@cdrStream@@AAEXN@Z
?reserveAndMarshalLong@cdrStream@@AAEXJ@Z
?reserveAndMarshalLongLong@cdrStream@@AAEX_J@Z
?reserveAndMarshalOctet@cdrStream@@AAEXE@Z
?reserveAndMarshalShort@cdrStream@@AAEXF@Z
?reserveAndMarshalULong@cdrStream@@AAEXK@Z
?reserveAndMarshalULongLong@cdrStream@@AAEX_K@Z
?reserveAndMarshalUShort@cdrStream@@AAEXG@Z
?reserveOutputSpace@cdrMemoryStream@@AAE_NW4alignment_t@omni@@I@Z
?reserveOutputSpaceForPrimitiveType@cdrCountingStream@@UAE_NW4alignment_t@omni@@I@Z
?reserveOutputSpaceForPrimitiveType@cdrMemoryStream@@UAE_NW4alignment_t@omni@@I@Z
?reserveOutputSpaceForPrimitiveType@cdrStreamAdapter@@MAE_NW4alignment_t@omni@@I@Z
?reserveOutputSpaceForPrimitiveType@cdrValueChunkStream@@UAE_NW4alignment_t@omni@@I@Z
?reserveOutputSpaceForPrimitiveType@giopStream@omni@@UAE_NW4alignment_t@2@I@Z
?reset@giopStream@omni@@QAEXXZ
?reset@orbOptions@omni@@QAEXXZ
?reset@transportRules@omni@@QAEXXZ
?resetKey@GIOP_S@omni@@QAEXXZ
?resetTimeOutOnRetries@orbParameters@omni@@3_NA
?resize@omniObjTable@@SAXXZ
?resolve@_objref_NamingContext@CosNaming@@QAEPAVObject@CORBA@@ABVName@2@@Z
?resolve@omniInitialReferences@omni@@SAPAVObject@CORBA@@PBDI@Z
?resolve_initial_references@omniOrbORB@@UAEPAVObject@CORBA@@PBD@Z
?resolve_str@_objref_NamingContextExt@CosNaming@@QAEPAVObject@CORBA@@PBD@Z
?response_expected@GIOP_S@omni@@QAEX_N@Z
?response_expected@GIOP_S@omni@@QBE_NXZ
?result@_0RL_cd_3c165f58b5a16b59_00000000@@QAE_NXZ
?result@_0RL_cd_3c165f58b5a16b59_20000000@@QAEPAVServantBase@PortableServer@@XZ
?result@_0RL_cd_3c165f58b5a16b59_60000000@@QAEPAVServantBase@PortableServer@@XZ
?result@_cCORBA_mObject_i_cstring@omniStdCallDesc@@QAEPAVObject@CORBA@@XZ
?result_expected@GIOP_S@omni@@QAEX_N@Z
?retry@CommFailure@giopStream@omni@@QBE_NXZ
?revertToOriginalProfile@omni@@YAXPAVomniObjRef@@@Z
?rewindInputPtr@cdrMemoryStream@@QAEXXZ
?rewindPtrs@cdrMemoryStream@@QAEXXZ
?rgtGlobal@?1??WspiapiLoad@@9@4@4PAUWSPIAPI_FUNCTION@@A
?rootPOA@omniOrbPOA@omni@@SAPAVPOA@PortableServer@@H@Z
?ropes@BiDirServerRope@omni@@2VRopeLink@2@A
?ropes@giopRope@omni@@1VRopeLink@2@A
?round@Fixed@CORBA@@QBE?AV12@G@Z
?run@omniAsyncWorker@@UAEXPAX@Z
?run@omniAsyncWorkerInfo@@UAEXXZ
?run@omniClientWorkerInfo@@UAEXXZ
?run@omniOrbORB@@UAEXXZ
?run@omniServerWorkerInfo@@UAEXXZ
?run_timeout@omniOrbORB@@QAE_NKK@Z
?run_undetached@omni_thread@@EAEPAXPAX@Z
?safeDelete@giopStrand@omni@@QAE_N_N@Z
?scanGranularity@orbParameters@omni@@3KA
?scan_interval@SocketCollection@omni@@2Uomni_time_t@@A
?sd_detachedObjectLock@omniObjAdapter@omni@@0Vomni_tracedmutex@@A
?sd_detachedObjectSignal@omniObjAdapter@omni@@0Vomni_tracedcondition@@A
?sd_interceptor_call@omniCallDescriptor@@0P6AXPAV1@PAVomniServant@@@ZA
?sd_interceptor_stack@omniCallDescriptor@@0PAUInterceptorFn@1@A
?sd_lock@omniAsyncCallDescriptor@@2Vomni_tracedmutex@@A
?selectRope@BiDirServerRope@omni@@SAHABV?$omnivector@PAVgiopAddress@omni@@@@PAVIORInfo@omniIOR@@AAPAVRope@2@@Z
?selectRope@giopRope@omni@@SAHABV?$omnivector@PAVgiopAddress@omni@@@@PAVIORInfo@omniIOR@@AAPAVRope@2@AA_N@Z
?self@omniAsyncWorkerInfo@@UAEPAVomni_thread@@XZ
?self@omniClientWorkerInfo@@UAEPAVomni_thread@@XZ
?self@omniServerWorkerInfo@@UAEPAVomni_thread@@XZ
?selfThread@omniTask@@QAEPAVomni_thread@@XZ
?sendChunk@giopStream@omni@@AAEXPAUgiopStream_Buffer@2@@Z
?sendCopyChunk@giopStream@omni@@AAEXPAXK@Z
?sendLocateReply@giopImpl10@omni@@SAXPAVgiopStream@2@W4LocateStatusType@GIOP@@PAVObject@CORBA@@PAVSystemException@7@@Z
?sendLocateReply@giopImpl11@omni@@SAXPAVgiopStream@2@W4LocateStatusType@GIOP@@PAVObject@CORBA@@PAVSystemException@7@@Z
?sendLocateReply@giopImpl12@omni@@SAXPAVgiopStream@2@W4LocateStatusType@GIOP@@PAVObject@CORBA@@PAVSystemException@7@@Z
?sendLocateRequest@giopImpl10@omni@@SAXPAVgiopStream@2@@Z
?sendLocateRequest@giopImpl11@omni@@SAXPAVgiopStream@2@@Z
?sendLocateRequest@giopImpl12@omni@@SAXPAVgiopStream@2@@Z
?sendLocationForwardReply@giopImpl10@omni@@SAXPAVgiopStream@2@PAVObject@CORBA@@_N@Z
?sendLocationForwardReply@giopImpl11@omni@@SAXPAVgiopStream@2@PAVObject@CORBA@@_N@Z
?sendLocationForwardReply@giopImpl12@omni@@SAXPAVgiopStream@2@PAVObject@CORBA@@_N@Z
?sendMsgErrorMessage@giopImpl10@omni@@SAXPAVgiopStream@2@PBVSystemException@CORBA@@@Z
?sendMsgErrorMessage@giopImpl11@omni@@SAXPAVgiopStream@2@PBVSystemException@CORBA@@@Z
?sendMsgErrorMessage@giopImpl12@omni@@SAXPAVgiopStream@2@PBVSystemException@CORBA@@@Z
?sendSystemException@giopImpl10@omni@@SAXPAVgiopStream@2@ABVSystemException@CORBA@@@Z
?sendSystemException@giopImpl11@omni@@SAXPAVgiopStream@2@ABVSystemException@CORBA@@@Z
?sendSystemException@giopImpl12@omni@@SAXPAVgiopStream@2@ABVSystemException@CORBA@@@Z
?sendUserException@giopImpl10@omni@@SAXPAVgiopStream@2@ABVUserException@CORBA@@@Z
?sendUserException@giopImpl11@omni@@SAXPAVgiopStream@2@ABVUserException@CORBA@@@Z
?sendUserException@giopImpl12@omni@@SAXPAVgiopStream@2@ABVUserException@CORBA@@@Z
?servant@omniLocalIdentity@@QBEPAVomniServant@@XZ
?servant__this@omniOrbPOA@omni@@QAEPAXPAVServantBase@PortableServer@@PBD@Z
?servant_to_id@omniOrbPOA@omni@@UAEPAVObjectId@PortableServer@@PAVServantBase@4@@Z
?servant_to_reference@omniOrbPOA@omni@@UAEPAVObject@CORBA@@PAVServantBase@PortableServer@@@Z
?server@giopWorker@omni@@QBEPAVgiopServer@2@XZ
?serverAcceptConnection@omniInterceptorP@omni@@2PAUelmT@12@A
?serverCallTimeOutPeriod@orbParameters@omni@@3Uomni_time_t@@A
?serverReceiveRequest@omniInterceptorP@omni@@2PAUelmT@12@A
?serverRules@transportRules@omni@@SAAAV12@XZ
?serverSendException@omniInterceptorP@omni@@2PAUelmT@12@A
?serverSendReply@omniInterceptorP@omni@@2PAUelmT@12@A
?service_contexts@GIOP_S@omni@@QAEAAV?$_CORBA_Unbounded_Sequence@UServiceContext@IOP@@@@XZ
?set@loader@omniORB@@SAXP6APAVObject@CORBA@@ABUomniOrbBoaKey@@@Z@Z
?setActive@omniObjTableEntry@@QAEXPAVomniServant@@PAVomniObjAdapter@omni@@@Z
?setAndCheckTimeout@tcpSocket@omni@@SAHABUomni_time_t@@AAUtimeval@@@Z
?setBlocking@SocketHolder@omni@@QAEXXZ
?setBlocking@tcpSocket@omni@@SAHI@Z
?setByteSwapFlag@cdrMemoryStream@@QAEX_N@Z
?setCallDescriptor@omniCurrent@@QAEXPAVomniCallDescriptor@@@Z
?setClientCallTimeout@omniORB@@YAXK@Z
?setClientCallTimeout@omniORB@@YAXPAVObject@CORBA@@K@Z
?setClientConnectTimeout@omniORB@@YAXK@Z
?setClientThreadCallDeadline@omniORB@@YAXKK@Z
?setClientThreadCallTimeout@omniORB@@YAXK@Z
?setCloseOnExec@tcpSocket@omni@@SAHI@Z
?setComplete@omniAsyncCallDescriptor@@QAEXXZ
?setDeactivating@omniObjTableEntry@@QAEXXZ
?setDeactivatingOA@omniObjTableEntry@@QAEXXZ
?setDead@omniObjTableEntry@@QAEXXZ
?setDeadline@giopStream@omni@@QAEXABUomni_time_t@@@Z
?setDeadline@omniCallDescriptor@@QAEXABUomni_time_t@@@Z
?setDeadline@omniCurrent@@QAEXABUomni_time_t@@@Z
?setDeadline@omniCurrent@@QAEXKK@Z
?setDefaultInitRefFromArgs@omniInitialReferences@omni@@SAXPBD@Z
?setDefaultInitRefFromFile@omniInitialReferences@omni@@SAXPBD@Z
?setEtherealising@omniObjTableEntry@@QAEXXZ
?setFromArgs@omniInitialReferences@omni@@SA_NPBD0@Z
?setFromFile@omniInitialReferences@omni@@SA_NPBD0@Z
?setFromORB@omniInitialReferences@omni@@SAXPBDPAVObject@CORBA@@@Z
?setHandler@omniAsyncCallDescriptor@@UAEXPAVomniObjRef@@@Z
?setLast@giopStream_Buffer@omni@@QAEXPAX@Z
?setLength@cdrValueChunkStream@@AAEXK@Z
?setLogFilename@omniORB@@YAXPBD@Z
?setLogFunction@omniORB@@YAXP6AXPBD@Z@Z
?setMainThread@omniORB@@YAXXZ
?setNonBlocking@SocketHolder@omni@@QAEXXZ
?setNonBlocking@tcpSocket@omni@@SAHI@Z
?setOctetSeq@cdrEncapsulationStream@@QAEXAAV_CORBA_Unbounded_Sequence_Octet@@@Z
?setOutputLastOffset@giopStream@omni@@AAEXXZ
?setPersistentServerIdentifier@omniORB@@YAXABV_CORBA_Unbounded_Sequence_Octet@@@Z
?setSelectable@SocketHolder@omni@@QAEXH_N0@Z
?setSelectable@tcpConnection@omni@@UAEXH_N@Z
?setServant@omniLocalIdentity@@QAEXPAVomniServant@@PAVomniObjAdapter@omni@@@Z
?setTimeout@omniCurrent@@QAEXABUomni_time_t@@@Z
?setTimeout@omniCurrent@@QAEXKK@Z
?setTimeout@tcpSocket@omni@@SA_NABUomni_time_t@@AAUtimeval@@@Z
?set_is_last@omniEtherealiser@@QAEXH@Z
?set_no_publish@giopEndpoint@omni@@QAEXXZ
?set_operation_size@GIOP_S@omni@@QAEXK@Z
?set_principal_size@GIOP_S@omni@@QAEXK@Z
?set_servant@omniOrbPOA@omni@@UAEXPAVServantBase@PortableServer@@@Z
?set_servant_manager@omniOrbPOA@omni@@UAEXPAVServantManager@PortableServer@@@Z
?set_size@omniObjKey@@QAEXH@Z
?setupInterception@omniCallDescriptor@@CAXPAV1@PAVomniServant@@@Z
?shutdown@Scavenger@omni@@0_NA
?shutdown@omniAsyncDedicated@@QAEXXZ
?shutdown@omniAsyncInvoker@@QAEXXZ
?shutdown@omniObjAdapter@omni@@SAXXZ
?shutdown@omniOrbORB@@UAEX_N@Z
?shutdown@omniOrbPOA@omni@@SAXXZ
?shutdown@proxyObjectFactory@omni@@SAXXZ
?singleshot@giopWorker@omni@@QBE_NXZ
?singleton@giopServer@omni@@SAAAPAV12@XZ
?singleton@omniShutdownIdentity@@SAPAV1@XZ
?singleton@orbOptions@omni@@SAAAV12@XZ
?size@?$omnivector@K@@QBEIXZ
?size@?$omnivector@PAUEndpointURI@Options@omniObjAdapter@omni@@@@QBEIXZ
?size@?$omnivector@PAUHandlerValuePair@orbOptions@omni@@@@QBEIXZ
?size@?$omnivector@PAURuleActionPair@transportRules@omni@@@@QBEIXZ
?size@?$omnivector@PAVHandler@orbOptions@omni@@@@QBEIXZ
?size@?$omnivector@PAVObject@CORBA@@@@QBEIXZ
?size@?$omnivector@PAVRuleType@transportRules@omni@@@@QBEIXZ
?size@?$omnivector@PAVURIHandler@omniURI@omni@@@@QBEIXZ
?size@?$omnivector@PAVgiopActiveCollection@omni@@@@QBEIXZ
?size@?$omnivector@PAVgiopAddress@omni@@@@QBEIXZ
?size@?$omnivector@PAVgiopEndpoint@omni@@@@QBEIXZ
?size@?$omnivector@PAVgiopStrand@omni@@@@QBEIXZ
?size@?$omnivector@PAVomniInitialiser@omni@@@@QBEIXZ
?size@?$omnivector@PAVomniObjRef@@@@QBEIXZ
?size@?$omnivector@PAVomniObjTableEntry@@@@QBEIXZ
?size@?$omnivector@PAVomniTrackedObject@omni@@@@QBEIXZ
?size@?$omnivector@PAVorbServer@omni@@@@QBEIXZ
?size@?$omnivector@PBD@@QBEIXZ
?size@?$omnivector@UresolvePseudoEntry@omni@@@@QBEIXZ
?size@omniObjKey@@QBEHXZ
?skipInput@cdrCountingStream@@UAEXK@Z
?skipInput@cdrMemoryStream@@UAEXK@Z
?skipInput@cdrStreamAdapter@@MAEXK@Z
?skipInput@cdrValueChunkStream@@UAEXK@Z
?skipInput@giopStream@omni@@UAEXK@Z
?skipInputData@giopImpl10@omni@@SAXPAVgiopStream@2@I@Z
?skipInputData@giopImpl11@omni@@SAXPAVgiopStream@2@I@Z
?skipInputData@giopImpl12@omni@@SAXPAVgiopStream@2@I@Z
?skipToNestedValue@cdrValueChunkStream@@QAE_NJ@Z
?sleepOnRdLock@giopStream@omni@@SAXPAVgiopStrand@2@@Z
?sleepOnRdLock@giopStream@omni@@UAEXXZ
?sleepOnRdLockAlways@giopStream@omni@@UAEXXZ
?socketSendBuffer@orbParameters@omni@@3HA
?sortHandlers@orbOptions@omni@@AAEXXZ
?start@giopServer@omni@@UAEXXZ
?startIdleCounter@giopStrand@omni@@QAE_NXZ
?startInputChunk@cdrValueChunkStream@@AAEXXZ
?startInputValueBody@cdrValueChunkStream@@QAEXXZ
?startOutputChunk@cdrValueChunkStream@@AAEXXZ
?startOutputValueBody@cdrValueChunkStream@@QAEXXZ
?startOutputValueHeader@cdrValueChunkStream@@QAEXJ@Z
?startRequest@omniObjAdapter@omni@@QAEXXZ
?start_adapteractivating_child_or_block@omniOrbPOA@omni@@AAEHPBD@Z
?state@GIOP_C@omni@@QAEXW4State@IOP_C@2@@Z
?state@GIOP_C@omni@@QBE?AW4State@IOP_C@2@XZ
?state@GIOP_S@omni@@QAEXW4State@IOP_S@2@@Z
?state@GIOP_S@omni@@QBE?AW4State@IOP_S@2@XZ
?state@giopStrand@omni@@QAEXW4State@12@@Z
?state@giopStrand@omni@@QBE?AW4State@12@XZ
?state@omniObjTableEntry@@QAE?AW4State@1@XZ
?stop@giopServer@omni@@UAEXXZ
?stop@omniAsyncPool@@QAEXXZ
?stop@omniAsyncWorker@@QAEXXZ
?stopIdleCounter@giopStrand@omni@@QAE_NXZ
?storeException@omniAsyncCallDescriptor@@QAEXABVException@CORBA@@@Z
?str2Address@giopAddress@omni@@SAPAV12@PBD@Z
?str2Endpoint@giopEndpoint@omni@@SAPAV12@PBD@Z
?str2Transport@giopTransportImpl@omni@@SAPAV12@PBD@Z
?strIsValidEndpoint@giopEndpoint@omni@@SA_NPBD@Z
?strMatch@omni@@YA_NPBD0@Z
?strand@giopStream@omni@@QAEAAVgiopStrand@2@XZ
?strand@giopWorker@omni@@QBEPAVgiopStrand@2@XZ
?strcasecmp@@YAHPBD0@Z
?strchr@@YAPADQADH@Z
?strictIIOP@orbParameters@omni@@3_NA
?stringToName@omniURI@omni@@SAPAVName@CosNaming@@PBD@Z
?stringToObject@omniURI@omni@@SAPAVObject@CORBA@@PBDI@Z
?string_alloc@CORBA@@YAPADK@Z
?string_dup@CORBA@@YAPADPBD@Z
?string_free@CORBA@@YAXPAD@Z
?string_to_ObjectId@PortableServer@@YAPAVObjectId@1@PBD@Z
?string_to_object@omniOrbORB@@UAEPAVObject@CORBA@@PBD@Z
?strip@omniExHelper@omni@@SAPBDPBD@Z
?strncasecmp@@YAHPBD0I@Z
?supportBootstrapAgent@orbParameters@omni@@3_NA
?supportCurrent@orbParameters@omni@@3_NA
?supportPerThreadTimeOut@orbParameters@omni@@3_NA
?supports@corbalocURIHandler@omni@@UAE_NPBD@Z
?supports@corbanameURIHandler@omni@@UAE_NPBD@Z
?supports@iorURIHandler@omni@@UAE_NPBD@Z
?synchronise_request@omniOrbBOA@omni@@QAEXXZ
?synchronise_request@omniOrbPOA@omni@@AAEXPAVomniLocalIdentity@@@Z
?syntaxIsValid@corbalocURIHandler@omni@@UAE_NPBD@Z
?syntaxIsValid@corbanameURIHandler@omni@@UAE_NPBD@Z
?syntaxIsValid@iorURIHandler@omni@@UAE_NPBD@Z
?tcAliasExpand@orbParameters@omni@@3_NA
?terminate@Scavenger@omni@@SAXXZ
?terminate@giopRendezvouser@omni@@QAEXXZ
?terminate@giopWorker@omni@@QAEXXZ
?theBOA@omniOrbBOA@omni@@SAPAV12@XZ
?theCurrent@omniOrbPOACurrent@omni@@SAPAVCurrent@PortableServer@@XZ
?theTask@Scavenger@omni@@0PAV12@A
?the_POAManager@omniOrbPOA@omni@@UAEPAVPOAManager@PortableServer@@XZ
?the_activator@omniOrbPOA@omni@@UAEPAVAdapterActivator@PortableServer@@XZ
?the_activator@omniOrbPOA@omni@@UAEXPAVAdapterActivator@PortableServer@@@Z
?the_children@omniOrbPOA@omni@@UAEPAVPOAList@PortableServer@@XZ
?the_name@omniOrbPOA@omni@@UAEPADXZ
?the_parent@omniOrbPOA@omni@@UAEPAVPOA@PortableServer@@XZ
?threadPerConnectionLowerLimit@orbParameters@omni@@3KA
?threadPerConnectionPolicy@orbParameters@omni@@3_NA
?threadPerConnectionUpperLimit@orbParameters@omni@@3KA
?threadPoolWatchConnection@orbParameters@omni@@3KA
?thread_key@omniCurrent@@0IA
?throwTransientOnTimeOut@orbParameters@omni@@3_NA
?timedwait@omni_condition@@QAEHABUomni_time_t@@@Z
?timeout@omniCurrent@@QAEABUomni_time_t@@XZ
?timeout_absolute@omniCurrent@@QAE_NXZ
?toAddress@tcpTransportImpl@omni@@UAEPAVgiopAddress@2@PBD@Z
?toEndpoint@tcpTransportImpl@omni@@UAEPAVgiopEndpoint@2@PBD@Z
?toObject@corbalocURIHandler@omni@@UAEPAVObject@CORBA@@PBDI@Z
?toObject@corbanameURIHandler@omni@@UAEPAVObject@CORBA@@PBDI@Z
?toObject@iorURIHandler@omni@@UAEPAVObject@CORBA@@PBDI@Z
?toU@NCS_C_8bit@omniCodeSet@omni@@QBEPB_WXZ
?to_name@_objref_NamingContextExt@CosNaming@@QAEPAVName@2@PBD@Z
?to_string@Fixed@CORBA@@QBEPADXZ
?to_string@_objref_NamingContextExt@CosNaming@@QAEPADABVName@2@@Z
?to_url@_objref_NamingContextExt@CosNaming@@QAEPADPBD0@Z
?total@cdrCountingStream@@QAEIXZ
?traceExceptions@omniORB@@3_NA
?traceInvocationReturns@omniORB@@3_NA
?traceInvocations@omniORB@@3_NA
?traceLevel@omniORB@@3KA
?traceLocking@omniORB@@3_NA
?traceThreadId@omniORB@@3_NA
?traceTime@omniORB@@3_NA
?truncate@Fixed@CORBA@@QBE?AV12@G@Z
?try_direct@omniCallHandle@@QBE_NXZ
?type@tcpActiveCollection@omni@@UBEPBDXZ
?type@tcpAddress@omni@@UBEPBDXZ
?type@tcpEndpoint@omni@@UBEPBDXZ
?ucheckFail@omni@@YAXPBDH0@Z
?unbind@_objref_NamingContext@CosNaming@@QAEXABVName@2@@Z
?unixTransportDirectory@orbParameters@omni@@3V_CORBA_String_var@@A
?unixTransportPermission@orbParameters@omni@@3GA
?unknown_adapter@_objref_AdapterActivator@PortableServer@@$4PPPPPPPM@A@AE_NPAVPOA@2@PBD@Z
?unknown_adapter@_objref_AdapterActivator@PortableServer@@UAE_NPAVPOA@2@PBD@Z
?unlock@omniServantActivatorTaskQueue@omni@@QAEXXZ
?unlock@omni_mutex@@QAEXXZ
?unlock@omni_rmutex@@QAEXXZ
?unmarshalArguments@_0RL_cd_69ceca6a39f685b5_00000000@@UAEXAAVcdrStream@@@Z
?unmarshalArguments@_0RL_cd_69ceca6a39f685b5_02000000@@UAEXAAVcdrStream@@@Z
?unmarshalArguments@_0RL_cd_69ceca6a39f685b5_20000000@@UAEXAAVcdrStream@@@Z
?unmarshalArguments@_0RL_cd_69ceca6a39f685b5_21000000@@UAEXAAVcdrStream@@@Z
?unmarshalArguments@_0RL_cd_69ceca6a39f685b5_40000000@@UAEXAAVcdrStream@@@Z
?unmarshalArguments@_0RL_cd_69ceca6a39f685b5_60000000@@UAEXAAVcdrStream@@@Z
?unmarshalArguments@_0RL_cd_69ceca6a39f685b5_61000000@@UAEXAAVcdrStream@@@Z
?unmarshalArguments@_0RL_cd_69ceca6a39f685b5_80000000@@UAEXAAVcdrStream@@@Z
?unmarshalArguments@_0RL_cd_69ceca6a39f685b5_a0000000@@UAEXAAVcdrStream@@@Z
?unmarshalArguments@_0RL_cd_69ceca6a39f685b5_a1000000@@UAEXAAVcdrStream@@@Z
?unmarshalArguments@_0RL_cd_69ceca6a39f685b5_c1000000@@UAEXAAVcdrStream@@@Z
?unmarshalArguments@_0RL_cd_69ceca6a39f685b5_e0000000@@UAEXAAVcdrStream@@@Z
?unmarshalArguments@_0RL_cd_69ceca6a39f685b5_e1000000@@UAEXAAVcdrStream@@@Z
?unmarshalArguments@_0RL_cd_96f078e2247ab9da_00000000@@UAEXAAVcdrStream@@@Z
?unmarshalArguments@_cCORBA_mObject_i_cstring@omniStdCallDesc@@UAEXAAVcdrStream@@@Z
?unmarshalArguments@omniCallDescriptor@@UAEXAAVcdrStream@@@Z
?unmarshalArguments@omni_is_a_CallDesc@omni@@UAEXAAVcdrStream@@@Z
?unmarshalArrayUShort@cdrStream@@QAEXPAGH@Z
?unmarshalBoolean@cdrStream@@QAE_NXZ
?unmarshalChar@NCS_C_8bit@omniCodeSet@omni@@UAEEAAVcdrStream@@PAVTCS_C@23@@Z
?unmarshalChar@NCS_C_UTF_8@omni@@UAEEAAVcdrStream@@PAVTCS_C@omniCodeSet@2@@Z
?unmarshalChar@TCS_C_8bit@omniCodeSet@omni@@UAE_WAAVcdrStream@@@Z
?unmarshalChar@TCS_C_UTF_8@omni@@UAE_WAAVcdrStream@@@Z
?unmarshalDouble@cdrStream@@QAENXZ
?unmarshalIORAddressingInfo@GIOP_S@omni@@QAEXXZ
?unmarshalLocateReply@giopImpl10@omni@@SAXPAVgiopStream@2@@Z
?unmarshalLocateReply@giopImpl11@omni@@SAXPAVgiopStream@2@@Z
?unmarshalLocateReply@giopImpl12@omni@@SAXPAVgiopStream@2@@Z
?unmarshalLocateRequest@giopImpl10@omni@@SAXPAVgiopStream@2@@Z
?unmarshalLocateRequest@giopImpl11@omni@@SAXPAVgiopStream@2@@Z
?unmarshalLocateRequest@giopImpl12@omni@@SAXPAVgiopStream@2@@Z
?unmarshalLong@cdrStream@@QAEJXZ
?unmarshalLongLong@cdrStream@@QAE_JXZ
?unmarshalMultiComponentProfile@IIOP@@SAXABUTaggedProfile@IOP@@AAV?$_CORBA_Unbounded_Sequence@UTaggedComponent@IOP@@@@@Z
?unmarshalObjRef@AdapterActivator_Helper@PortableServer@@SAPAVAdapterActivator@2@AAVcdrStream@@@Z
?unmarshalObjRef@BindingIterator_Helper@CosNaming@@SAPAV_objref_BindingIterator@2@AAVcdrStream@@@Z
?unmarshalObjRef@CORBA_InitialReferences_Helper@@SAPAV_objref_CORBA_InitialReferences@@AAVcdrStream@@@Z
?unmarshalObjRef@LocalObject_Helper@CORBA@@SAPAVLocalObject@2@AAVcdrStream@@@Z
?unmarshalObjRef@NamingContextExt_Helper@CosNaming@@SAPAV_objref_NamingContextExt@2@AAVcdrStream@@@Z
?unmarshalObjRef@NamingContext_Helper@CosNaming@@SAPAV_objref_NamingContext@2@AAVcdrStream@@@Z
?unmarshalObjRef@Object_Helper@CORBA@@SAPAVObject@2@AAVcdrStream@@@Z
?unmarshalObjRef@ServantActivator_Helper@PortableServer@@SAPAVServantActivator@2@AAVcdrStream@@@Z
?unmarshalObjRef@ServantLocator_Helper@PortableServer@@SAPAVServantLocator@2@AAVcdrStream@@@Z
?unmarshalObjRef@ServantManager_Helper@PortableServer@@SAPAVServantManager@2@AAVcdrStream@@@Z
?unmarshalObjectKey@IIOP@@SAXABUTaggedProfile@IOP@@AAV_CORBA_Unbounded_Sequence_Octet@@@Z
?unmarshalOctet@cdrStream@@QAEEXZ
?unmarshalProfile@IIOP@@SAXABUTaggedProfile@IOP@@AAUProfileBody@1@@Z
?unmarshalRawString@cdrStream@@QAEPADXZ
?unmarshalReplyHeader@giopImpl10@omni@@SAXPAVgiopStream@2@@Z
?unmarshalReplyHeader@giopImpl11@omni@@SAXPAVgiopStream@2@@Z
?unmarshalReplyHeader@giopImpl12@omni@@SAXPAVgiopStream@2@@Z
?unmarshalRequestHeader@giopImpl10@omni@@SAXPAVgiopStream@2@@Z
?unmarshalRequestHeader@giopImpl11@omni@@SAXPAVgiopStream@2@@Z
?unmarshalRequestHeader@giopImpl12@omni@@SAXPAVgiopStream@2@@Z
?unmarshalReturnedValues@_0RL_cd_69ceca6a39f685b5_02000000@@UAEXAAVcdrStream@@@Z
?unmarshalReturnedValues@_0RL_cd_69ceca6a39f685b5_21000000@@UAEXAAVcdrStream@@@Z
?unmarshalReturnedValues@_0RL_cd_69ceca6a39f685b5_41000000@@UAEXAAVcdrStream@@@Z
?unmarshalReturnedValues@_0RL_cd_69ceca6a39f685b5_61000000@@UAEXAAVcdrStream@@@Z
?unmarshalReturnedValues@_0RL_cd_69ceca6a39f685b5_80000000@@UAEXAAVcdrStream@@@Z
?unmarshalReturnedValues@_0RL_cd_69ceca6a39f685b5_a1000000@@UAEXAAVcdrStream@@@Z
?unmarshalReturnedValues@_0RL_cd_69ceca6a39f685b5_c0000000@@UAEXAAVcdrStream@@@Z
?unmarshalReturnedValues@_0RL_cd_69ceca6a39f685b5_c1000000@@UAEXAAVcdrStream@@@Z
?unmarshalReturnedValues@_0RL_cd_69ceca6a39f685b5_e0000000@@UAEXAAVcdrStream@@@Z
?unmarshalReturnedValues@_0RL_cd_69ceca6a39f685b5_e1000000@@UAEXAAVcdrStream@@@Z
?unmarshalReturnedValues@_0RL_cd_96f078e2247ab9da_00000000@@UAEXAAVcdrStream@@@Z
?unmarshalReturnedValues@_0RL_cd_96f078e2247ab9da_20000000@@UAEXAAVcdrStream@@@Z
?unmarshalReturnedValues@_cCORBA_mObject_i_cstring@omniStdCallDesc@@UAEXAAVcdrStream@@@Z
?unmarshalReturnedValues@omniCallDescriptor@@UAEXAAVcdrStream@@@Z
?unmarshalReturnedValues@omni_interface_CallDesc@omni@@UAEXAAVcdrStream@@@Z
?unmarshalReturnedValues@omni_is_a_CallDesc@omni@@UAEXAAVcdrStream@@@Z
?unmarshalReturnedValues@omni_non_existent_CallDesc@omni@@UAEXAAVcdrStream@@@Z
?unmarshalShort@cdrStream@@QAEFXZ
?unmarshalString@NCS_C_8bit@omniCodeSet@omni@@UAEKAAVcdrStream@@PAVTCS_C@23@KAAPAD@Z
?unmarshalString@NCS_C_UTF_8@omni@@UAEKAAVcdrStream@@PAVTCS_C@omniCodeSet@2@KAAPAD@Z
?unmarshalString@TCS_C_8bit@omniCodeSet@omni@@UAEKAAVcdrStream@@KAAPA_W@Z
?unmarshalString@TCS_C_UTF_8@omni@@UAEKAAVcdrStream@@KAAPA_W@Z
?unmarshalString@cdrStream@@QAEPADH@Z
?unmarshalULong@cdrStream@@QAEKXZ
?unmarshalULongLong@cdrStream@@QAE_KXZ
?unmarshalUShort@cdrStream@@QAEGXZ
?unmarshalWChar@NCS_W_16bit@omniCodeSet@omni@@UAE_WAAVcdrStream@@PAVTCS_W@23@@Z
?unmarshalWChar@NCS_W_UTF_16@omni@@UAE_WAAVcdrStream@@PAVTCS_W@omniCodeSet@2@@Z
?unmarshalWChar@TCS_W_16bit@omniCodeSet@omni@@UAE_WAAVcdrStream@@@Z
?unmarshalWChar@TCS_W_UTF_16@omni@@UAE_WAAVcdrStream@@@Z
?unmarshalWString@NCS_W_16bit@omniCodeSet@omni@@UAEKAAVcdrStream@@PAVTCS_W@23@KAAPA_W@Z
?unmarshalWString@NCS_W_UTF_16@omni@@UAEKAAVcdrStream@@PAVTCS_W@omniCodeSet@2@KAAPA_W@Z
?unmarshalWString@TCS_W_16bit@omniCodeSet@omni@@UAEKAAVcdrStream@@KAAPA_W@Z
?unmarshalWString@TCS_W_UTF_16@omni@@UAEKAAVcdrStream@@KAAPA_W@Z
?unmarshalWString@cdrStream@@QAEPA_WH@Z
?unmarshalWildCardRequestHeader@giopImpl10@omni@@SAXPAVgiopStream@2@@Z
?unmarshalWildCardRequestHeader@giopImpl11@omni@@SAXPAVgiopStream@2@@Z
?unmarshalWildCardRequestHeader@giopImpl12@omni@@SAXPAVgiopStream@2@@Z
?unmarshal_TAG_ALTERNATE_IIOP_ADDRESS@omniIOR@@SAXABUTaggedComponent@IOP@@AAV1@@Z
?unmarshal_TAG_CODE_SETS@omniIOR@@SAXABUTaggedComponent@IOP@@AAV1@@Z
?unmarshal_TAG_CSI_SEC_MECH_LIST@omniIOR@@SAXABUTaggedComponent@IOP@@AAV1@@Z
?unmarshal_TAG_OMNIORB_BIDIR@omniIOR@@SAXABUTaggedComponent@IOP@@AAV1@@Z
?unmarshal_TAG_OMNIORB_PERSISTENT_ID@omniIOR@@SAXABUTaggedComponent@IOP@@AAV1@@Z
?unmarshal_TAG_OMNIORB_UNIX_TRANS@omniIOR@@SAXABUTaggedComponent@IOP@@AAV1@@Z
?unmarshal_TAG_ORB_TYPE@omniIOR@@SAXABUTaggedComponent@IOP@@AAV1@@Z
?unmarshal_TAG_SSL_SEC_TRANS@omniIOR@@SAXABUTaggedComponent@IOP@@AAV1@@Z
?unmarshal_byte_swap@cdrStream@@QBE_NXZ
?unmarshaltype_id@IOR@IOP@@SAPADAAVcdrStream@@@Z
?upcall@omniCallHandle@@QAEXPAVomniServant@@AAVomniCallDescriptor@@@Z
?uriSyntaxIsValid@omniURI@omni@@SA_NPBD@Z
?usage@Handler@orbOptions@omni@@QBEPBDXZ
?usage@orbOptions@omni@@QBEPAVStringSeq@CORBA@@XZ
?usageArgv@Handler@orbOptions@omni@@QBEPBDXZ
?usageArgv@orbOptions@omni@@QBEPAVStringSeq@CORBA@@XZ
?useTypeCodeIndirections@orbParameters@omni@@3_NA
?userException@_0RL_cd_69ceca6a39f685b5_00000000@@UAEXAAVcdrStream@@PAVIOP_C@omni@@PBD@Z
?userException@_0RL_cd_69ceca6a39f685b5_01000000@@UAEXAAVcdrStream@@PAVIOP_C@omni@@PBD@Z
?userException@_0RL_cd_69ceca6a39f685b5_02000000@@UAEXAAVcdrStream@@PAVIOP_C@omni@@PBD@Z
?userException@_0RL_cd_69ceca6a39f685b5_20000000@@UAEXAAVcdrStream@@PAVIOP_C@omni@@PBD@Z
?userException@_0RL_cd_69ceca6a39f685b5_40000000@@UAEXAAVcdrStream@@PAVIOP_C@omni@@PBD@Z
?userException@_0RL_cd_69ceca6a39f685b5_60000000@@UAEXAAVcdrStream@@PAVIOP_C@omni@@PBD@Z
?userException@_0RL_cd_69ceca6a39f685b5_80000000@@UAEXAAVcdrStream@@PAVIOP_C@omni@@PBD@Z
?userException@_0RL_cd_69ceca6a39f685b5_a0000000@@UAEXAAVcdrStream@@PAVIOP_C@omni@@PBD@Z
?userException@_0RL_cd_69ceca6a39f685b5_a1000000@@UAEXAAVcdrStream@@PAVIOP_C@omni@@PBD@Z
?userException@_0RL_cd_69ceca6a39f685b5_c1000000@@UAEXAAVcdrStream@@PAVIOP_C@omni@@PBD@Z
?userException@_0RL_cd_69ceca6a39f685b5_e0000000@@UAEXAAVcdrStream@@PAVIOP_C@omni@@PBD@Z
?userException@_0RL_cd_69ceca6a39f685b5_e1000000@@UAEXAAVcdrStream@@PAVIOP_C@omni@@PBD@Z
?userException@omniCallDescriptor@@UAEXAAVcdrStream@@PAVIOP_C@omni@@PBD@Z
?user_excns@omniCallDescriptor@@QAEPBQBDXZ
?validHostPort@omniURI@omni@@SA_NPBD@Z
?validHostPortRange@omniURI@omni@@SA_NPBD@Z
?validateString@TCS_C_UTF_8@omni@@QAEXPBDW4CompletionStatus@CORBA@@@Z
?validateUserException@omniCallDescriptor@@QAEXABVUserException@CORBA@@@Z
?value@BidirectionalPolicy@BiDirPolicy@@UAEGXZ
?value@EndPointPublishPolicy@omniPolicy@@UAEABVStringSeq@CORBA@@XZ
?value@IdAssignmentPolicy@PortableServer@@UAE?AW4IdAssignmentPolicyValue@2@XZ
?value@IdUniquenessPolicy@PortableServer@@UAE?AW4IdUniquenessPolicyValue@2@XZ
?value@ImplicitActivationPolicy@PortableServer@@UAE?AW4ImplicitActivationPolicyValue@2@XZ
?value@LifespanPolicy@PortableServer@@UAE?AW4LifespanPolicyValue@2@XZ
?value@LocalShortcutPolicy@omniPolicy@@UAEGXZ
?value@RequestProcessingPolicy@PortableServer@@UAE?AW4RequestProcessingPolicyValue@2@XZ
?value@ServantRetentionPolicy@PortableServer@@UAE?AW4ServantRetentionPolicyValue@2@XZ
?value@ThreadPolicy@PortableServer@@UAE?AW4ThreadPolicyValue@2@XZ
?value@omni_refcount@@QAEHXZ
?verifyObjectExistsAndType@orbParameters@omni@@3_NA
?version@IORInfo@omniIOR@@QAEXABUVersion@GIOP@@@Z
?version@IORInfo@omniIOR@@QBEABUVersion@GIOP@@XZ
?version@giopStream@omni@@QAE?AUVersion@GIOP@@XZ
?version@giopStreamImpl@omni@@QAE?AUVersion@GIOP@@XZ
?versionHex@omniORB@@YAKXZ
?versionString@omniORB@@YAPBDXZ
?visit@DefaultInitRefHandler@omni@@UAEXPBDW4Source@orbOptions@2@@Z
?visit@InitRefHandler@omni@@UAEXPBDW4Source@orbOptions@2@@Z
?visit@abortOnInternalErrorHandler@@UAEXPBDW4Source@orbOptions@omni@@@Z
?visit@abortOnNativeExceptionHandler@@UAEXPBDW4Source@orbOptions@omni@@@Z
?visit@acceptBiDirectionalGIOPHandler@omni@@UAEXPBDW4Source@orbOptions@2@@Z
?visit@acceptMisalignedTcIndirectionsHandler@omni@@UAEXPBDW4Source@orbOptions@2@@Z
?visit@bootstrapAgentHostnameHandler@omni@@UAEXPBDW4Source@orbOptions@2@@Z
?visit@bootstrapAgentPortHandler@omni@@UAEXPBDW4Source@orbOptions@2@@Z
?visit@clientCallTimeOutPeriodHandler@omni@@UAEXPBDW4Source@orbOptions@2@@Z
?visit@clientConnectTimeOutPeriodHandler@omni@@UAEXPBDW4Source@orbOptions@2@@Z
?visit@clientTransportRuleHandler@omni@@UAEXPBDW4Source@orbOptions@2@@Z
?visit@configFileHandler@omni@@UAEXPBDW4Source@orbOptions@2@@Z
?visit@connectionWatchImmediateHandler@omni@@UAEXPBDW4Source@orbOptions@2@@Z
?visit@connectionWatchPeriodHandler@omni@@UAEXPBDW4Source@orbOptions@2@@Z
?visit@copyValuesInLocalCallsHandler@omni@@UAEXPBDW4Source@orbOptions@2@@Z
?visit@diiThrowsSysExceptionsHandler@omni@@UAEXPBDW4Source@orbOptions@2@@Z
?visit@dumpConfigurationHandler@omni@@UAEXPBDW4Source@orbOptions@2@@Z
?visit@endpointHandler@omni@@UAEXPBDW4Source@orbOptions@2@@Z
?visit@endpointNoListenHandler@omni@@UAEXPBDW4Source@orbOptions@2@@Z
?visit@endpointNoPublishHandler@omni@@UAEXPBDW4Source@orbOptions@2@@Z
?visit@endpointPublishAllIFsHandler@omni@@UAEXPBDW4Source@orbOptions@2@@Z
?visit@endpointPublishHandler@omni@@UAEXPBDW4Source@orbOptions@2@@Z
?visit@giopMaxMsgSizeHandler@omni@@UAEXPBDW4Source@orbOptions@2@@Z
?visit@giopTargetAddressModeHandler@omni@@UAEXPBDW4Source@orbOptions@2@@Z
?visit@helpHandler@omni@@UAEXPBDW4Source@orbOptions@2@@Z
?visit@idHandler@omni@@UAEXPBDW4Source@orbOptions@2@@Z
?visit@idleThreadTimeoutHandler@omni@@UAEXPBDW4Source@orbOptions@2@@Z
?visit@immediateRopeSwitchHandler@omni@@UAEXPBDW4Source@orbOptions@2@@Z
?visit@inConScanPeriodHandler@omni@@UAEXPBDW4Source@orbOptions@2@@Z
?visit@lcdModeHandler@omni@@UAEXPBDW4Source@orbOptions@2@@Z
?visit@listenBacklogHandler@omni@@UAEXPBDW4Source@orbOptions@2@@Z
?visit@maxClientThreadPoolSizeHandler@omni@@UAEXPBDW4Source@orbOptions@2@@Z
?visit@maxGIOPConnectionPerServerHandler@omni@@UAEXPBDW4Source@orbOptions@2@@Z
?visit@maxGIOPVersionHandler@omni@@UAEXPBDW4Source@orbOptions@2@@Z
?visit@maxInterleavedCallsPerConnectionHandler@omni@@UAEXPBDW4Source@orbOptions@2@@Z
?visit@maxServerThreadPerConnectionHandler@omni@@UAEXPBDW4Source@orbOptions@2@@Z
?visit@maxServerThreadPoolSizeHandler@omni@@UAEXPBDW4Source@orbOptions@2@@Z
?visit@maxSocketRecvHandler@omni@@UAEXPBDW4Source@orbOptions@2@@Z
?visit@maxSocketSendHandler@omni@@UAEXPBDW4Source@orbOptions@2@@Z
?visit@nativeCharCodeSetHandler@@UAEXPBDW4Source@orbOptions@omni@@@Z
?visit@nativeWCharCodeSetHandler@@UAEXPBDW4Source@orbOptions@omni@@@Z
?visit@objectTableSizeHandler@@UAEXPBDW4Source@orbOptions@omni@@@Z
?visit@offerBiDirectionalGIOPHandler@omni@@UAEXPBDW4Source@orbOptions@2@@Z
?visit@omniInterceptorP@omni@@SAXAAVinfo_T@clientOpenConnection_T@omniInterceptors@2@@Z
?visit@omniInterceptorP@omni@@SAXAAVinfo_T@clientReceiveReply_T@omniInterceptors@2@@Z
?visit@omniInterceptorP@omni@@SAXAAVinfo_T@clientSendRequest_T@omniInterceptors@2@@Z
?visit@omniInterceptorP@omni@@SAXAAVinfo_T@createIdentity_T@omniInterceptors@2@@Z
?visit@omniInterceptorP@omni@@SAXAAVinfo_T@createORBServer_T@omniInterceptors@2@@Z
?visit@omniInterceptorP@omni@@SAXAAVinfo_T@createRope_T@omniInterceptors@2@@Z
?visit@omniInterceptorP@omni@@SAXAAVinfo_T@decodeIOR_T@omniInterceptors@2@@Z
?visit@omniInterceptorP@omni@@SAXAAVinfo_T@encodeIOR_T@omniInterceptors@2@@Z
?visit@omniInterceptorP@omni@@SAXAAVinfo_T@serverAcceptConnection_T@omniInterceptors@2@@Z
?visit@omniInterceptorP@omni@@SAXAAVinfo_T@serverReceiveRequest_T@omniInterceptors@2@@Z
?visit@omniInterceptorP@omni@@SAXAAVinfo_T@serverSendException_T@omniInterceptors@2@@Z
?visit@omniInterceptorP@omni@@SAXAAVinfo_T@serverSendReply_T@omniInterceptors@2@@Z
?visit@oneCallPerConnectionHandler@omni@@UAEXPBDW4Source@orbOptions@2@@Z
?visit@orbOptions@omni@@QAEXXZ
?visit@outConScanPeriodHandler@omni@@UAEXPBDW4Source@orbOptions@2@@Z
?visit@poaHoldRequestTimeoutHandler@omni@@UAEXPBDW4Source@orbOptions@2@@Z
?visit@poaUniquePersistentSystemIdsHandler@omni@@UAEXPBDW4Source@orbOptions@2@@Z
?visit@principalHandler@omni@@UAEXPBDW4Source@orbOptions@2@@Z
?visit@resetTimeOutOnRetriesHandler@omni@@UAEXPBDW4Source@orbOptions@2@@Z
?visit@scanGranularityHandler@omni@@UAEXPBDW4Source@orbOptions@2@@Z
?visit@serverCallTimeOutPeriodHandler@omni@@UAEXPBDW4Source@orbOptions@2@@Z
?visit@serverTransportRuleHandler@omni@@UAEXPBDW4Source@orbOptions@2@@Z
?visit@socketSendBufferHandler@omni@@UAEXPBDW4Source@orbOptions@2@@Z
?visit@strictIIOPHandler@omni@@UAEXPBDW4Source@orbOptions@2@@Z
?visit@supportBootstrapAgentHandler@omni@@UAEXPBDW4Source@orbOptions@2@@Z
?visit@supportCurrentHandler@@UAEXPBDW4Source@orbOptions@omni@@@Z
?visit@supportPerThreadTimeOutHandler@omni@@UAEXPBDW4Source@orbOptions@2@@Z
?visit@tcAliasExpandHandler@omni@@UAEXPBDW4Source@orbOptions@2@@Z
?visit@threadPerConnectionLowerLimitHandler@omni@@UAEXPBDW4Source@orbOptions@2@@Z
?visit@threadPerConnectionPolicyHandler@omni@@UAEXPBDW4Source@orbOptions@2@@Z
?visit@threadPerConnectionUpperLimitHandler@omni@@UAEXPBDW4Source@orbOptions@2@@Z
?visit@threadPoolWatchConnectionHandler@omni@@UAEXPBDW4Source@orbOptions@2@@Z
?visit@throwTransientOnTimeOutHandler@@UAEXPBDW4Source@orbOptions@omni@@@Z
?visit@traceExceptionsHandler@@UAEXPBDW4Source@orbOptions@omni@@@Z
?visit@traceFileHandler@@UAEXPBDW4Source@orbOptions@omni@@@Z
?visit@traceInvocationReturnsHandler@@UAEXPBDW4Source@orbOptions@omni@@@Z
?visit@traceInvocationsHandler@@UAEXPBDW4Source@orbOptions@omni@@@Z
?visit@traceLevelHandler@@UAEXPBDW4Source@orbOptions@omni@@@Z
?visit@traceLockingHandler@@UAEXPBDW4Source@orbOptions@omni@@@Z
?visit@traceThreadIdHandler@@UAEXPBDW4Source@orbOptions@omni@@@Z
?visit@traceTimeHandler@@UAEXPBDW4Source@orbOptions@omni@@@Z
?visit@unixTransportDirectoryHandler@omni@@UAEXPBDW4Source@orbOptions@2@@Z
?visit@unixTransportPermissionHandler@omni@@UAEXPBDW4Source@orbOptions@2@@Z
?visit@useTypeCodeIndirectionsHandler@omni@@UAEXPBDW4Source@orbOptions@2@@Z
?visit@validateUTF8Handler@omni@@UAEXPBDW4Source@orbOptions@2@@Z
?visit@verifyObjectExistsAndTypeHandler@omni@@UAEXPBDW4Source@orbOptions@2@@Z
?wait@omniObjTableEntry@@QAE?AW4State@1@K@Z
?waitForActiveRequestsToComplete@omniObjAdapter@omni@@QAEXH@Z
?waitForAllRequestsToComplete@omniObjAdapter@omni@@QAEXH@Z
?waitForLastIdentity@omniIdentity@@SAXXZ
?waitRead@tcpSocket@omni@@SAHIAAUtimeval@@@Z
?waitWrite@tcpSocket@omni@@SAHIAAUtimeval@@@Z
?wait_for_detached_objects@omniObjAdapter@omni@@QAEXXZ
?wakeUp@SocketCollection@omni@@QAEXXZ
?wakeUpRdLock@giopStream@omni@@SAXPAVgiopStrand@2@@Z
?width@TCS_C_UTF_8@omni@@AAEHK@Z
?work_pending@omniAsyncDedicated@@QAE_NXZ
?work_pending@omniAsyncInvoker@@QAE_NXZ
?work_pending@omniOrbORB@@UAE_NXZ
?worker@GIOP_S@omni@@QAEXPAVgiopWorker@2@@Z
?workerRun@omniAsyncPoolClient@@UAEXPAVomniAsyncWorker@@@Z
?workerRun@omniAsyncPoolGeneral@@UAEXPAVomniAsyncWorker@@@Z
?workerRun@omniAsyncPoolServer@@UAEXPAVomniAsyncWorker@@@Z
?workerStart@omniAsyncInvoker@@AAEIXZ
?workerStart@omniAsyncPool@@QAEIPAVomniAsyncWorker@@@Z
?workerStartLocked@omniAsyncInvoker@@AAEIXZ
?workerStop@omniAsyncInvoker@@AAEIXZ
?workerStop@omniAsyncPool@@QAEIPAVomniAsyncWorker@@@Z
?wrLock@giopStream@omni@@UAEXXZ
?wrUnLock@giopStream@omni@@UAEXXZ
?write_key@omniObjKey@@QAEPAEXZ
?wstring_alloc@CORBA@@YAPA_WK@Z
?wstring_dup@CORBA@@YAPA_WPB_W@Z
?wstring_free@CORBA@@YAXPA_W@Z
?wstring_to_ObjectId@PortableServer@@YAPAVObjectId@1@PB_W@Z
