LIBRARY shareddebug/omniConnectionMgmt421_vc14_rtd
VERSION 2.1
EXPORTS
??0?$_CORBA_Sequence@E@@IAE@XZ
??0?$_CORBA_Sequence@UTaggedComponent@IOP@@@@IAE@K_N@Z
??0?$_CORBA_Sequence@UTaggedComponent@IOP@@@@IAE@XZ
??0?$_CORBA_Sequence@UTaggedProfile@IOP@@@@IAE@ABV0@@Z
??0?$_CORBA_Unbounded_Sequence@UTaggedComponent@IOP@@@@QAE@K@Z
??0?$_CORBA_Unbounded_Sequence@UTaggedComponent@IOP@@@@QAE@XZ
??0?$_CORBA_Unbounded_Sequence@UTaggedProfile@IOP@@@@QAE@ABV0@@Z
??0Address@IIOP@@QAE@XZ
??0IORExtraInfo@omniIOR@@QAE@K@Z
??0ProfileBody@IIOP@@QAE@XZ
??0RestrictedInfo@omni@@QAE@XZ
??0ServiceContext@IOP@@QAE@XZ
??0TaggedComponent@IOP@@QAE@XZ
??0TaggedProfile@IOP@@QAE@XZ
??0TaggedProfileList_var@IOP@@QAE@PAV?$_CORBA_Unbounded_Sequence@UTaggedProfile@IOP@@@@@Z
??0_CORBA_Sequence_Octet@@IAE@XZ
??0_CORBA_String_member@@QAE@XZ
??0_CORBA_Unbounded_Sequence_Octet@@QAE@XZ
??0omniConnectionMgmt_initialiser@@QAE@XZ
??0omniIOR_var@@QAE@PAVomniIOR@@@Z
??0omniInitialiser@omni@@QAE@XZ
??0restrictedGiopRope@omni@@QAE@ABV?$omnivector@PAVgiopAddress@omni@@@@PAVIORInfo@omniIOR@@KK_N2@Z
??1?$_CORBA_ObjRef_Member@V_objref_IDLType@CORBA@@VIDLType_Helper@2@@@QAE@XZ
??1?$_CORBA_PseudoObj_Member@VDynAny@DynamicAny@@V?$_CORBA_PseudoObj_Var@VDynAny@DynamicAny@@@@@@QAE@XZ
??1?$_CORBA_PseudoObj_Member@VPolicy@CORBA@@V?$_CORBA_PseudoObj_Var@VPolicy@CORBA@@@@@@QAE@XZ
??1?$_CORBA_Sequence@E@@QAE@XZ
??1?$_CORBA_Sequence@UNameComponent@CosNaming@@@@QAE@XZ
??1?$_CORBA_Sequence@UTaggedComponent@IOP@@@@QAE@XZ
??1?$_CORBA_Sequence@UTaggedProfile@IOP@@@@QAE@XZ
??1?$_CORBA_Unbounded_Sequence@UNameComponent@CosNaming@@@@QAE@XZ
??1?$_CORBA_Unbounded_Sequence@UTaggedComponent@IOP@@@@QAE@XZ
??1?$_CORBA_Unbounded_Sequence@UTaggedProfile@IOP@@@@QAE@XZ
??1Address@IIOP@@QAE@XZ
??1Binding@CosNaming@@QAE@XZ
??1IORExtraInfo@omniIOR@@UAE@XZ
??1Name@CosNaming@@QAE@XZ
??1NameComponent@CosNaming@@QAE@XZ
??1NameDynAnyPair@DynamicAny@@QAE@XZ
??1NameValuePair@DynamicAny@@QAE@XZ
??1ProfileBody@IIOP@@QAE@XZ
??1RestrictedInfo@omni@@UAE@XZ
??1ServiceContext@IOP@@QAE@XZ
??1StructMember@CORBA@@QAE@XZ
??1TaggedComponent@IOP@@QAE@XZ
??1TaggedProfile@IOP@@QAE@XZ
??1TaggedProfileList_var@IOP@@QAE@XZ
??1UnionMember@CORBA@@QAE@XZ
??1ValueMember@CORBA@@QAE@XZ
??1_CORBA_Sequence_Octet@@IAE@XZ
??1_CORBA_String_member@@QAE@XZ
??1_CORBA_Unbounded_Sequence_Octet@@QAE@XZ
??1cdrEncapsulationStream@@UAE@XZ
??1omniIOR_var@@QAE@XZ
??1restrictedGiopRope@omni@@UAE@XZ
??4?$_CORBA_Sequence@E@@IAEAAV0@ABV0@@Z
??4ServiceContext@IOP@@QAEAAU01@ABU01@@Z
??4TaggedComponent@IOP@@QAEAAU01@ABU01@@Z
??4TaggedProfile@IOP@@QAEAAU01@ABU01@@Z
??4_CORBA_Sequence_Octet@@IAEAAV0@ABV0@@Z
??4_CORBA_Unbounded_Sequence_Octet@@QAEAAV0@ABV0@@Z
??6logger@omniORB@@QAEAAV01@G@Z
??A?$_CORBA_PseudoValue_Sequence@PAVIORExtraInfo@omniIOR@@@@QAEAAPAVIORExtraInfo@omniIOR@@K@Z
??A?$_CORBA_Sequence@UServiceContext@IOP@@@@QAEAAUServiceContext@IOP@@K@Z
??A?$_CORBA_Sequence@UTaggedComponent@IOP@@@@QAEAAUTaggedComponent@IOP@@K@Z
??A?$_CORBA_Sequence@UTaggedComponent@IOP@@@@QBEABUTaggedComponent@IOP@@K@Z
??A?$_CORBA_Sequence@UTaggedProfile@IOP@@@@QAEAAUTaggedProfile@IOP@@K@Z
??ATaggedProfileList_var@IOP@@QAEAAUTaggedProfile@1@K@Z
??BTaggedProfileList_var@IOP@@QBEABV?$_CORBA_Unbounded_Sequence@UTaggedProfile@IOP@@@@XZ
??B_CORBA_String_member@@QBEPBDXZ
??CTaggedProfileList_var@IOP@@QAEPAV?$_CORBA_Unbounded_Sequence@UTaggedProfile@IOP@@@@XZ
??ComniIOR_var@@QBEPAVomniIOR@@XZ
??_2@YAXGAAVcdrStream@@@Z
??_2@YAXKAAVcdrStream@@@Z
??_2ComponentData@omniConnectionData@@QBEXAAVcdrStream@@@Z
??_2ServiceData@omniConnectionData@@QBEXAAVcdrStream@@@Z
??_3@YAXAAGAAVcdrStream@@@Z
??_3@YAXAAKAAVcdrStream@@@Z
??_3ComponentData@omniConnectionData@@QAEXAAVcdrStream@@@Z
??_3ServiceData@omniConnectionData@@QAEXAAVcdrStream@@@Z
?_NP_is_nil@Object@CORBA@@QBE_NXZ
?_NP_is_pseudo@Object@CORBA@@QBE_NXZ
?_PR_getobj@Object@CORBA@@QAEPAVomniObjRef@@XZ
?_PR_is_valid@Object@CORBA@@SA_NPAV12@@Z
?_retn@TaggedProfileList_var@IOP@@QAEPAV?$_CORBA_Unbounded_Sequence@UTaggedProfile@IOP@@@@XZ
?acquireClient@restrictedGiopRope@omni@@UAEPAVIOP_C@2@PBVomniIOR@@PBEKPAVomniCallDescriptor@@@Z
?addr_selected_profile_index@omniIOR@@QBEJXZ
?align_to@omni@@YAKKW4alignment_t@1@@Z
?allocbuf@?$_CORBA_PseudoValue_Sequence@PAVIORExtraInfo@omniIOR@@@@SAPAPAVIORExtraInfo@omniIOR@@K@Z
?allocbuf@?$_CORBA_Sequence@E@@SAPAEK@Z
?allocbuf@?$_CORBA_Sequence@UServiceContext@IOP@@@@SAPAUServiceContext@IOP@@K@Z
?allocbuf@?$_CORBA_Sequence@UTaggedComponent@IOP@@@@SAPAUTaggedComponent@IOP@@K@Z
?allocbuf@?$_CORBA_Sequence@UTaggedProfile@IOP@@@@SAPAUTaggedProfile@IOP@@K@Z
?attach@omniConnectionMgmt_initialiser@@UAEXXZ
?byteSwap@cdrStream@@SAGG@Z
?byteSwap@cdrStream@@SAKK@Z
?copybuffer@?$_CORBA_Sequence@E@@IAEXK@Z
?copybuffer@?$_CORBA_Sequence@UServiceContext@IOP@@@@IAEXK@Z
?copybuffer@?$_CORBA_Sequence@UTaggedComponent@IOP@@@@IAEXK@Z
?copybuffer@?$_CORBA_Sequence@UTaggedProfile@IOP@@@@IAEXK@Z
?dealloc@_CORBA_String_helper@@SAXPAD@Z
?detach@omniConnectionMgmt_initialiser@@UAEXXZ
?extraInfo@IORInfo@omniIOR@@QAEAAV?$_CORBA_PseudoValue_Sequence@PAVIORExtraInfo@omniIOR@@@@XZ
?flags@IORInfo@omniIOR@@QAEXK@Z
?flags@IORInfo@omniIOR@@QBEKXZ
?freebuf@?$_CORBA_Sequence@E@@SAXPAE@Z
?freebuf@?$_CORBA_Sequence@UNameComponent@CosNaming@@@@SAXPAUNameComponent@CosNaming@@@Z
?freebuf@?$_CORBA_Sequence@UServiceContext@IOP@@@@SAXPAUServiceContext@IOP@@@Z
?freebuf@?$_CORBA_Sequence@UTaggedComponent@IOP@@@@SAXPAUTaggedComponent@IOP@@@Z
?freebuf@?$_CORBA_Sequence@UTaggedProfile@IOP@@@@SAXPAUTaggedProfile@IOP@@@Z
?get@RestrictedInfo@omni@@SAPAV12@PAVIORInfo@omniIOR@@@Z
?inMkr@cdrStream@@IAEKW4alignment_t@omni@@@Z
?inMkr@cdrStream@@IAEKXZ
?init@omniConnectionMgmt@@YAXXZ
?iopProfiles@omniIOR@@QBEABV?$_CORBA_Unbounded_Sequence@UTaggedProfile@IOP@@@@XZ
?ior@GIOP_C@omni@@QBEPBVomniIOR@@XZ
?is_nil@CORBA@@YA_NPAVObject@1@@Z
?length@?$_CORBA_PseudoValue_Sequence@PAVIORExtraInfo@omniIOR@@@@QAEXK@Z
?length@?$_CORBA_PseudoValue_Sequence@PAVIORExtraInfo@omniIOR@@@@QBEKXZ
?length@?$_CORBA_Sequence@E@@QAEXK@Z
?length@?$_CORBA_Sequence@UServiceContext@IOP@@@@QAEXK@Z
?length@?$_CORBA_Sequence@UServiceContext@IOP@@@@QBEKXZ
?length@?$_CORBA_Sequence@UTaggedComponent@IOP@@@@QAEXK@Z
?length@?$_CORBA_Sequence@UTaggedComponent@IOP@@@@QBEKXZ
?length@?$_CORBA_Sequence@UTaggedProfile@IOP@@@@QAEXK@Z
?length@?$_CORBA_Sequence@UTaggedProfile@IOP@@@@QBEKXZ
?logs@omniORB@@YAXKPBD@Z
?makeRestrictedReference@omniConnectionMgmt@@YAPAVObject@CORBA@@PAV23@KKK_N11@Z
?marshalOctet@cdrStream@@QAEXE@Z
?marshalULong@cdrStream@@QAEXK@Z
?marshalUShort@cdrStream@@QAEXG@Z
?match@restrictedGiopRope@omni@@MBE_NABV?$omnivector@PAVgiopAddress@omni@@@@PAVIORInfo@omniIOR@@@Z
?maxStrands@giopRope@omni@@QAEKXZ
?maxStrands@giopRope@omni@@QAEXK@Z
?max_workers@giopConnection@omni@@QAEHXZ
?max_workers@giopConnection@omni@@QAEXH@Z
?oneCallPerConnection@giopRope@omni@@QAEX_N@Z
?outMkr@cdrStream@@IAEKW4alignment_t@omni@@@Z
?outMkr@cdrStream@@IAEKXZ
?release@CORBA@@YAXPAVObject@1@@Z
?repositoryID@omniIOR@@QBEPBDXZ
?service_contexts@GIOP_S@omni@@QAEAAV?$_CORBA_Unbounded_Sequence@UServiceContext@IOP@@@@XZ
?strand@giopStream@omni@@QAEAAVgiopStrand@2@XZ
?unmarshalOctet@cdrStream@@QAEEXZ
?unmarshalULong@cdrStream@@QAEKXZ
?unmarshalUShort@cdrStream@@QAEGXZ
