LIBRARY shared/COSDynamic421_vc14_rt
VERSION 2.1
EXPORTS
??0?$_CORBA_Sequence@J@@IAE@ABV0@@Z
??0?$_CORBA_Sequence@J@@IAE@XZ
??0?$_CORBA_Sequence@UConstraintExp@CosNotifyFilter@@@@IAE@ABV0@@Z
??0?$_CORBA_Sequence@UConstraintExp@CosNotifyFilter@@@@IAE@XZ
??0?$_CORBA_Sequence@UConstraintInfo@CosNotifyFilter@@@@IAE@ABV0@@Z
??0?$_CORBA_Sequence@UConstraintInfo@CosNotifyFilter@@@@IAE@XZ
??0?$_CORBA_Sequence@UEventType@CosNotification@@@@IAE@ABV0@@Z
??0?$_CORBA_Sequence@UEventType@CosNotification@@@@IAE@XZ
??0?$_CORBA_Sequence@UMappingConstraintInfo@CosNotifyFilter@@@@IAE@ABV0@@Z
??0?$_CORBA_Sequence@UMappingConstraintInfo@CosNotifyFilter@@@@IAE@XZ
??0?$_CORBA_Sequence@UMappingConstraintPair@CosNotifyFilter@@@@IAE@ABV0@@Z
??0?$_CORBA_Sequence@UMappingConstraintPair@CosNotifyFilter@@@@IAE@XZ
??0?$_CORBA_Sequence@UNVP@CosLifeCycle@@@@IAE@ABV0@@Z
??0?$_CORBA_Sequence@UNVP@CosLifeCycle@@@@IAE@XZ
??0?$_CORBA_Sequence@UNameComponent@CosNaming@@@@IAE@XZ
??0?$_CORBA_Sequence@UNamedPropertyRange@CosNotification@@@@IAE@ABV0@@Z
??0?$_CORBA_Sequence@UNamedPropertyRange@CosNotification@@@@IAE@XZ
??0?$_CORBA_Sequence@UProperty@CosNotification@@@@IAE@ABV0@@Z
??0?$_CORBA_Sequence@UProperty@CosNotification@@@@IAE@XZ
??0?$_CORBA_Sequence@UPropertyError@CosNotification@@@@IAE@ABV0@@Z
??0?$_CORBA_Sequence@UPropertyError@CosNotification@@@@IAE@XZ
??0?$_CORBA_Sequence@UStructuredEvent@CosNotification@@@@IAE@ABV0@@Z
??0?$_CORBA_Sequence@UStructuredEvent@CosNotification@@@@IAE@XZ
??0?$_CORBA_Sequence_ObjRef@VObject@CORBA@@VObject_Element@2@VObject_Helper@2@@@IAE@ABV0@@Z
??0?$_CORBA_Sequence_ObjRef@VObject@CORBA@@VObject_Element@2@VObject_Helper@2@@@IAE@XZ
??0?$_CORBA_Unbounded_Sequence@J@@QAE@ABV0@@Z
??0?$_CORBA_Unbounded_Sequence@J@@QAE@XZ
??0?$_CORBA_Unbounded_Sequence@UConstraintExp@CosNotifyFilter@@@@QAE@ABV0@@Z
??0?$_CORBA_Unbounded_Sequence@UConstraintExp@CosNotifyFilter@@@@QAE@XZ
??0?$_CORBA_Unbounded_Sequence@UConstraintInfo@CosNotifyFilter@@@@QAE@ABV0@@Z
??0?$_CORBA_Unbounded_Sequence@UConstraintInfo@CosNotifyFilter@@@@QAE@XZ
??0?$_CORBA_Unbounded_Sequence@UEventType@CosNotification@@@@QAE@ABV0@@Z
??0?$_CORBA_Unbounded_Sequence@UEventType@CosNotification@@@@QAE@XZ
??0?$_CORBA_Unbounded_Sequence@UMappingConstraintInfo@CosNotifyFilter@@@@QAE@ABV0@@Z
??0?$_CORBA_Unbounded_Sequence@UMappingConstraintInfo@CosNotifyFilter@@@@QAE@XZ
??0?$_CORBA_Unbounded_Sequence@UMappingConstraintPair@CosNotifyFilter@@@@QAE@ABV0@@Z
??0?$_CORBA_Unbounded_Sequence@UMappingConstraintPair@CosNotifyFilter@@@@QAE@XZ
??0?$_CORBA_Unbounded_Sequence@UNVP@CosLifeCycle@@@@QAE@ABV0@@Z
??0?$_CORBA_Unbounded_Sequence@UNVP@CosLifeCycle@@@@QAE@XZ
??0?$_CORBA_Unbounded_Sequence@UNameComponent@CosNaming@@@@QAE@XZ
??0?$_CORBA_Unbounded_Sequence@UNamedPropertyRange@CosNotification@@@@QAE@ABV0@@Z
??0?$_CORBA_Unbounded_Sequence@UNamedPropertyRange@CosNotification@@@@QAE@XZ
??0?$_CORBA_Unbounded_Sequence@UProperty@CosNotification@@@@QAE@ABV0@@Z
??0?$_CORBA_Unbounded_Sequence@UProperty@CosNotification@@@@QAE@XZ
??0?$_CORBA_Unbounded_Sequence@UPropertyError@CosNotification@@@@QAE@ABV0@@Z
??0?$_CORBA_Unbounded_Sequence@UPropertyError@CosNotification@@@@QAE@XZ
??0?$_CORBA_Unbounded_Sequence@UStructuredEvent@CosNotification@@@@QAE@ABV0@@Z
??0?$_CORBA_Unbounded_Sequence@UStructuredEvent@CosNotification@@@@QAE@XZ
??0?$_CORBA_Unbounded_Sequence_ObjRef@VObject@CORBA@@VObject_Element@2@VObject_Helper@2@@@QAE@ABV0@@Z
??0?$_CORBA_Unbounded_Sequence_ObjRef@VObject@CORBA@@VObject_Element@2@VObject_Helper@2@@@QAE@XZ
??0?$_CORBA_Unbounded_Sequence_w_FixSizeElement@J$03$03@@QAE@ABV0@@Z
??0?$_CORBA_Unbounded_Sequence_w_FixSizeElement@J$03$03@@QAE@XZ
??0AdminIDSeq@CosNotifyChannelAdmin@@QAE@ABV01@@Z
??0AdminIDSeq@CosNotifyChannelAdmin@@QAE@XZ
??0AdminLimit@CosNotifyChannelAdmin@@QAE@ABU01@@Z
??0AdminLimit@CosNotifyChannelAdmin@@QAE@XZ
??0AdminLimitExceeded@CosNotifyChannelAdmin@@QAE@XZ
??0AdminNotFound@CosNotifyChannelAdmin@@QAE@XZ
??0AlreadyConnected@CosEventChannelAdmin@@QAE@XZ
??0CallbackIDSeq@CosNotifyFilter@@QAE@ABV01@@Z
??0CallbackIDSeq@CosNotifyFilter@@QAE@XZ
??0CallbackNotFound@CosNotifyFilter@@QAE@XZ
??0CannotMeetCriteria@CosLifeCycle@@QAE@XZ
??0ChannelIDSeq@CosNotifyChannelAdmin@@QAE@ABV01@@Z
??0ChannelIDSeq@CosNotifyChannelAdmin@@QAE@XZ
??0ChannelNotFound@CosNotifyChannelAdmin@@QAE@XZ
??0ConnectionAlreadyActive@CosNotifyChannelAdmin@@QAE@XZ
??0ConnectionAlreadyInactive@CosNotifyChannelAdmin@@QAE@XZ
??0ConstraintExp@CosNotifyFilter@@QAE@ABU01@@Z
??0ConstraintExp@CosNotifyFilter@@QAE@XZ
??0ConstraintExpSeq@CosNotifyFilter@@QAE@ABV01@@Z
??0ConstraintExpSeq@CosNotifyFilter@@QAE@XZ
??0ConstraintIDSeq@CosNotifyFilter@@QAE@ABV01@@Z
??0ConstraintIDSeq@CosNotifyFilter@@QAE@XZ
??0ConstraintInfo@CosNotifyFilter@@QAE@ABU01@@Z
??0ConstraintInfo@CosNotifyFilter@@QAE@XZ
??0ConstraintInfoSeq@CosNotifyFilter@@QAE@ABV01@@Z
??0ConstraintInfoSeq@CosNotifyFilter@@QAE@XZ
??0ConstraintNotFound@CosNotifyFilter@@QAE@XZ
??0Criteria@CosLifeCycle@@QAE@ABV01@@Z
??0Criteria@CosLifeCycle@@QAE@XZ
??0Disconnected@CosEventComm@@QAE@XZ
??0DuplicateConstraintID@CosNotifyFilter@@QAE@XZ
??0EventBatch@CosNotification@@QAE@ABV01@@Z
??0EventBatch@CosNotification@@QAE@XZ
??0EventHeader@CosNotification@@QAE@ABU01@@Z
??0EventHeader@CosNotification@@QAE@XZ
??0EventType@CosNotification@@QAE@ABU01@@Z
??0EventType@CosNotification@@QAE@XZ
??0EventTypeSeq@CosNotification@@QAE@ABV01@@Z
??0EventTypeSeq@CosNotification@@QAE@XZ
??0Exception@CORBA@@IAE@XZ
??0Exception@CORBA@@QAE@ABV01@@Z
??0Factories@CosLifeCycle@@QAE@ABV01@@Z
??0Factories@CosLifeCycle@@QAE@XZ
??0FilterIDSeq@CosNotifyFilter@@QAE@ABV01@@Z
??0FilterIDSeq@CosNotifyFilter@@QAE@XZ
??0FilterNotFound@CosNotifyFilter@@QAE@XZ
??0FixedEventHeader@CosNotification@@QAE@ABU01@@Z
??0FixedEventHeader@CosNotification@@QAE@XZ
??0InvalidConstraint@CosNotifyFilter@@QAE@XZ
??0InvalidCriteria@CosLifeCycle@@QAE@XZ
??0InvalidEventType@CosNotifyComm@@QAE@XZ
??0InvalidGrammar@CosNotifyFilter@@QAE@XZ
??0InvalidValue@CosNotifyFilter@@QAE@XZ
??0MARSHAL@CORBA@@QAE@ABV01@@Z
??0MARSHAL@CORBA@@QAE@KW4CompletionStatus@1@@Z
??0MappingConstraintInfo@CosNotifyFilter@@QAE@ABU01@@Z
??0MappingConstraintInfo@CosNotifyFilter@@QAE@XZ
??0MappingConstraintInfoSeq@CosNotifyFilter@@QAE@ABV01@@Z
??0MappingConstraintInfoSeq@CosNotifyFilter@@QAE@XZ
??0MappingConstraintPair@CosNotifyFilter@@QAE@ABU01@@Z
??0MappingConstraintPair@CosNotifyFilter@@QAE@XZ
??0MappingConstraintPairSeq@CosNotifyFilter@@QAE@ABV01@@Z
??0MappingConstraintPairSeq@CosNotifyFilter@@QAE@XZ
??0NVP@CosLifeCycle@@QAE@ABU01@@Z
??0NVP@CosLifeCycle@@QAE@XZ
??0Name@CosNaming@@QAE@XZ
??0NamedPropertyRange@CosNotification@@QAE@ABU01@@Z
??0NamedPropertyRange@CosNotification@@QAE@XZ
??0NamedPropertyRangeSeq@CosNotification@@QAE@ABV01@@Z
??0NamedPropertyRangeSeq@CosNotification@@QAE@XZ
??0NoFactory@CosLifeCycle@@QAE@XZ
??0NotConnected@CosNotifyChannelAdmin@@QAE@XZ
??0NotCopyable@CosLifeCycle@@QAE@XZ
??0NotMovable@CosLifeCycle@@QAE@XZ
??0NotRemovable@CosLifeCycle@@QAE@XZ
??0Property@CosNotification@@QAE@ABU01@@Z
??0Property@CosNotification@@QAE@XZ
??0PropertyError@CosNotification@@QAE@ABU01@@Z
??0PropertyError@CosNotification@@QAE@XZ
??0PropertyErrorSeq@CosNotification@@QAE@ABV01@@Z
??0PropertyErrorSeq@CosNotification@@QAE@XZ
??0PropertyRange@CosNotification@@QAE@ABU01@@Z
??0PropertyRange@CosNotification@@QAE@XZ
??0PropertySeq@CosNotification@@QAE@ABV01@@Z
??0PropertySeq@CosNotification@@QAE@XZ
??0ProxyIDSeq@CosNotifyChannelAdmin@@QAE@ABV01@@Z
??0ProxyIDSeq@CosNotifyChannelAdmin@@QAE@XZ
??0ProxyNotFound@CosNotifyChannelAdmin@@QAE@XZ
??0StructuredEvent@CosNotification@@QAE@ABU01@@Z
??0StructuredEvent@CosNotification@@QAE@XZ
??0SystemException@CORBA@@QAE@ABV01@@Z
??0SystemException@CORBA@@QAE@KW4CompletionStatus@1@@Z
??0TimeUnavailable@CosTime@@QAE@XZ
??0TypeError@CosEventChannelAdmin@@QAE@XZ
??0UnsupportedAdmin@CosNotification@@QAE@XZ
??0UnsupportedFilterableData@CosNotifyFilter@@QAE@XZ
??0UnsupportedQoS@CosNotification@@QAE@XZ
??0UserException@CORBA@@IAE@XZ
??0_0RL_insertToAny_Singleton__cCosEventChannelAdmin_mAlreadyConnected@@QAE@XZ
??0_0RL_insertToAny_Singleton__cCosEventChannelAdmin_mTypeError@@QAE@XZ
??0_0RL_insertToAny_Singleton__cCosEventComm_mDisconnected@@QAE@XZ
??0_0RL_insertToAny_Singleton__cCosLifeCycle_mCannotMeetCriteria@@QAE@XZ
??0_0RL_insertToAny_Singleton__cCosLifeCycle_mInvalidCriteria@@QAE@XZ
??0_0RL_insertToAny_Singleton__cCosLifeCycle_mNoFactory@@QAE@XZ
??0_0RL_insertToAny_Singleton__cCosLifeCycle_mNotCopyable@@QAE@XZ
??0_0RL_insertToAny_Singleton__cCosLifeCycle_mNotMovable@@QAE@XZ
??0_0RL_insertToAny_Singleton__cCosLifeCycle_mNotRemovable@@QAE@XZ
??0_0RL_insertToAny_Singleton__cCosNotification_mUnsupportedAdmin@@QAE@XZ
??0_0RL_insertToAny_Singleton__cCosNotification_mUnsupportedQoS@@QAE@XZ
??0_0RL_insertToAny_Singleton__cCosNotifyChannelAdmin_mAdminLimitExceeded@@QAE@XZ
??0_0RL_insertToAny_Singleton__cCosNotifyChannelAdmin_mAdminNotFound@@QAE@XZ
??0_0RL_insertToAny_Singleton__cCosNotifyChannelAdmin_mChannelNotFound@@QAE@XZ
??0_0RL_insertToAny_Singleton__cCosNotifyChannelAdmin_mConnectionAlreadyActive@@QAE@XZ
??0_0RL_insertToAny_Singleton__cCosNotifyChannelAdmin_mConnectionAlreadyInactive@@QAE@XZ
??0_0RL_insertToAny_Singleton__cCosNotifyChannelAdmin_mNotConnected@@QAE@XZ
??0_0RL_insertToAny_Singleton__cCosNotifyChannelAdmin_mProxyNotFound@@QAE@XZ
??0_0RL_insertToAny_Singleton__cCosNotifyComm_mInvalidEventType@@QAE@XZ
??0_0RL_insertToAny_Singleton__cCosNotifyFilter_mCallbackNotFound@@QAE@XZ
??0_0RL_insertToAny_Singleton__cCosNotifyFilter_mConstraintNotFound@@QAE@XZ
??0_0RL_insertToAny_Singleton__cCosNotifyFilter_mDuplicateConstraintID@@QAE@XZ
??0_0RL_insertToAny_Singleton__cCosNotifyFilter_mFilterNotFound@@QAE@XZ
??0_0RL_insertToAny_Singleton__cCosNotifyFilter_mInvalidConstraint@@QAE@XZ
??0_0RL_insertToAny_Singleton__cCosNotifyFilter_mInvalidGrammar@@QAE@XZ
??0_0RL_insertToAny_Singleton__cCosNotifyFilter_mInvalidValue@@QAE@XZ
??0_0RL_insertToAny_Singleton__cCosNotifyFilter_mUnsupportedFilterableData@@QAE@XZ
??0_0RL_insertToAny_Singleton__cCosTime_mTimeUnavailable@@QAE@XZ
??0_CORBA_String_member@@QAE@ABV0@@Z
??0_CORBA_String_member@@QAE@XZ
??0_Tracker@TypeCode@CORBA@@QAE@PBD@Z
??1?$_CORBA_ObjRef_Member@V_objref_Contained@CORBA@@VContained_Helper@2@@@QAE@XZ
??1?$_CORBA_ObjRef_Member@V_objref_IDLType@CORBA@@VIDLType_Helper@2@@@QAE@XZ
??1?$_CORBA_PseudoObj_Member@VDynAny@DynamicAny@@V?$_CORBA_PseudoObj_Var@VDynAny@DynamicAny@@@@@@QAE@XZ
??1?$_CORBA_PseudoObj_Member@VPolicy@CORBA@@V?$_CORBA_PseudoObj_Var@VPolicy@CORBA@@@@@@QAE@XZ
??1?$_CORBA_Sequence@E@@QAE@XZ
??1?$_CORBA_Sequence@J@@QAE@XZ
??1?$_CORBA_Sequence@UConstraintExp@CosNotifyFilter@@@@QAE@XZ
??1?$_CORBA_Sequence@UConstraintInfo@CosNotifyFilter@@@@QAE@XZ
??1?$_CORBA_Sequence@UEventType@CosNotification@@@@QAE@XZ
??1?$_CORBA_Sequence@UExceptionDescription@CORBA@@@@QAE@XZ
??1?$_CORBA_Sequence@UMappingConstraintInfo@CosNotifyFilter@@@@QAE@XZ
??1?$_CORBA_Sequence@UMappingConstraintPair@CosNotifyFilter@@@@QAE@XZ
??1?$_CORBA_Sequence@UNVP@CosLifeCycle@@@@QAE@XZ
??1?$_CORBA_Sequence@UNameComponent@CosNaming@@@@QAE@XZ
??1?$_CORBA_Sequence@UNamedPropertyRange@CosNotification@@@@QAE@XZ
??1?$_CORBA_Sequence@UParameterDescription@CORBA@@@@QAE@XZ
??1?$_CORBA_Sequence@UProperty@CosNotification@@@@QAE@XZ
??1?$_CORBA_Sequence@UPropertyError@CosNotification@@@@QAE@XZ
??1?$_CORBA_Sequence@UStructMember@CORBA@@@@QAE@XZ
??1?$_CORBA_Sequence@UStructuredEvent@CosNotification@@@@QAE@XZ
??1?$_CORBA_Sequence_ObjRef@VObject@CORBA@@VObject_Element@2@VObject_Helper@2@@@QAE@XZ
??1?$_CORBA_Unbounded_Sequence@J@@QAE@XZ
??1?$_CORBA_Unbounded_Sequence@UConstraintExp@CosNotifyFilter@@@@QAE@XZ
??1?$_CORBA_Unbounded_Sequence@UConstraintInfo@CosNotifyFilter@@@@QAE@XZ
??1?$_CORBA_Unbounded_Sequence@UEventType@CosNotification@@@@QAE@XZ
??1?$_CORBA_Unbounded_Sequence@UExceptionDescription@CORBA@@@@QAE@XZ
??1?$_CORBA_Unbounded_Sequence@UMappingConstraintInfo@CosNotifyFilter@@@@QAE@XZ
??1?$_CORBA_Unbounded_Sequence@UMappingConstraintPair@CosNotifyFilter@@@@QAE@XZ
??1?$_CORBA_Unbounded_Sequence@UNVP@CosLifeCycle@@@@QAE@XZ
??1?$_CORBA_Unbounded_Sequence@UNameComponent@CosNaming@@@@QAE@XZ
??1?$_CORBA_Unbounded_Sequence@UNamedPropertyRange@CosNotification@@@@QAE@XZ
??1?$_CORBA_Unbounded_Sequence@UParameterDescription@CORBA@@@@QAE@XZ
??1?$_CORBA_Unbounded_Sequence@UProperty@CosNotification@@@@QAE@XZ
??1?$_CORBA_Unbounded_Sequence@UPropertyError@CosNotification@@@@QAE@XZ
??1?$_CORBA_Unbounded_Sequence@UStructMember@CORBA@@@@QAE@XZ
??1?$_CORBA_Unbounded_Sequence@UStructuredEvent@CosNotification@@@@QAE@XZ
??1?$_CORBA_Unbounded_Sequence_ObjRef@VObject@CORBA@@VObject_Element@2@VObject_Helper@2@@@QAE@XZ
??1?$_CORBA_Unbounded_Sequence_w_FixSizeElement@J$03$03@@QAE@XZ
??1AdminIDSeq@CosNotifyChannelAdmin@@QAE@XZ
??1AdminLimit@CosNotifyChannelAdmin@@QAE@XZ
??1AttributeDescription@CORBA@@QAE@XZ
??1Binding@CosNaming@@QAE@XZ
??1CallbackIDSeq@CosNotifyFilter@@QAE@XZ
??1ChannelIDSeq@CosNotifyChannelAdmin@@QAE@XZ
??1ConstraintExp@CosNotifyFilter@@QAE@XZ
??1ConstraintExpSeq@CosNotifyFilter@@QAE@XZ
??1ConstraintIDSeq@CosNotifyFilter@@QAE@XZ
??1ConstraintInfo@CosNotifyFilter@@QAE@XZ
??1ConstraintInfoSeq@CosNotifyFilter@@QAE@XZ
??1ContextIdSeq@CORBA@@QAE@XZ
??1Criteria@CosLifeCycle@@QAE@XZ
??1Description@Container@CORBA@@QAE@XZ
??1EventBatch@CosNotification@@QAE@XZ
??1EventHeader@CosNotification@@QAE@XZ
??1EventType@CosNotification@@QAE@XZ
??1EventTypeSeq@CosNotification@@QAE@XZ
??1ExcDescriptionSeq@CORBA@@QAE@XZ
??1ExceptionDescription@CORBA@@QAE@XZ
??1Factories@CosLifeCycle@@QAE@XZ
??1FilterIDSeq@CosNotifyFilter@@QAE@XZ
??1FixedEventHeader@CosNotification@@QAE@XZ
??1Initializer@CORBA@@QAE@XZ
??1MappingConstraintInfo@CosNotifyFilter@@QAE@XZ
??1MappingConstraintInfoSeq@CosNotifyFilter@@QAE@XZ
??1MappingConstraintPair@CosNotifyFilter@@QAE@XZ
??1MappingConstraintPairSeq@CosNotifyFilter@@QAE@XZ
??1NVP@CosLifeCycle@@QAE@XZ
??1Name@CosNaming@@QAE@XZ
??1NameComponent@CosNaming@@QAE@XZ
??1NameDynAnyPair@DynamicAny@@QAE@XZ
??1NameValuePair@DynamicAny@@QAE@XZ
??1NamedPropertyRange@CosNotification@@QAE@XZ
??1NamedPropertyRangeSeq@CosNotification@@QAE@XZ
??1OperationDescription@CORBA@@QAE@XZ
??1ParDescriptionSeq@CORBA@@QAE@XZ
??1ParameterDescription@CORBA@@QAE@XZ
??1Property@CosNotification@@QAE@XZ
??1PropertyError@CosNotification@@QAE@XZ
??1PropertyErrorSeq@CosNotification@@QAE@XZ
??1PropertyRange@CosNotification@@QAE@XZ
??1PropertySeq@CosNotification@@QAE@XZ
??1ProxyIDSeq@CosNotifyChannelAdmin@@QAE@XZ
??1ServiceContext@IOP@@QAE@XZ
??1StructMember@CORBA@@QAE@XZ
??1StructMemberSeq@CORBA@@QAE@XZ
??1StructuredEvent@CosNotification@@QAE@XZ
??1TaggedComponent@IOP@@QAE@XZ
??1TaggedProfile@IOP@@QAE@XZ
??1UnionMember@CORBA@@QAE@XZ
??1ValueMember@CORBA@@QAE@XZ
??1_CORBA_Sequence_Octet@@IAE@XZ
??1_CORBA_Sequence_String@@QAE@XZ
??1_CORBA_String_member@@QAE@XZ
??1_CORBA_Unbounded_Sequence_Octet@@QAE@XZ
??1_CORBA_Unbounded_Sequence_String@@QAE@XZ
??4?$_CORBA_Sequence@UEventType@CosNotification@@@@IAEAAV0@ABV0@@Z
??4?$_CORBA_Sequence@UProperty@CosNotification@@@@IAEAAV0@ABV0@@Z
??4?$_CORBA_Unbounded_Sequence@UEventType@CosNotification@@@@QAEAAV0@ABV0@@Z
??4?$_CORBA_Unbounded_Sequence@UProperty@CosNotification@@@@QAEAAV0@ABV0@@Z
??4ConstraintExp@CosNotifyFilter@@QAEAAU01@ABU01@@Z
??4ConstraintInfo@CosNotifyFilter@@QAEAAU01@ABU01@@Z
??4EventHeader@CosNotification@@QAEAAU01@ABU01@@Z
??4EventType@CosNotification@@QAEAAU01@ABU01@@Z
??4EventTypeSeq@CosNotification@@QAEAAV01@ABV01@@Z
??4FixedEventHeader@CosNotification@@QAEAAU01@ABU01@@Z
??4MappingConstraintInfo@CosNotifyFilter@@QAEAAU01@ABU01@@Z
??4MappingConstraintPair@CosNotifyFilter@@QAEAAU01@ABU01@@Z
??4NVP@CosLifeCycle@@QAEAAU01@ABU01@@Z
??4NamedPropertyRange@CosNotification@@QAEAAU01@ABU01@@Z
??4Property@CosNotification@@QAEAAU01@ABU01@@Z
??4PropertyError@CosNotification@@QAEAAU01@ABU01@@Z
??4PropertyRange@CosNotification@@QAEAAU01@ABU01@@Z
??4PropertySeq@CosNotification@@QAEAAV01@ABV01@@Z
??4StructuredEvent@CosNotification@@QAEAAU01@ABU01@@Z
??4_CORBA_String_member@@QAEAAV0@ABV0@@Z
??_2?$_CORBA_Sequence_ObjRef@VObject@CORBA@@VObject_Element@2@VObject_Helper@2@@@QBEXAAVcdrStream@@@Z
??_2?$_CORBA_Unbounded_Sequence@J@@QBEXAAVcdrStream@@@Z
??_2?$_CORBA_Unbounded_Sequence@UConstraintExp@CosNotifyFilter@@@@QBEXAAVcdrStream@@@Z
??_2?$_CORBA_Unbounded_Sequence@UConstraintInfo@CosNotifyFilter@@@@QBEXAAVcdrStream@@@Z
??_2?$_CORBA_Unbounded_Sequence@UEventType@CosNotification@@@@QBEXAAVcdrStream@@@Z
??_2?$_CORBA_Unbounded_Sequence@UMappingConstraintInfo@CosNotifyFilter@@@@QBEXAAVcdrStream@@@Z
??_2?$_CORBA_Unbounded_Sequence@UMappingConstraintPair@CosNotifyFilter@@@@QBEXAAVcdrStream@@@Z
??_2?$_CORBA_Unbounded_Sequence@UNVP@CosLifeCycle@@@@QBEXAAVcdrStream@@@Z
??_2?$_CORBA_Unbounded_Sequence@UNamedPropertyRange@CosNotification@@@@QBEXAAVcdrStream@@@Z
??_2?$_CORBA_Unbounded_Sequence@UProperty@CosNotification@@@@QBEXAAVcdrStream@@@Z
??_2?$_CORBA_Unbounded_Sequence@UPropertyError@CosNotification@@@@QBEXAAVcdrStream@@@Z
??_2?$_CORBA_Unbounded_Sequence@UStructuredEvent@CosNotification@@@@QBEXAAVcdrStream@@@Z
??_2?$_CORBA_Unbounded_Sequence_w_FixSizeElement@J$03$03@@QBEXAAVcdrStream@@@Z
??_2@YAXJAAVcdrStream@@@Z
??_2@YAXKAAVcdrStream@@@Z
??_2@YAXW4ClientType@CosNotifyChannelAdmin@@AAVcdrStream@@@Z
??_2@YAXW4ComparisonType@CosTime@@AAVcdrStream@@@Z
??_2@YAXW4InterFilterGroupOperator@CosNotifyChannelAdmin@@AAVcdrStream@@@Z
??_2@YAXW4ObtainInfoMode@CosNotifyChannelAdmin@@AAVcdrStream@@@Z
??_2@YAXW4OverlapType@CosTime@@AAVcdrStream@@@Z
??_2@YAXW4ProxyType@CosNotifyChannelAdmin@@AAVcdrStream@@@Z
??_2@YAXW4QoSError_code@CosNotification@@AAVcdrStream@@@Z
??_2@YAXW4TimeComparison@CosTime@@AAVcdrStream@@@Z
??_2@YA_NABVAny@CORBA@@AAPAUAdminLimit@CosNotifyChannelAdmin@@@Z
??_2@YA_NABVAny@CORBA@@AAPAUConstraintExp@CosNotifyFilter@@@Z
??_2@YA_NABVAny@CORBA@@AAPAUConstraintInfo@CosNotifyFilter@@@Z
??_2@YA_NABVAny@CORBA@@AAPAUEventHeader@CosNotification@@@Z
??_2@YA_NABVAny@CORBA@@AAPAUEventType@CosNotification@@@Z
??_2@YA_NABVAny@CORBA@@AAPAUFixedEventHeader@CosNotification@@@Z
??_2@YA_NABVAny@CORBA@@AAPAUIntervalT@TimeBase@@@Z
??_2@YA_NABVAny@CORBA@@AAPAUMappingConstraintInfo@CosNotifyFilter@@@Z
??_2@YA_NABVAny@CORBA@@AAPAUMappingConstraintPair@CosNotifyFilter@@@Z
??_2@YA_NABVAny@CORBA@@AAPAUNVP@CosLifeCycle@@@Z
??_2@YA_NABVAny@CORBA@@AAPAUNamedPropertyRange@CosNotification@@@Z
??_2@YA_NABVAny@CORBA@@AAPAUProperty@CosNotification@@@Z
??_2@YA_NABVAny@CORBA@@AAPAUPropertyError@CosNotification@@@Z
??_2@YA_NABVAny@CORBA@@AAPAUPropertyRange@CosNotification@@@Z
??_2@YA_NABVAny@CORBA@@AAPAUStructuredEvent@CosNotification@@@Z
??_2@YA_NABVAny@CORBA@@AAPAUUtcT@TimeBase@@@Z
??_2@YA_NABVAny@CORBA@@AAPAVAdminIDSeq@CosNotifyChannelAdmin@@@Z
??_2@YA_NABVAny@CORBA@@AAPAVCallbackIDSeq@CosNotifyFilter@@@Z
??_2@YA_NABVAny@CORBA@@AAPAVChannelIDSeq@CosNotifyChannelAdmin@@@Z
??_2@YA_NABVAny@CORBA@@AAPAVConstraintExpSeq@CosNotifyFilter@@@Z
??_2@YA_NABVAny@CORBA@@AAPAVConstraintIDSeq@CosNotifyFilter@@@Z
??_2@YA_NABVAny@CORBA@@AAPAVConstraintInfoSeq@CosNotifyFilter@@@Z
??_2@YA_NABVAny@CORBA@@AAPAVCriteria@CosLifeCycle@@@Z
??_2@YA_NABVAny@CORBA@@AAPAVEventBatch@CosNotification@@@Z
??_2@YA_NABVAny@CORBA@@AAPAVEventTypeSeq@CosNotification@@@Z
??_2@YA_NABVAny@CORBA@@AAPAVFactories@CosLifeCycle@@@Z
??_2@YA_NABVAny@CORBA@@AAPAVFilterIDSeq@CosNotifyFilter@@@Z
??_2@YA_NABVAny@CORBA@@AAPAVMappingConstraintInfoSeq@CosNotifyFilter@@@Z
??_2@YA_NABVAny@CORBA@@AAPAVMappingConstraintPairSeq@CosNotifyFilter@@@Z
??_2@YA_NABVAny@CORBA@@AAPAVNamedPropertyRangeSeq@CosNotification@@@Z
??_2@YA_NABVAny@CORBA@@AAPAVPropertyErrorSeq@CosNotification@@@Z
??_2@YA_NABVAny@CORBA@@AAPAVPropertySeq@CosNotification@@@Z
??_2@YA_NABVAny@CORBA@@AAPAVProxyIDSeq@CosNotifyChannelAdmin@@@Z
??_2@YA_NABVAny@CORBA@@AAPAV_objref_AdminPropertiesAdmin@CosNotification@@@Z
??_2@YA_NABVAny@CORBA@@AAPAV_objref_ConsumerAdmin@CosEventChannelAdmin@@@Z
??_2@YA_NABVAny@CORBA@@AAPAV_objref_ConsumerAdmin@CosNotifyChannelAdmin@@@Z
??_2@YA_NABVAny@CORBA@@AAPAV_objref_EventChannel@CosEventChannelAdmin@@@Z
??_2@YA_NABVAny@CORBA@@AAPAV_objref_EventChannel@CosNotifyChannelAdmin@@@Z
??_2@YA_NABVAny@CORBA@@AAPAV_objref_EventChannelFactory@CosNotifyChannelAdmin@@@Z
??_2@YA_NABVAny@CORBA@@AAPAV_objref_FactoryFinder@CosLifeCycle@@@Z
??_2@YA_NABVAny@CORBA@@AAPAV_objref_Filter@CosNotifyFilter@@@Z
??_2@YA_NABVAny@CORBA@@AAPAV_objref_FilterAdmin@CosNotifyFilter@@@Z
??_2@YA_NABVAny@CORBA@@AAPAV_objref_FilterFactory@CosNotifyFilter@@@Z
??_2@YA_NABVAny@CORBA@@AAPAV_objref_GenericFactory@CosLifeCycle@@@Z
??_2@YA_NABVAny@CORBA@@AAPAV_objref_LifeCycleObject@CosLifeCycle@@@Z
??_2@YA_NABVAny@CORBA@@AAPAV_objref_MappingFilter@CosNotifyFilter@@@Z
??_2@YA_NABVAny@CORBA@@AAPAV_objref_NotifyPublish@CosNotifyComm@@@Z
??_2@YA_NABVAny@CORBA@@AAPAV_objref_NotifySubscribe@CosNotifyComm@@@Z
??_2@YA_NABVAny@CORBA@@AAPAV_objref_ProxyConsumer@CosNotifyChannelAdmin@@@Z
??_2@YA_NABVAny@CORBA@@AAPAV_objref_ProxyPullConsumer@CosEventChannelAdmin@@@Z
??_2@YA_NABVAny@CORBA@@AAPAV_objref_ProxyPullConsumer@CosNotifyChannelAdmin@@@Z
??_2@YA_NABVAny@CORBA@@AAPAV_objref_ProxyPullSupplier@CosEventChannelAdmin@@@Z
??_2@YA_NABVAny@CORBA@@AAPAV_objref_ProxyPullSupplier@CosNotifyChannelAdmin@@@Z
??_2@YA_NABVAny@CORBA@@AAPAV_objref_ProxyPushConsumer@CosEventChannelAdmin@@@Z
??_2@YA_NABVAny@CORBA@@AAPAV_objref_ProxyPushConsumer@CosNotifyChannelAdmin@@@Z
??_2@YA_NABVAny@CORBA@@AAPAV_objref_ProxyPushSupplier@CosEventChannelAdmin@@@Z
??_2@YA_NABVAny@CORBA@@AAPAV_objref_ProxyPushSupplier@CosNotifyChannelAdmin@@@Z
??_2@YA_NABVAny@CORBA@@AAPAV_objref_ProxySupplier@CosNotifyChannelAdmin@@@Z
??_2@YA_NABVAny@CORBA@@AAPAV_objref_PullConsumer@CosEventComm@@@Z
??_2@YA_NABVAny@CORBA@@AAPAV_objref_PullConsumer@CosNotifyComm@@@Z
??_2@YA_NABVAny@CORBA@@AAPAV_objref_PullSupplier@CosEventComm@@@Z
??_2@YA_NABVAny@CORBA@@AAPAV_objref_PullSupplier@CosNotifyComm@@@Z
??_2@YA_NABVAny@CORBA@@AAPAV_objref_PushConsumer@CosEventComm@@@Z
??_2@YA_NABVAny@CORBA@@AAPAV_objref_PushConsumer@CosNotifyComm@@@Z
??_2@YA_NABVAny@CORBA@@AAPAV_objref_PushSupplier@CosEventComm@@@Z
??_2@YA_NABVAny@CORBA@@AAPAV_objref_PushSupplier@CosNotifyComm@@@Z
??_2@YA_NABVAny@CORBA@@AAPAV_objref_QoSAdmin@CosNotification@@@Z
??_2@YA_NABVAny@CORBA@@AAPAV_objref_SequenceProxyPullConsumer@CosNotifyChannelAdmin@@@Z
??_2@YA_NABVAny@CORBA@@AAPAV_objref_SequenceProxyPullSupplier@CosNotifyChannelAdmin@@@Z
??_2@YA_NABVAny@CORBA@@AAPAV_objref_SequenceProxyPushConsumer@CosNotifyChannelAdmin@@@Z
??_2@YA_NABVAny@CORBA@@AAPAV_objref_SequenceProxyPushSupplier@CosNotifyChannelAdmin@@@Z
??_2@YA_NABVAny@CORBA@@AAPAV_objref_SequencePullConsumer@CosNotifyComm@@@Z
??_2@YA_NABVAny@CORBA@@AAPAV_objref_SequencePullSupplier@CosNotifyComm@@@Z
??_2@YA_NABVAny@CORBA@@AAPAV_objref_SequencePushConsumer@CosNotifyComm@@@Z
??_2@YA_NABVAny@CORBA@@AAPAV_objref_SequencePushSupplier@CosNotifyComm@@@Z
??_2@YA_NABVAny@CORBA@@AAPAV_objref_StructuredProxyPullConsumer@CosNotifyChannelAdmin@@@Z
??_2@YA_NABVAny@CORBA@@AAPAV_objref_StructuredProxyPullSupplier@CosNotifyChannelAdmin@@@Z
??_2@YA_NABVAny@CORBA@@AAPAV_objref_StructuredProxyPushConsumer@CosNotifyChannelAdmin@@@Z
??_2@YA_NABVAny@CORBA@@AAPAV_objref_StructuredProxyPushSupplier@CosNotifyChannelAdmin@@@Z
??_2@YA_NABVAny@CORBA@@AAPAV_objref_StructuredPullConsumer@CosNotifyComm@@@Z
??_2@YA_NABVAny@CORBA@@AAPAV_objref_StructuredPullSupplier@CosNotifyComm@@@Z
??_2@YA_NABVAny@CORBA@@AAPAV_objref_StructuredPushConsumer@CosNotifyComm@@@Z
??_2@YA_NABVAny@CORBA@@AAPAV_objref_StructuredPushSupplier@CosNotifyComm@@@Z
??_2@YA_NABVAny@CORBA@@AAPAV_objref_SupplierAdmin@CosEventChannelAdmin@@@Z
??_2@YA_NABVAny@CORBA@@AAPAV_objref_SupplierAdmin@CosNotifyChannelAdmin@@@Z
??_2@YA_NABVAny@CORBA@@AAPAV_objref_TIO@CosTime@@@Z
??_2@YA_NABVAny@CORBA@@AAPAV_objref_TimeService@CosTime@@@Z
??_2@YA_NABVAny@CORBA@@AAPAV_objref_UTO@CosTime@@@Z
??_2@YA_NABVAny@CORBA@@AAPBUAdminLimit@CosNotifyChannelAdmin@@@Z
??_2@YA_NABVAny@CORBA@@AAPBUConstraintExp@CosNotifyFilter@@@Z
??_2@YA_NABVAny@CORBA@@AAPBUConstraintInfo@CosNotifyFilter@@@Z
??_2@YA_NABVAny@CORBA@@AAPBUEventHeader@CosNotification@@@Z
??_2@YA_NABVAny@CORBA@@AAPBUEventType@CosNotification@@@Z
??_2@YA_NABVAny@CORBA@@AAPBUFixedEventHeader@CosNotification@@@Z
??_2@YA_NABVAny@CORBA@@AAPBUIntervalT@TimeBase@@@Z
??_2@YA_NABVAny@CORBA@@AAPBUMappingConstraintInfo@CosNotifyFilter@@@Z
??_2@YA_NABVAny@CORBA@@AAPBUMappingConstraintPair@CosNotifyFilter@@@Z
??_2@YA_NABVAny@CORBA@@AAPBUNVP@CosLifeCycle@@@Z
??_2@YA_NABVAny@CORBA@@AAPBUNamedPropertyRange@CosNotification@@@Z
??_2@YA_NABVAny@CORBA@@AAPBUProperty@CosNotification@@@Z
??_2@YA_NABVAny@CORBA@@AAPBUPropertyError@CosNotification@@@Z
??_2@YA_NABVAny@CORBA@@AAPBUPropertyRange@CosNotification@@@Z
??_2@YA_NABVAny@CORBA@@AAPBUStructuredEvent@CosNotification@@@Z
??_2@YA_NABVAny@CORBA@@AAPBUUtcT@TimeBase@@@Z
??_2@YA_NABVAny@CORBA@@AAPBVAdminIDSeq@CosNotifyChannelAdmin@@@Z
??_2@YA_NABVAny@CORBA@@AAPBVAdminLimitExceeded@CosNotifyChannelAdmin@@@Z
??_2@YA_NABVAny@CORBA@@AAPBVAdminNotFound@CosNotifyChannelAdmin@@@Z
??_2@YA_NABVAny@CORBA@@AAPBVAlreadyConnected@CosEventChannelAdmin@@@Z
??_2@YA_NABVAny@CORBA@@AAPBVCallbackIDSeq@CosNotifyFilter@@@Z
??_2@YA_NABVAny@CORBA@@AAPBVCallbackNotFound@CosNotifyFilter@@@Z
??_2@YA_NABVAny@CORBA@@AAPBVCannotMeetCriteria@CosLifeCycle@@@Z
??_2@YA_NABVAny@CORBA@@AAPBVChannelIDSeq@CosNotifyChannelAdmin@@@Z
??_2@YA_NABVAny@CORBA@@AAPBVChannelNotFound@CosNotifyChannelAdmin@@@Z
??_2@YA_NABVAny@CORBA@@AAPBVConnectionAlreadyActive@CosNotifyChannelAdmin@@@Z
??_2@YA_NABVAny@CORBA@@AAPBVConnectionAlreadyInactive@CosNotifyChannelAdmin@@@Z
??_2@YA_NABVAny@CORBA@@AAPBVConstraintExpSeq@CosNotifyFilter@@@Z
??_2@YA_NABVAny@CORBA@@AAPBVConstraintIDSeq@CosNotifyFilter@@@Z
??_2@YA_NABVAny@CORBA@@AAPBVConstraintInfoSeq@CosNotifyFilter@@@Z
??_2@YA_NABVAny@CORBA@@AAPBVConstraintNotFound@CosNotifyFilter@@@Z
??_2@YA_NABVAny@CORBA@@AAPBVCriteria@CosLifeCycle@@@Z
??_2@YA_NABVAny@CORBA@@AAPBVDisconnected@CosEventComm@@@Z
??_2@YA_NABVAny@CORBA@@AAPBVDuplicateConstraintID@CosNotifyFilter@@@Z
??_2@YA_NABVAny@CORBA@@AAPBVEventBatch@CosNotification@@@Z
??_2@YA_NABVAny@CORBA@@AAPBVEventTypeSeq@CosNotification@@@Z
??_2@YA_NABVAny@CORBA@@AAPBVFactories@CosLifeCycle@@@Z
??_2@YA_NABVAny@CORBA@@AAPBVFilterIDSeq@CosNotifyFilter@@@Z
??_2@YA_NABVAny@CORBA@@AAPBVFilterNotFound@CosNotifyFilter@@@Z
??_2@YA_NABVAny@CORBA@@AAPBVInvalidConstraint@CosNotifyFilter@@@Z
??_2@YA_NABVAny@CORBA@@AAPBVInvalidCriteria@CosLifeCycle@@@Z
??_2@YA_NABVAny@CORBA@@AAPBVInvalidEventType@CosNotifyComm@@@Z
??_2@YA_NABVAny@CORBA@@AAPBVInvalidGrammar@CosNotifyFilter@@@Z
??_2@YA_NABVAny@CORBA@@AAPBVInvalidValue@CosNotifyFilter@@@Z
??_2@YA_NABVAny@CORBA@@AAPBVMappingConstraintInfoSeq@CosNotifyFilter@@@Z
??_2@YA_NABVAny@CORBA@@AAPBVMappingConstraintPairSeq@CosNotifyFilter@@@Z
??_2@YA_NABVAny@CORBA@@AAPBVNamedPropertyRangeSeq@CosNotification@@@Z
??_2@YA_NABVAny@CORBA@@AAPBVNoFactory@CosLifeCycle@@@Z
??_2@YA_NABVAny@CORBA@@AAPBVNotConnected@CosNotifyChannelAdmin@@@Z
??_2@YA_NABVAny@CORBA@@AAPBVNotCopyable@CosLifeCycle@@@Z
??_2@YA_NABVAny@CORBA@@AAPBVNotMovable@CosLifeCycle@@@Z
??_2@YA_NABVAny@CORBA@@AAPBVNotRemovable@CosLifeCycle@@@Z
??_2@YA_NABVAny@CORBA@@AAPBVPropertyErrorSeq@CosNotification@@@Z
??_2@YA_NABVAny@CORBA@@AAPBVPropertySeq@CosNotification@@@Z
??_2@YA_NABVAny@CORBA@@AAPBVProxyIDSeq@CosNotifyChannelAdmin@@@Z
??_2@YA_NABVAny@CORBA@@AAPBVProxyNotFound@CosNotifyChannelAdmin@@@Z
??_2@YA_NABVAny@CORBA@@AAPBVTimeUnavailable@CosTime@@@Z
??_2@YA_NABVAny@CORBA@@AAPBVTypeError@CosEventChannelAdmin@@@Z
??_2@YA_NABVAny@CORBA@@AAPBVUnsupportedAdmin@CosNotification@@@Z
??_2@YA_NABVAny@CORBA@@AAPBVUnsupportedFilterableData@CosNotifyFilter@@@Z
??_2@YA_NABVAny@CORBA@@AAPBVUnsupportedQoS@CosNotification@@@Z
??_2@YA_NABVAny@CORBA@@AAW4ClientType@CosNotifyChannelAdmin@@@Z
??_2@YA_NABVAny@CORBA@@AAW4ComparisonType@CosTime@@@Z
??_2@YA_NABVAny@CORBA@@AAW4InterFilterGroupOperator@CosNotifyChannelAdmin@@@Z
??_2@YA_NABVAny@CORBA@@AAW4ObtainInfoMode@CosNotifyChannelAdmin@@@Z
??_2@YA_NABVAny@CORBA@@AAW4OverlapType@CosTime@@@Z
??_2@YA_NABVAny@CORBA@@AAW4ProxyType@CosNotifyChannelAdmin@@@Z
??_2@YA_NABVAny@CORBA@@AAW4QoSError_code@CosNotification@@@Z
??_2@YA_NABVAny@CORBA@@AAW4TimeComparison@CosTime@@@Z
??_2AdminNotFound@CosNotifyChannelAdmin@@QBEXAAVcdrStream@@@Z
??_2AlreadyConnected@CosEventChannelAdmin@@QBEXAAVcdrStream@@@Z
??_2CallbackNotFound@CosNotifyFilter@@QBEXAAVcdrStream@@@Z
??_2ChannelNotFound@CosNotifyChannelAdmin@@QBEXAAVcdrStream@@@Z
??_2ConnectionAlreadyActive@CosNotifyChannelAdmin@@QBEXAAVcdrStream@@@Z
??_2ConnectionAlreadyInactive@CosNotifyChannelAdmin@@QBEXAAVcdrStream@@@Z
??_2Disconnected@CosEventComm@@QBEXAAVcdrStream@@@Z
??_2FilterNotFound@CosNotifyFilter@@QBEXAAVcdrStream@@@Z
??_2InvalidGrammar@CosNotifyFilter@@QBEXAAVcdrStream@@@Z
??_2NotConnected@CosNotifyChannelAdmin@@QBEXAAVcdrStream@@@Z
??_2ProxyNotFound@CosNotifyChannelAdmin@@QBEXAAVcdrStream@@@Z
??_2TimeUnavailable@CosTime@@QBEXAAVcdrStream@@@Z
??_2TypeError@CosEventChannelAdmin@@QBEXAAVcdrStream@@@Z
??_2UnsupportedFilterableData@CosNotifyFilter@@QBEXAAVcdrStream@@@Z
??_3?$_CORBA_Sequence_ObjRef@VObject@CORBA@@VObject_Element@2@VObject_Helper@2@@@QAEXAAVcdrStream@@@Z
??_3?$_CORBA_Unbounded_Sequence@UConstraintExp@CosNotifyFilter@@@@QAEXAAVcdrStream@@@Z
??_3?$_CORBA_Unbounded_Sequence@UConstraintInfo@CosNotifyFilter@@@@QAEXAAVcdrStream@@@Z
??_3?$_CORBA_Unbounded_Sequence@UEventType@CosNotification@@@@QAEXAAVcdrStream@@@Z
??_3?$_CORBA_Unbounded_Sequence@UMappingConstraintInfo@CosNotifyFilter@@@@QAEXAAVcdrStream@@@Z
??_3?$_CORBA_Unbounded_Sequence@UMappingConstraintPair@CosNotifyFilter@@@@QAEXAAVcdrStream@@@Z
??_3?$_CORBA_Unbounded_Sequence@UNVP@CosLifeCycle@@@@QAEXAAVcdrStream@@@Z
??_3?$_CORBA_Unbounded_Sequence@UNamedPropertyRange@CosNotification@@@@QAEXAAVcdrStream@@@Z
??_3?$_CORBA_Unbounded_Sequence@UProperty@CosNotification@@@@QAEXAAVcdrStream@@@Z
??_3?$_CORBA_Unbounded_Sequence@UPropertyError@CosNotification@@@@QAEXAAVcdrStream@@@Z
??_3?$_CORBA_Unbounded_Sequence@UStructuredEvent@CosNotification@@@@QAEXAAVcdrStream@@@Z
??_3?$_CORBA_Unbounded_Sequence_w_FixSizeElement@J$03$03@@QAEXAAVcdrStream@@@Z
??_3@YAXAAKAAVcdrStream@@@Z
??_3@YAXAAVAny@CORBA@@ABUAdminLimit@CosNotifyChannelAdmin@@@Z
??_3@YAXAAVAny@CORBA@@ABUConstraintExp@CosNotifyFilter@@@Z
??_3@YAXAAVAny@CORBA@@ABUConstraintInfo@CosNotifyFilter@@@Z
??_3@YAXAAVAny@CORBA@@ABUEventHeader@CosNotification@@@Z
??_3@YAXAAVAny@CORBA@@ABUEventType@CosNotification@@@Z
??_3@YAXAAVAny@CORBA@@ABUFixedEventHeader@CosNotification@@@Z
??_3@YAXAAVAny@CORBA@@ABUIntervalT@TimeBase@@@Z
??_3@YAXAAVAny@CORBA@@ABUMappingConstraintInfo@CosNotifyFilter@@@Z
??_3@YAXAAVAny@CORBA@@ABUMappingConstraintPair@CosNotifyFilter@@@Z
??_3@YAXAAVAny@CORBA@@ABUNVP@CosLifeCycle@@@Z
??_3@YAXAAVAny@CORBA@@ABUNamedPropertyRange@CosNotification@@@Z
??_3@YAXAAVAny@CORBA@@ABUProperty@CosNotification@@@Z
??_3@YAXAAVAny@CORBA@@ABUPropertyError@CosNotification@@@Z
??_3@YAXAAVAny@CORBA@@ABUPropertyRange@CosNotification@@@Z
??_3@YAXAAVAny@CORBA@@ABUStructuredEvent@CosNotification@@@Z
??_3@YAXAAVAny@CORBA@@ABUUtcT@TimeBase@@@Z
??_3@YAXAAVAny@CORBA@@ABVAdminIDSeq@CosNotifyChannelAdmin@@@Z
??_3@YAXAAVAny@CORBA@@ABVAdminLimitExceeded@CosNotifyChannelAdmin@@@Z
??_3@YAXAAVAny@CORBA@@ABVAdminNotFound@CosNotifyChannelAdmin@@@Z
??_3@YAXAAVAny@CORBA@@ABVAlreadyConnected@CosEventChannelAdmin@@@Z
??_3@YAXAAVAny@CORBA@@ABVCallbackIDSeq@CosNotifyFilter@@@Z
??_3@YAXAAVAny@CORBA@@ABVCallbackNotFound@CosNotifyFilter@@@Z
??_3@YAXAAVAny@CORBA@@ABVCannotMeetCriteria@CosLifeCycle@@@Z
??_3@YAXAAVAny@CORBA@@ABVChannelIDSeq@CosNotifyChannelAdmin@@@Z
??_3@YAXAAVAny@CORBA@@ABVChannelNotFound@CosNotifyChannelAdmin@@@Z
??_3@YAXAAVAny@CORBA@@ABVConnectionAlreadyActive@CosNotifyChannelAdmin@@@Z
??_3@YAXAAVAny@CORBA@@ABVConnectionAlreadyInactive@CosNotifyChannelAdmin@@@Z
??_3@YAXAAVAny@CORBA@@ABVConstraintExpSeq@CosNotifyFilter@@@Z
??_3@YAXAAVAny@CORBA@@ABVConstraintIDSeq@CosNotifyFilter@@@Z
??_3@YAXAAVAny@CORBA@@ABVConstraintInfoSeq@CosNotifyFilter@@@Z
??_3@YAXAAVAny@CORBA@@ABVConstraintNotFound@CosNotifyFilter@@@Z
??_3@YAXAAVAny@CORBA@@ABVCriteria@CosLifeCycle@@@Z
??_3@YAXAAVAny@CORBA@@ABVDisconnected@CosEventComm@@@Z
??_3@YAXAAVAny@CORBA@@ABVDuplicateConstraintID@CosNotifyFilter@@@Z
??_3@YAXAAVAny@CORBA@@ABVEventBatch@CosNotification@@@Z
??_3@YAXAAVAny@CORBA@@ABVEventTypeSeq@CosNotification@@@Z
??_3@YAXAAVAny@CORBA@@ABVFactories@CosLifeCycle@@@Z
??_3@YAXAAVAny@CORBA@@ABVFilterIDSeq@CosNotifyFilter@@@Z
??_3@YAXAAVAny@CORBA@@ABVFilterNotFound@CosNotifyFilter@@@Z
??_3@YAXAAVAny@CORBA@@ABVInvalidConstraint@CosNotifyFilter@@@Z
??_3@YAXAAVAny@CORBA@@ABVInvalidCriteria@CosLifeCycle@@@Z
??_3@YAXAAVAny@CORBA@@ABVInvalidEventType@CosNotifyComm@@@Z
??_3@YAXAAVAny@CORBA@@ABVInvalidGrammar@CosNotifyFilter@@@Z
??_3@YAXAAVAny@CORBA@@ABVInvalidValue@CosNotifyFilter@@@Z
??_3@YAXAAVAny@CORBA@@ABVMappingConstraintInfoSeq@CosNotifyFilter@@@Z
??_3@YAXAAVAny@CORBA@@ABVMappingConstraintPairSeq@CosNotifyFilter@@@Z
??_3@YAXAAVAny@CORBA@@ABVNamedPropertyRangeSeq@CosNotification@@@Z
??_3@YAXAAVAny@CORBA@@ABVNoFactory@CosLifeCycle@@@Z
??_3@YAXAAVAny@CORBA@@ABVNotConnected@CosNotifyChannelAdmin@@@Z
??_3@YAXAAVAny@CORBA@@ABVNotCopyable@CosLifeCycle@@@Z
??_3@YAXAAVAny@CORBA@@ABVNotMovable@CosLifeCycle@@@Z
??_3@YAXAAVAny@CORBA@@ABVNotRemovable@CosLifeCycle@@@Z
??_3@YAXAAVAny@CORBA@@ABVPropertyErrorSeq@CosNotification@@@Z
??_3@YAXAAVAny@CORBA@@ABVPropertySeq@CosNotification@@@Z
??_3@YAXAAVAny@CORBA@@ABVProxyIDSeq@CosNotifyChannelAdmin@@@Z
??_3@YAXAAVAny@CORBA@@ABVProxyNotFound@CosNotifyChannelAdmin@@@Z
??_3@YAXAAVAny@CORBA@@ABVTimeUnavailable@CosTime@@@Z
??_3@YAXAAVAny@CORBA@@ABVTypeError@CosEventChannelAdmin@@@Z
??_3@YAXAAVAny@CORBA@@ABVUnsupportedAdmin@CosNotification@@@Z
??_3@YAXAAVAny@CORBA@@ABVUnsupportedFilterableData@CosNotifyFilter@@@Z
??_3@YAXAAVAny@CORBA@@ABVUnsupportedQoS@CosNotification@@@Z
??_3@YAXAAVAny@CORBA@@PAPAV_objref_AdminPropertiesAdmin@CosNotification@@@Z
??_3@YAXAAVAny@CORBA@@PAPAV_objref_ConsumerAdmin@CosEventChannelAdmin@@@Z
??_3@YAXAAVAny@CORBA@@PAPAV_objref_ConsumerAdmin@CosNotifyChannelAdmin@@@Z
??_3@YAXAAVAny@CORBA@@PAPAV_objref_EventChannel@CosEventChannelAdmin@@@Z
??_3@YAXAAVAny@CORBA@@PAPAV_objref_EventChannel@CosNotifyChannelAdmin@@@Z
??_3@YAXAAVAny@CORBA@@PAPAV_objref_EventChannelFactory@CosNotifyChannelAdmin@@@Z
??_3@YAXAAVAny@CORBA@@PAPAV_objref_FactoryFinder@CosLifeCycle@@@Z
??_3@YAXAAVAny@CORBA@@PAPAV_objref_Filter@CosNotifyFilter@@@Z
??_3@YAXAAVAny@CORBA@@PAPAV_objref_FilterAdmin@CosNotifyFilter@@@Z
??_3@YAXAAVAny@CORBA@@PAPAV_objref_FilterFactory@CosNotifyFilter@@@Z
??_3@YAXAAVAny@CORBA@@PAPAV_objref_GenericFactory@CosLifeCycle@@@Z
??_3@YAXAAVAny@CORBA@@PAPAV_objref_LifeCycleObject@CosLifeCycle@@@Z
??_3@YAXAAVAny@CORBA@@PAPAV_objref_MappingFilter@CosNotifyFilter@@@Z
??_3@YAXAAVAny@CORBA@@PAPAV_objref_NotifyPublish@CosNotifyComm@@@Z
??_3@YAXAAVAny@CORBA@@PAPAV_objref_NotifySubscribe@CosNotifyComm@@@Z
??_3@YAXAAVAny@CORBA@@PAPAV_objref_ProxyConsumer@CosNotifyChannelAdmin@@@Z
??_3@YAXAAVAny@CORBA@@PAPAV_objref_ProxyPullConsumer@CosEventChannelAdmin@@@Z
??_3@YAXAAVAny@CORBA@@PAPAV_objref_ProxyPullConsumer@CosNotifyChannelAdmin@@@Z
??_3@YAXAAVAny@CORBA@@PAPAV_objref_ProxyPullSupplier@CosEventChannelAdmin@@@Z
??_3@YAXAAVAny@CORBA@@PAPAV_objref_ProxyPullSupplier@CosNotifyChannelAdmin@@@Z
??_3@YAXAAVAny@CORBA@@PAPAV_objref_ProxyPushConsumer@CosEventChannelAdmin@@@Z
??_3@YAXAAVAny@CORBA@@PAPAV_objref_ProxyPushConsumer@CosNotifyChannelAdmin@@@Z
??_3@YAXAAVAny@CORBA@@PAPAV_objref_ProxyPushSupplier@CosEventChannelAdmin@@@Z
??_3@YAXAAVAny@CORBA@@PAPAV_objref_ProxyPushSupplier@CosNotifyChannelAdmin@@@Z
??_3@YAXAAVAny@CORBA@@PAPAV_objref_ProxySupplier@CosNotifyChannelAdmin@@@Z
??_3@YAXAAVAny@CORBA@@PAPAV_objref_PullConsumer@CosEventComm@@@Z
??_3@YAXAAVAny@CORBA@@PAPAV_objref_PullConsumer@CosNotifyComm@@@Z
??_3@YAXAAVAny@CORBA@@PAPAV_objref_PullSupplier@CosEventComm@@@Z
??_3@YAXAAVAny@CORBA@@PAPAV_objref_PullSupplier@CosNotifyComm@@@Z
??_3@YAXAAVAny@CORBA@@PAPAV_objref_PushConsumer@CosEventComm@@@Z
??_3@YAXAAVAny@CORBA@@PAPAV_objref_PushConsumer@CosNotifyComm@@@Z
??_3@YAXAAVAny@CORBA@@PAPAV_objref_PushSupplier@CosEventComm@@@Z
??_3@YAXAAVAny@CORBA@@PAPAV_objref_PushSupplier@CosNotifyComm@@@Z
??_3@YAXAAVAny@CORBA@@PAPAV_objref_QoSAdmin@CosNotification@@@Z
??_3@YAXAAVAny@CORBA@@PAPAV_objref_SequenceProxyPullConsumer@CosNotifyChannelAdmin@@@Z
??_3@YAXAAVAny@CORBA@@PAPAV_objref_SequenceProxyPullSupplier@CosNotifyChannelAdmin@@@Z
??_3@YAXAAVAny@CORBA@@PAPAV_objref_SequenceProxyPushConsumer@CosNotifyChannelAdmin@@@Z
??_3@YAXAAVAny@CORBA@@PAPAV_objref_SequenceProxyPushSupplier@CosNotifyChannelAdmin@@@Z
??_3@YAXAAVAny@CORBA@@PAPAV_objref_SequencePullConsumer@CosNotifyComm@@@Z
??_3@YAXAAVAny@CORBA@@PAPAV_objref_SequencePullSupplier@CosNotifyComm@@@Z
??_3@YAXAAVAny@CORBA@@PAPAV_objref_SequencePushConsumer@CosNotifyComm@@@Z
??_3@YAXAAVAny@CORBA@@PAPAV_objref_SequencePushSupplier@CosNotifyComm@@@Z
??_3@YAXAAVAny@CORBA@@PAPAV_objref_StructuredProxyPullConsumer@CosNotifyChannelAdmin@@@Z
??_3@YAXAAVAny@CORBA@@PAPAV_objref_StructuredProxyPullSupplier@CosNotifyChannelAdmin@@@Z
??_3@YAXAAVAny@CORBA@@PAPAV_objref_StructuredProxyPushConsumer@CosNotifyChannelAdmin@@@Z
??_3@YAXAAVAny@CORBA@@PAPAV_objref_StructuredProxyPushSupplier@CosNotifyChannelAdmin@@@Z
??_3@YAXAAVAny@CORBA@@PAPAV_objref_StructuredPullConsumer@CosNotifyComm@@@Z
??_3@YAXAAVAny@CORBA@@PAPAV_objref_StructuredPullSupplier@CosNotifyComm@@@Z
??_3@YAXAAVAny@CORBA@@PAPAV_objref_StructuredPushConsumer@CosNotifyComm@@@Z
??_3@YAXAAVAny@CORBA@@PAPAV_objref_StructuredPushSupplier@CosNotifyComm@@@Z
??_3@YAXAAVAny@CORBA@@PAPAV_objref_SupplierAdmin@CosEventChannelAdmin@@@Z
??_3@YAXAAVAny@CORBA@@PAPAV_objref_SupplierAdmin@CosNotifyChannelAdmin@@@Z
??_3@YAXAAVAny@CORBA@@PAPAV_objref_TIO@CosTime@@@Z
??_3@YAXAAVAny@CORBA@@PAPAV_objref_TimeService@CosTime@@@Z
??_3@YAXAAVAny@CORBA@@PAPAV_objref_UTO@CosTime@@@Z
??_3@YAXAAVAny@CORBA@@PAUAdminLimit@CosNotifyChannelAdmin@@@Z
??_3@YAXAAVAny@CORBA@@PAUConstraintExp@CosNotifyFilter@@@Z
??_3@YAXAAVAny@CORBA@@PAUConstraintInfo@CosNotifyFilter@@@Z
??_3@YAXAAVAny@CORBA@@PAUEventHeader@CosNotification@@@Z
??_3@YAXAAVAny@CORBA@@PAUEventType@CosNotification@@@Z
??_3@YAXAAVAny@CORBA@@PAUFixedEventHeader@CosNotification@@@Z
??_3@YAXAAVAny@CORBA@@PAUIntervalT@TimeBase@@@Z
??_3@YAXAAVAny@CORBA@@PAUMappingConstraintInfo@CosNotifyFilter@@@Z
??_3@YAXAAVAny@CORBA@@PAUMappingConstraintPair@CosNotifyFilter@@@Z
??_3@YAXAAVAny@CORBA@@PAUNVP@CosLifeCycle@@@Z
??_3@YAXAAVAny@CORBA@@PAUNamedPropertyRange@CosNotification@@@Z
??_3@YAXAAVAny@CORBA@@PAUProperty@CosNotification@@@Z
??_3@YAXAAVAny@CORBA@@PAUPropertyError@CosNotification@@@Z
??_3@YAXAAVAny@CORBA@@PAUPropertyRange@CosNotification@@@Z
??_3@YAXAAVAny@CORBA@@PAUStructuredEvent@CosNotification@@@Z
??_3@YAXAAVAny@CORBA@@PAUUtcT@TimeBase@@@Z
??_3@YAXAAVAny@CORBA@@PAVAdminIDSeq@CosNotifyChannelAdmin@@@Z
??_3@YAXAAVAny@CORBA@@PAVCallbackIDSeq@CosNotifyFilter@@@Z
??_3@YAXAAVAny@CORBA@@PAVChannelIDSeq@CosNotifyChannelAdmin@@@Z
??_3@YAXAAVAny@CORBA@@PAVConstraintExpSeq@CosNotifyFilter@@@Z
??_3@YAXAAVAny@CORBA@@PAVConstraintIDSeq@CosNotifyFilter@@@Z
??_3@YAXAAVAny@CORBA@@PAVConstraintInfoSeq@CosNotifyFilter@@@Z
??_3@YAXAAVAny@CORBA@@PAVCriteria@CosLifeCycle@@@Z
??_3@YAXAAVAny@CORBA@@PAVEventBatch@CosNotification@@@Z
??_3@YAXAAVAny@CORBA@@PAVEventTypeSeq@CosNotification@@@Z
??_3@YAXAAVAny@CORBA@@PAVFactories@CosLifeCycle@@@Z
??_3@YAXAAVAny@CORBA@@PAVFilterIDSeq@CosNotifyFilter@@@Z
??_3@YAXAAVAny@CORBA@@PAVMappingConstraintInfoSeq@CosNotifyFilter@@@Z
??_3@YAXAAVAny@CORBA@@PAVMappingConstraintPairSeq@CosNotifyFilter@@@Z
??_3@YAXAAVAny@CORBA@@PAVNamedPropertyRangeSeq@CosNotification@@@Z
??_3@YAXAAVAny@CORBA@@PAVPropertyErrorSeq@CosNotification@@@Z
??_3@YAXAAVAny@CORBA@@PAVPropertySeq@CosNotification@@@Z
??_3@YAXAAVAny@CORBA@@PAVProxyIDSeq@CosNotifyChannelAdmin@@@Z
??_3@YAXAAVAny@CORBA@@PAV_objref_AdminPropertiesAdmin@CosNotification@@@Z
??_3@YAXAAVAny@CORBA@@PAV_objref_ConsumerAdmin@CosEventChannelAdmin@@@Z
??_3@YAXAAVAny@CORBA@@PAV_objref_ConsumerAdmin@CosNotifyChannelAdmin@@@Z
??_3@YAXAAVAny@CORBA@@PAV_objref_EventChannel@CosEventChannelAdmin@@@Z
??_3@YAXAAVAny@CORBA@@PAV_objref_EventChannel@CosNotifyChannelAdmin@@@Z
??_3@YAXAAVAny@CORBA@@PAV_objref_EventChannelFactory@CosNotifyChannelAdmin@@@Z
??_3@YAXAAVAny@CORBA@@PAV_objref_FactoryFinder@CosLifeCycle@@@Z
??_3@YAXAAVAny@CORBA@@PAV_objref_Filter@CosNotifyFilter@@@Z
??_3@YAXAAVAny@CORBA@@PAV_objref_FilterAdmin@CosNotifyFilter@@@Z
??_3@YAXAAVAny@CORBA@@PAV_objref_FilterFactory@CosNotifyFilter@@@Z
??_3@YAXAAVAny@CORBA@@PAV_objref_GenericFactory@CosLifeCycle@@@Z
??_3@YAXAAVAny@CORBA@@PAV_objref_LifeCycleObject@CosLifeCycle@@@Z
??_3@YAXAAVAny@CORBA@@PAV_objref_MappingFilter@CosNotifyFilter@@@Z
??_3@YAXAAVAny@CORBA@@PAV_objref_NotifyPublish@CosNotifyComm@@@Z
??_3@YAXAAVAny@CORBA@@PAV_objref_NotifySubscribe@CosNotifyComm@@@Z
??_3@YAXAAVAny@CORBA@@PAV_objref_ProxyConsumer@CosNotifyChannelAdmin@@@Z
??_3@YAXAAVAny@CORBA@@PAV_objref_ProxyPullConsumer@CosEventChannelAdmin@@@Z
??_3@YAXAAVAny@CORBA@@PAV_objref_ProxyPullConsumer@CosNotifyChannelAdmin@@@Z
??_3@YAXAAVAny@CORBA@@PAV_objref_ProxyPullSupplier@CosEventChannelAdmin@@@Z
??_3@YAXAAVAny@CORBA@@PAV_objref_ProxyPullSupplier@CosNotifyChannelAdmin@@@Z
??_3@YAXAAVAny@CORBA@@PAV_objref_ProxyPushConsumer@CosEventChannelAdmin@@@Z
??_3@YAXAAVAny@CORBA@@PAV_objref_ProxyPushConsumer@CosNotifyChannelAdmin@@@Z
??_3@YAXAAVAny@CORBA@@PAV_objref_ProxyPushSupplier@CosEventChannelAdmin@@@Z
??_3@YAXAAVAny@CORBA@@PAV_objref_ProxyPushSupplier@CosNotifyChannelAdmin@@@Z
??_3@YAXAAVAny@CORBA@@PAV_objref_ProxySupplier@CosNotifyChannelAdmin@@@Z
??_3@YAXAAVAny@CORBA@@PAV_objref_PullConsumer@CosEventComm@@@Z
??_3@YAXAAVAny@CORBA@@PAV_objref_PullConsumer@CosNotifyComm@@@Z
??_3@YAXAAVAny@CORBA@@PAV_objref_PullSupplier@CosEventComm@@@Z
??_3@YAXAAVAny@CORBA@@PAV_objref_PullSupplier@CosNotifyComm@@@Z
??_3@YAXAAVAny@CORBA@@PAV_objref_PushConsumer@CosEventComm@@@Z
??_3@YAXAAVAny@CORBA@@PAV_objref_PushConsumer@CosNotifyComm@@@Z
??_3@YAXAAVAny@CORBA@@PAV_objref_PushSupplier@CosEventComm@@@Z
??_3@YAXAAVAny@CORBA@@PAV_objref_PushSupplier@CosNotifyComm@@@Z
??_3@YAXAAVAny@CORBA@@PAV_objref_QoSAdmin@CosNotification@@@Z
??_3@YAXAAVAny@CORBA@@PAV_objref_SequenceProxyPullConsumer@CosNotifyChannelAdmin@@@Z
??_3@YAXAAVAny@CORBA@@PAV_objref_SequenceProxyPullSupplier@CosNotifyChannelAdmin@@@Z
??_3@YAXAAVAny@CORBA@@PAV_objref_SequenceProxyPushConsumer@CosNotifyChannelAdmin@@@Z
??_3@YAXAAVAny@CORBA@@PAV_objref_SequenceProxyPushSupplier@CosNotifyChannelAdmin@@@Z
??_3@YAXAAVAny@CORBA@@PAV_objref_SequencePullConsumer@CosNotifyComm@@@Z
??_3@YAXAAVAny@CORBA@@PAV_objref_SequencePullSupplier@CosNotifyComm@@@Z
??_3@YAXAAVAny@CORBA@@PAV_objref_SequencePushConsumer@CosNotifyComm@@@Z
??_3@YAXAAVAny@CORBA@@PAV_objref_SequencePushSupplier@CosNotifyComm@@@Z
??_3@YAXAAVAny@CORBA@@PAV_objref_StructuredProxyPullConsumer@CosNotifyChannelAdmin@@@Z
??_3@YAXAAVAny@CORBA@@PAV_objref_StructuredProxyPullSupplier@CosNotifyChannelAdmin@@@Z
??_3@YAXAAVAny@CORBA@@PAV_objref_StructuredProxyPushConsumer@CosNotifyChannelAdmin@@@Z
??_3@YAXAAVAny@CORBA@@PAV_objref_StructuredProxyPushSupplier@CosNotifyChannelAdmin@@@Z
??_3@YAXAAVAny@CORBA@@PAV_objref_StructuredPullConsumer@CosNotifyComm@@@Z
??_3@YAXAAVAny@CORBA@@PAV_objref_StructuredPullSupplier@CosNotifyComm@@@Z
??_3@YAXAAVAny@CORBA@@PAV_objref_StructuredPushConsumer@CosNotifyComm@@@Z
??_3@YAXAAVAny@CORBA@@PAV_objref_StructuredPushSupplier@CosNotifyComm@@@Z
??_3@YAXAAVAny@CORBA@@PAV_objref_SupplierAdmin@CosEventChannelAdmin@@@Z
??_3@YAXAAVAny@CORBA@@PAV_objref_SupplierAdmin@CosNotifyChannelAdmin@@@Z
??_3@YAXAAVAny@CORBA@@PAV_objref_TIO@CosTime@@@Z
??_3@YAXAAVAny@CORBA@@PAV_objref_TimeService@CosTime@@@Z
??_3@YAXAAVAny@CORBA@@PAV_objref_UTO@CosTime@@@Z
??_3@YAXAAVAny@CORBA@@PBVAdminLimitExceeded@CosNotifyChannelAdmin@@@Z
??_3@YAXAAVAny@CORBA@@PBVAdminNotFound@CosNotifyChannelAdmin@@@Z
??_3@YAXAAVAny@CORBA@@PBVAlreadyConnected@CosEventChannelAdmin@@@Z
??_3@YAXAAVAny@CORBA@@PBVCallbackNotFound@CosNotifyFilter@@@Z
??_3@YAXAAVAny@CORBA@@PBVCannotMeetCriteria@CosLifeCycle@@@Z
??_3@YAXAAVAny@CORBA@@PBVChannelNotFound@CosNotifyChannelAdmin@@@Z
??_3@YAXAAVAny@CORBA@@PBVConnectionAlreadyActive@CosNotifyChannelAdmin@@@Z
??_3@YAXAAVAny@CORBA@@PBVConnectionAlreadyInactive@CosNotifyChannelAdmin@@@Z
??_3@YAXAAVAny@CORBA@@PBVConstraintNotFound@CosNotifyFilter@@@Z
??_3@YAXAAVAny@CORBA@@PBVDisconnected@CosEventComm@@@Z
??_3@YAXAAVAny@CORBA@@PBVDuplicateConstraintID@CosNotifyFilter@@@Z
??_3@YAXAAVAny@CORBA@@PBVFilterNotFound@CosNotifyFilter@@@Z
??_3@YAXAAVAny@CORBA@@PBVInvalidConstraint@CosNotifyFilter@@@Z
??_3@YAXAAVAny@CORBA@@PBVInvalidCriteria@CosLifeCycle@@@Z
??_3@YAXAAVAny@CORBA@@PBVInvalidEventType@CosNotifyComm@@@Z
??_3@YAXAAVAny@CORBA@@PBVInvalidGrammar@CosNotifyFilter@@@Z
??_3@YAXAAVAny@CORBA@@PBVInvalidValue@CosNotifyFilter@@@Z
??_3@YAXAAVAny@CORBA@@PBVNoFactory@CosLifeCycle@@@Z
??_3@YAXAAVAny@CORBA@@PBVNotConnected@CosNotifyChannelAdmin@@@Z
??_3@YAXAAVAny@CORBA@@PBVNotCopyable@CosLifeCycle@@@Z
??_3@YAXAAVAny@CORBA@@PBVNotMovable@CosLifeCycle@@@Z
??_3@YAXAAVAny@CORBA@@PBVNotRemovable@CosLifeCycle@@@Z
??_3@YAXAAVAny@CORBA@@PBVProxyNotFound@CosNotifyChannelAdmin@@@Z
??_3@YAXAAVAny@CORBA@@PBVTimeUnavailable@CosTime@@@Z
??_3@YAXAAVAny@CORBA@@PBVTypeError@CosEventChannelAdmin@@@Z
??_3@YAXAAVAny@CORBA@@PBVUnsupportedAdmin@CosNotification@@@Z
??_3@YAXAAVAny@CORBA@@PBVUnsupportedFilterableData@CosNotifyFilter@@@Z
??_3@YAXAAVAny@CORBA@@PBVUnsupportedQoS@CosNotification@@@Z
??_3@YAXAAVAny@CORBA@@W4ClientType@CosNotifyChannelAdmin@@@Z
??_3@YAXAAVAny@CORBA@@W4ComparisonType@CosTime@@@Z
??_3@YAXAAVAny@CORBA@@W4InterFilterGroupOperator@CosNotifyChannelAdmin@@@Z
??_3@YAXAAVAny@CORBA@@W4ObtainInfoMode@CosNotifyChannelAdmin@@@Z
??_3@YAXAAVAny@CORBA@@W4OverlapType@CosTime@@@Z
??_3@YAXAAVAny@CORBA@@W4ProxyType@CosNotifyChannelAdmin@@@Z
??_3@YAXAAVAny@CORBA@@W4QoSError_code@CosNotification@@@Z
??_3@YAXAAVAny@CORBA@@W4TimeComparison@CosTime@@@Z
??_3@YAXAAW4ClientType@CosNotifyChannelAdmin@@AAVcdrStream@@@Z
??_3@YAXAAW4ComparisonType@CosTime@@AAVcdrStream@@@Z
??_3@YAXAAW4InterFilterGroupOperator@CosNotifyChannelAdmin@@AAVcdrStream@@@Z
??_3@YAXAAW4ObtainInfoMode@CosNotifyChannelAdmin@@AAVcdrStream@@@Z
??_3@YAXAAW4OverlapType@CosTime@@AAVcdrStream@@@Z
??_3@YAXAAW4ProxyType@CosNotifyChannelAdmin@@AAVcdrStream@@@Z
??_3@YAXAAW4QoSError_code@CosNotification@@AAVcdrStream@@@Z
??_3@YAXAAW4TimeComparison@CosTime@@AAVcdrStream@@@Z
??_3AdminNotFound@CosNotifyChannelAdmin@@QAEXAAVcdrStream@@@Z
??_3AlreadyConnected@CosEventChannelAdmin@@QAEXAAVcdrStream@@@Z
??_3CallbackNotFound@CosNotifyFilter@@QAEXAAVcdrStream@@@Z
??_3ChannelNotFound@CosNotifyChannelAdmin@@QAEXAAVcdrStream@@@Z
??_3ConnectionAlreadyActive@CosNotifyChannelAdmin@@QAEXAAVcdrStream@@@Z
??_3ConnectionAlreadyInactive@CosNotifyChannelAdmin@@QAEXAAVcdrStream@@@Z
??_3Disconnected@CosEventComm@@QAEXAAVcdrStream@@@Z
??_3FilterNotFound@CosNotifyFilter@@QAEXAAVcdrStream@@@Z
??_3InvalidGrammar@CosNotifyFilter@@QAEXAAVcdrStream@@@Z
??_3NotConnected@CosNotifyChannelAdmin@@QAEXAAVcdrStream@@@Z
??_3ProxyNotFound@CosNotifyChannelAdmin@@QAEXAAVcdrStream@@@Z
??_3TimeUnavailable@CosTime@@QAEXAAVcdrStream@@@Z
??_3TypeError@CosEventChannelAdmin@@QAEXAAVcdrStream@@@Z
??_3UnsupportedFilterableData@CosNotifyFilter@@QAEXAAVcdrStream@@@Z
?NP_data@?$_CORBA_Sequence@J@@QBEPAJXZ
?_NP_is_nil@Object@CORBA@@QBE_NXZ
?_NP_is_pseudo@Object@CORBA@@QBE_NXZ
?_PR_getobj@Object@CORBA@@QAEPAVomniObjRef@@XZ
?_tc_AdminID@CosNotifyChannelAdmin@@3QAVTypeCode@CORBA@@A
?_tc_AdminIDSeq@CosNotifyChannelAdmin@@3QAVTypeCode@CORBA@@A
?_tc_AdminLimit@CosNotifyChannelAdmin@@3QAVTypeCode@CORBA@@A
?_tc_AdminLimitExceeded@CosNotifyChannelAdmin@@3QAVTypeCode@CORBA@@A
?_tc_AdminNotFound@CosNotifyChannelAdmin@@3QAVTypeCode@CORBA@@A
?_tc_AdminProperties@CosNotification@@3QAVTypeCode@CORBA@@A
?_tc_AdminPropertiesAdmin@CosNotification@@3QAVTypeCode@CORBA@@A
?_tc_AlreadyConnected@CosEventChannelAdmin@@3QAVTypeCode@CORBA@@A
?_tc_CallbackID@CosNotifyFilter@@3QAVTypeCode@CORBA@@A
?_tc_CallbackIDSeq@CosNotifyFilter@@3QAVTypeCode@CORBA@@A
?_tc_CallbackNotFound@CosNotifyFilter@@3QAVTypeCode@CORBA@@A
?_tc_CannotMeetCriteria@CosLifeCycle@@3QAVTypeCode@CORBA@@A
?_tc_ChannelID@CosNotifyChannelAdmin@@3QAVTypeCode@CORBA@@A
?_tc_ChannelIDSeq@CosNotifyChannelAdmin@@3QAVTypeCode@CORBA@@A
?_tc_ChannelNotFound@CosNotifyChannelAdmin@@3QAVTypeCode@CORBA@@A
?_tc_ClientType@CosNotifyChannelAdmin@@3QAVTypeCode@CORBA@@A
?_tc_ComparisonType@CosTime@@3QAVTypeCode@CORBA@@A
?_tc_ConnectionAlreadyActive@CosNotifyChannelAdmin@@3QAVTypeCode@CORBA@@A
?_tc_ConnectionAlreadyInactive@CosNotifyChannelAdmin@@3QAVTypeCode@CORBA@@A
?_tc_ConstraintExp@CosNotifyFilter@@3QAVTypeCode@CORBA@@A
?_tc_ConstraintExpSeq@CosNotifyFilter@@3QAVTypeCode@CORBA@@A
?_tc_ConstraintID@CosNotifyFilter@@3QAVTypeCode@CORBA@@A
?_tc_ConstraintIDSeq@CosNotifyFilter@@3QAVTypeCode@CORBA@@A
?_tc_ConstraintInfo@CosNotifyFilter@@3QAVTypeCode@CORBA@@A
?_tc_ConstraintInfoSeq@CosNotifyFilter@@3QAVTypeCode@CORBA@@A
?_tc_ConstraintNotFound@CosNotifyFilter@@3QAVTypeCode@CORBA@@A
?_tc_ConsumerAdmin@CosEventChannelAdmin@@3QAVTypeCode@CORBA@@A
?_tc_ConsumerAdmin@CosNotifyChannelAdmin@@3QAVTypeCode@CORBA@@A
?_tc_Criteria@CosLifeCycle@@3QAVTypeCode@CORBA@@A
?_tc_Disconnected@CosEventComm@@3QAVTypeCode@CORBA@@A
?_tc_DuplicateConstraintID@CosNotifyFilter@@3QAVTypeCode@CORBA@@A
?_tc_EventBatch@CosNotification@@3QAVTypeCode@CORBA@@A
?_tc_EventChannel@CosEventChannelAdmin@@3QAVTypeCode@CORBA@@A
?_tc_EventChannel@CosNotifyChannelAdmin@@3QAVTypeCode@CORBA@@A
?_tc_EventChannelFactory@CosNotifyChannelAdmin@@3QAVTypeCode@CORBA@@A
?_tc_EventHeader@CosNotification@@3QAVTypeCode@CORBA@@A
?_tc_EventType@CosNotification@@3QAVTypeCode@CORBA@@A
?_tc_EventTypeSeq@CosNotification@@3QAVTypeCode@CORBA@@A
?_tc_Factories@CosLifeCycle@@3QAVTypeCode@CORBA@@A
?_tc_Factory@CosLifeCycle@@3QAVTypeCode@CORBA@@A
?_tc_FactoryFinder@CosLifeCycle@@3QAVTypeCode@CORBA@@A
?_tc_Filter@CosNotifyFilter@@3QAVTypeCode@CORBA@@A
?_tc_FilterAdmin@CosNotifyFilter@@3QAVTypeCode@CORBA@@A
?_tc_FilterFactory@CosNotifyFilter@@3QAVTypeCode@CORBA@@A
?_tc_FilterID@CosNotifyFilter@@3QAVTypeCode@CORBA@@A
?_tc_FilterIDSeq@CosNotifyFilter@@3QAVTypeCode@CORBA@@A
?_tc_FilterNotFound@CosNotifyFilter@@3QAVTypeCode@CORBA@@A
?_tc_FilterableEventBody@CosNotification@@3QAVTypeCode@CORBA@@A
?_tc_FixedEventHeader@CosNotification@@3QAVTypeCode@CORBA@@A
?_tc_GenericFactory@CosLifeCycle@@3QAVTypeCode@CORBA@@A
?_tc_InaccuracyT@TimeBase@@3QAVTypeCode@CORBA@@A
?_tc_InterFilterGroupOperator@CosNotifyChannelAdmin@@3QAVTypeCode@CORBA@@A
?_tc_IntervalT@TimeBase@@3QAVTypeCode@CORBA@@A
?_tc_InvalidConstraint@CosNotifyFilter@@3QAVTypeCode@CORBA@@A
?_tc_InvalidCriteria@CosLifeCycle@@3QAVTypeCode@CORBA@@A
?_tc_InvalidEventType@CosNotifyComm@@3QAVTypeCode@CORBA@@A
?_tc_InvalidGrammar@CosNotifyFilter@@3QAVTypeCode@CORBA@@A
?_tc_InvalidValue@CosNotifyFilter@@3QAVTypeCode@CORBA@@A
?_tc_Istring@CosNotification@@3QAVTypeCode@CORBA@@A
?_tc_Key@CosLifeCycle@@3QAVTypeCode@CORBA@@A
?_tc_LifeCycleObject@CosLifeCycle@@3QAVTypeCode@CORBA@@A
?_tc_MappingConstraintInfo@CosNotifyFilter@@3QAVTypeCode@CORBA@@A
?_tc_MappingConstraintInfoSeq@CosNotifyFilter@@3QAVTypeCode@CORBA@@A
?_tc_MappingConstraintPair@CosNotifyFilter@@3QAVTypeCode@CORBA@@A
?_tc_MappingConstraintPairSeq@CosNotifyFilter@@3QAVTypeCode@CORBA@@A
?_tc_MappingFilter@CosNotifyFilter@@3QAVTypeCode@CORBA@@A
?_tc_NVP@CosLifeCycle@@3QAVTypeCode@CORBA@@A
?_tc_NameValuePair@CosLifeCycle@@3QAVTypeCode@CORBA@@A
?_tc_NamedPropertyRange@CosNotification@@3QAVTypeCode@CORBA@@A
?_tc_NamedPropertyRangeSeq@CosNotification@@3QAVTypeCode@CORBA@@A
?_tc_NoFactory@CosLifeCycle@@3QAVTypeCode@CORBA@@A
?_tc_NotConnected@CosNotifyChannelAdmin@@3QAVTypeCode@CORBA@@A
?_tc_NotCopyable@CosLifeCycle@@3QAVTypeCode@CORBA@@A
?_tc_NotMovable@CosLifeCycle@@3QAVTypeCode@CORBA@@A
?_tc_NotRemovable@CosLifeCycle@@3QAVTypeCode@CORBA@@A
?_tc_NotifyPublish@CosNotifyComm@@3QAVTypeCode@CORBA@@A
?_tc_NotifySubscribe@CosNotifyComm@@3QAVTypeCode@CORBA@@A
?_tc_ObtainInfoMode@CosNotifyChannelAdmin@@3QAVTypeCode@CORBA@@A
?_tc_OptionalHeaderFields@CosNotification@@3QAVTypeCode@CORBA@@A
?_tc_OverlapType@CosTime@@3QAVTypeCode@CORBA@@A
?_tc_Property@CosNotification@@3QAVTypeCode@CORBA@@A
?_tc_PropertyError@CosNotification@@3QAVTypeCode@CORBA@@A
?_tc_PropertyErrorSeq@CosNotification@@3QAVTypeCode@CORBA@@A
?_tc_PropertyName@CosNotification@@3QAVTypeCode@CORBA@@A
?_tc_PropertyRange@CosNotification@@3QAVTypeCode@CORBA@@A
?_tc_PropertySeq@CosNotification@@3QAVTypeCode@CORBA@@A
?_tc_PropertyValue@CosNotification@@3QAVTypeCode@CORBA@@A
?_tc_ProxyConsumer@CosNotifyChannelAdmin@@3QAVTypeCode@CORBA@@A
?_tc_ProxyID@CosNotifyChannelAdmin@@3QAVTypeCode@CORBA@@A
?_tc_ProxyIDSeq@CosNotifyChannelAdmin@@3QAVTypeCode@CORBA@@A
?_tc_ProxyNotFound@CosNotifyChannelAdmin@@3QAVTypeCode@CORBA@@A
?_tc_ProxyPullConsumer@CosEventChannelAdmin@@3QAVTypeCode@CORBA@@A
?_tc_ProxyPullConsumer@CosNotifyChannelAdmin@@3QAVTypeCode@CORBA@@A
?_tc_ProxyPullSupplier@CosEventChannelAdmin@@3QAVTypeCode@CORBA@@A
?_tc_ProxyPullSupplier@CosNotifyChannelAdmin@@3QAVTypeCode@CORBA@@A
?_tc_ProxyPushConsumer@CosEventChannelAdmin@@3QAVTypeCode@CORBA@@A
?_tc_ProxyPushConsumer@CosNotifyChannelAdmin@@3QAVTypeCode@CORBA@@A
?_tc_ProxyPushSupplier@CosEventChannelAdmin@@3QAVTypeCode@CORBA@@A
?_tc_ProxyPushSupplier@CosNotifyChannelAdmin@@3QAVTypeCode@CORBA@@A
?_tc_ProxySupplier@CosNotifyChannelAdmin@@3QAVTypeCode@CORBA@@A
?_tc_ProxyType@CosNotifyChannelAdmin@@3QAVTypeCode@CORBA@@A
?_tc_PullConsumer@CosEventComm@@3QAVTypeCode@CORBA@@A
?_tc_PullConsumer@CosNotifyComm@@3QAVTypeCode@CORBA@@A
?_tc_PullSupplier@CosEventComm@@3QAVTypeCode@CORBA@@A
?_tc_PullSupplier@CosNotifyComm@@3QAVTypeCode@CORBA@@A
?_tc_PushConsumer@CosEventComm@@3QAVTypeCode@CORBA@@A
?_tc_PushConsumer@CosNotifyComm@@3QAVTypeCode@CORBA@@A
?_tc_PushSupplier@CosEventComm@@3QAVTypeCode@CORBA@@A
?_tc_PushSupplier@CosNotifyComm@@3QAVTypeCode@CORBA@@A
?_tc_QoSAdmin@CosNotification@@3QAVTypeCode@CORBA@@A
?_tc_QoSError_code@CosNotification@@3QAVTypeCode@CORBA@@A
?_tc_QoSProperties@CosNotification@@3QAVTypeCode@CORBA@@A
?_tc_SequenceProxyPullConsumer@CosNotifyChannelAdmin@@3QAVTypeCode@CORBA@@A
?_tc_SequenceProxyPullSupplier@CosNotifyChannelAdmin@@3QAVTypeCode@CORBA@@A
?_tc_SequenceProxyPushConsumer@CosNotifyChannelAdmin@@3QAVTypeCode@CORBA@@A
?_tc_SequenceProxyPushSupplier@CosNotifyChannelAdmin@@3QAVTypeCode@CORBA@@A
?_tc_SequencePullConsumer@CosNotifyComm@@3QAVTypeCode@CORBA@@A
?_tc_SequencePullSupplier@CosNotifyComm@@3QAVTypeCode@CORBA@@A
?_tc_SequencePushConsumer@CosNotifyComm@@3QAVTypeCode@CORBA@@A
?_tc_SequencePushSupplier@CosNotifyComm@@3QAVTypeCode@CORBA@@A
?_tc_StructuredEvent@CosNotification@@3QAVTypeCode@CORBA@@A
?_tc_StructuredProxyPullConsumer@CosNotifyChannelAdmin@@3QAVTypeCode@CORBA@@A
?_tc_StructuredProxyPullSupplier@CosNotifyChannelAdmin@@3QAVTypeCode@CORBA@@A
?_tc_StructuredProxyPushConsumer@CosNotifyChannelAdmin@@3QAVTypeCode@CORBA@@A
?_tc_StructuredProxyPushSupplier@CosNotifyChannelAdmin@@3QAVTypeCode@CORBA@@A
?_tc_StructuredPullConsumer@CosNotifyComm@@3QAVTypeCode@CORBA@@A
?_tc_StructuredPullSupplier@CosNotifyComm@@3QAVTypeCode@CORBA@@A
?_tc_StructuredPushConsumer@CosNotifyComm@@3QAVTypeCode@CORBA@@A
?_tc_StructuredPushSupplier@CosNotifyComm@@3QAVTypeCode@CORBA@@A
?_tc_SupplierAdmin@CosEventChannelAdmin@@3QAVTypeCode@CORBA@@A
?_tc_SupplierAdmin@CosNotifyChannelAdmin@@3QAVTypeCode@CORBA@@A
?_tc_TIO@CosTime@@3QAVTypeCode@CORBA@@A
?_tc_TdfT@TimeBase@@3QAVTypeCode@CORBA@@A
?_tc_TimeComparison@CosTime@@3QAVTypeCode@CORBA@@A
?_tc_TimeService@CosTime@@3QAVTypeCode@CORBA@@A
?_tc_TimeT@TimeBase@@3QAVTypeCode@CORBA@@A
?_tc_TimeUnavailable@CosTime@@3QAVTypeCode@CORBA@@A
?_tc_TypeError@CosEventChannelAdmin@@3QAVTypeCode@CORBA@@A
?_tc_UTO@CosTime@@3QAVTypeCode@CORBA@@A
?_tc_UnsupportedAdmin@CosNotification@@3QAVTypeCode@CORBA@@A
?_tc_UnsupportedFilterableData@CosNotifyFilter@@3QAVTypeCode@CORBA@@A
?_tc_UnsupportedQoS@CosNotification@@3QAVTypeCode@CORBA@@A
?_tc_UtcT@TimeBase@@3QAVTypeCode@CORBA@@A
?align_to@omni@@YAKKW4alignment_t@1@@Z
?alloc@_CORBA_String_helper@@SAPADH@Z
?allocbuf@?$_CORBA_Sequence@J@@SAPAJK@Z
?allocbuf@?$_CORBA_Sequence@UConstraintExp@CosNotifyFilter@@@@SAPAUConstraintExp@CosNotifyFilter@@K@Z
?allocbuf@?$_CORBA_Sequence@UConstraintInfo@CosNotifyFilter@@@@SAPAUConstraintInfo@CosNotifyFilter@@K@Z
?allocbuf@?$_CORBA_Sequence@UEventType@CosNotification@@@@SAPAUEventType@CosNotification@@K@Z
?allocbuf@?$_CORBA_Sequence@UMappingConstraintInfo@CosNotifyFilter@@@@SAPAUMappingConstraintInfo@CosNotifyFilter@@K@Z
?allocbuf@?$_CORBA_Sequence@UMappingConstraintPair@CosNotifyFilter@@@@SAPAUMappingConstraintPair@CosNotifyFilter@@K@Z
?allocbuf@?$_CORBA_Sequence@UNVP@CosLifeCycle@@@@SAPAUNVP@CosLifeCycle@@K@Z
?allocbuf@?$_CORBA_Sequence@UNamedPropertyRange@CosNotification@@@@SAPAUNamedPropertyRange@CosNotification@@K@Z
?allocbuf@?$_CORBA_Sequence@UProperty@CosNotification@@@@SAPAUProperty@CosNotification@@K@Z
?allocbuf@?$_CORBA_Sequence@UPropertyError@CosNotification@@@@SAPAUPropertyError@CosNotification@@K@Z
?allocbuf@?$_CORBA_Sequence@UStructuredEvent@CosNotification@@@@SAPAUStructuredEvent@CosNotification@@K@Z
?allocbuf@?$_CORBA_Sequence_ObjRef@VObject@CORBA@@VObject_Element@2@VObject_Helper@2@@@SAPAPAVObject@CORBA@@K@Z
?byteSwap@cdrStream@@SAGG@Z
?byteSwap@cdrStream@@SAJJ@Z
?byteSwap@cdrStream@@SAKK@Z
?byteSwap@cdrStream@@SA_K_K@Z
?copybuffer@?$_CORBA_Sequence@J@@IAEXK@Z
?copybuffer@?$_CORBA_Sequence@UConstraintExp@CosNotifyFilter@@@@IAEXK@Z
?copybuffer@?$_CORBA_Sequence@UConstraintInfo@CosNotifyFilter@@@@IAEXK@Z
?copybuffer@?$_CORBA_Sequence@UEventType@CosNotification@@@@IAEXK@Z
?copybuffer@?$_CORBA_Sequence@UMappingConstraintInfo@CosNotifyFilter@@@@IAEXK@Z
?copybuffer@?$_CORBA_Sequence@UMappingConstraintPair@CosNotifyFilter@@@@IAEXK@Z
?copybuffer@?$_CORBA_Sequence@UNVP@CosLifeCycle@@@@IAEXK@Z
?copybuffer@?$_CORBA_Sequence@UNamedPropertyRange@CosNotification@@@@IAEXK@Z
?copybuffer@?$_CORBA_Sequence@UProperty@CosNotification@@@@IAEXK@Z
?copybuffer@?$_CORBA_Sequence@UPropertyError@CosNotification@@@@IAEXK@Z
?copybuffer@?$_CORBA_Sequence@UStructuredEvent@CosNotification@@@@IAEXK@Z
?copybuffer@?$_CORBA_Sequence_ObjRef@VObject@CORBA@@VObject_Element@2@VObject_Helper@2@@@IAEXK@Z
?dealloc@_CORBA_String_helper@@SAXPAD@Z
?dup@_CORBA_String_helper@@SAPADPBD@Z
?freebuf@?$_CORBA_Sequence@E@@SAXPAE@Z
?freebuf@?$_CORBA_Sequence@J@@SAXPAJ@Z
?freebuf@?$_CORBA_Sequence@UConstraintExp@CosNotifyFilter@@@@SAXPAUConstraintExp@CosNotifyFilter@@@Z
?freebuf@?$_CORBA_Sequence@UConstraintInfo@CosNotifyFilter@@@@SAXPAUConstraintInfo@CosNotifyFilter@@@Z
?freebuf@?$_CORBA_Sequence@UEventType@CosNotification@@@@SAXPAUEventType@CosNotification@@@Z
?freebuf@?$_CORBA_Sequence@UExceptionDescription@CORBA@@@@SAXPAUExceptionDescription@CORBA@@@Z
?freebuf@?$_CORBA_Sequence@UMappingConstraintInfo@CosNotifyFilter@@@@SAXPAUMappingConstraintInfo@CosNotifyFilter@@@Z
?freebuf@?$_CORBA_Sequence@UMappingConstraintPair@CosNotifyFilter@@@@SAXPAUMappingConstraintPair@CosNotifyFilter@@@Z
?freebuf@?$_CORBA_Sequence@UNVP@CosLifeCycle@@@@SAXPAUNVP@CosLifeCycle@@@Z
?freebuf@?$_CORBA_Sequence@UNameComponent@CosNaming@@@@SAXPAUNameComponent@CosNaming@@@Z
?freebuf@?$_CORBA_Sequence@UNamedPropertyRange@CosNotification@@@@SAXPAUNamedPropertyRange@CosNotification@@@Z
?freebuf@?$_CORBA_Sequence@UParameterDescription@CORBA@@@@SAXPAUParameterDescription@CORBA@@@Z
?freebuf@?$_CORBA_Sequence@UProperty@CosNotification@@@@SAXPAUProperty@CosNotification@@@Z
?freebuf@?$_CORBA_Sequence@UPropertyError@CosNotification@@@@SAXPAUPropertyError@CosNotification@@@Z
?freebuf@?$_CORBA_Sequence@UStructMember@CORBA@@@@SAXPAUStructMember@CORBA@@@Z
?freebuf@?$_CORBA_Sequence@UStructuredEvent@CosNotification@@@@SAXPAUStructuredEvent@CosNotification@@@Z
?freebuf@?$_CORBA_Sequence_ObjRef@VObject@CORBA@@VObject_Element@2@VObject_Helper@2@@@SAXPAPAVObject@CORBA@@@Z
?freebuf@_CORBA_Sequence_String@@SAXPAPAD@Z
?inMkr@cdrStream@@IAEKW4alignment_t@omni@@@Z
?length@?$_CORBA_Sequence@J@@QAEXK@Z
?length@?$_CORBA_Sequence@J@@QBEKXZ
?length@?$_CORBA_Sequence@UConstraintExp@CosNotifyFilter@@@@QAEXK@Z
?length@?$_CORBA_Sequence@UConstraintInfo@CosNotifyFilter@@@@QAEXK@Z
?length@?$_CORBA_Sequence@UEventType@CosNotification@@@@QAEXK@Z
?length@?$_CORBA_Sequence@UMappingConstraintInfo@CosNotifyFilter@@@@QAEXK@Z
?length@?$_CORBA_Sequence@UMappingConstraintPair@CosNotifyFilter@@@@QAEXK@Z
?length@?$_CORBA_Sequence@UNVP@CosLifeCycle@@@@QAEXK@Z
?length@?$_CORBA_Sequence@UNamedPropertyRange@CosNotification@@@@QAEXK@Z
?length@?$_CORBA_Sequence@UProperty@CosNotification@@@@QAEXK@Z
?length@?$_CORBA_Sequence@UPropertyError@CosNotification@@@@QAEXK@Z
?length@?$_CORBA_Sequence@UStructuredEvent@CosNotification@@@@QAEXK@Z
?length@?$_CORBA_Sequence_ObjRef@VObject@CORBA@@VObject_Element@2@VObject_Helper@2@@@QAEXK@Z
?marshalLong@cdrStream@@QAEXJ@Z
?marshalULong@cdrStream@@QAEXK@Z
?marshal_byte_swap@cdrStream@@QBE_NXZ
?outMkr@cdrStream@@IAEKW4alignment_t@omni@@@Z
?release@CORBA@@YAXPAVObject@1@@Z
?unmarshalULong@cdrStream@@QAEKXZ
?unmarshal_byte_swap@cdrStream@@QBE_NXZ
