LIBRARY shared/COS421_vc14_rt
VERSION 2.1
EXPORTS
??0?$_CORBA_ConstrType_Variable_Var@UStructuredEvent@CosNotification@@@@QAE@XZ
??0?$_CORBA_ObjRef_OUT_arg@V_objref_TIO@CosTime@@VTIO_Helper@2@@@QAE@AAPAV_objref_TIO@CosTime@@@Z
??0?$_CORBA_ObjRef_Var@V_objref_ConsumerAdmin@CosEventChannelAdmin@@VConsumerAdmin_Helper@2@@@QAE@XZ
??0?$_CORBA_ObjRef_Var@V_objref_ConsumerAdmin@CosNotifyChannelAdmin@@VConsumerAdmin_Helper@2@@@QAE@XZ
??0?$_CORBA_ObjRef_Var@V_objref_EventChannel@CosNotifyChannelAdmin@@VEventChannel_Helper@2@@@QAE@XZ
??0?$_CORBA_ObjRef_Var@V_objref_EventChannelFactory@CosNotifyChannelAdmin@@VEventChannelFactory_Helper@2@@@QAE@XZ
??0?$_CORBA_ObjRef_Var@V_objref_FactoryFinder@CosLifeCycle@@VFactoryFinder_Helper@2@@@QAE@XZ
??0?$_CORBA_ObjRef_Var@V_objref_Filter@CosNotifyFilter@@VFilter_Helper@2@@@QAE@XZ
??0?$_CORBA_ObjRef_Var@V_objref_FilterFactory@CosNotifyFilter@@VFilterFactory_Helper@2@@@QAE@XZ
??0?$_CORBA_ObjRef_Var@V_objref_LifeCycleObject@CosLifeCycle@@VLifeCycleObject_Helper@2@@@QAE@XZ
??0?$_CORBA_ObjRef_Var@V_objref_MappingFilter@CosNotifyFilter@@VMappingFilter_Helper@2@@@QAE@XZ
??0?$_CORBA_ObjRef_Var@V_objref_NotifySubscribe@CosNotifyComm@@VNotifySubscribe_Helper@2@@@QAE@XZ
??0?$_CORBA_ObjRef_Var@V_objref_ProxyConsumer@CosNotifyChannelAdmin@@VProxyConsumer_Helper@2@@@QAE@XZ
??0?$_CORBA_ObjRef_Var@V_objref_ProxyPullConsumer@CosEventChannelAdmin@@VProxyPullConsumer_Helper@2@@@QAE@XZ
??0?$_CORBA_ObjRef_Var@V_objref_ProxyPullSupplier@CosEventChannelAdmin@@VProxyPullSupplier_Helper@2@@@QAE@XZ
??0?$_CORBA_ObjRef_Var@V_objref_ProxyPushConsumer@CosEventChannelAdmin@@VProxyPushConsumer_Helper@2@@@QAE@XZ
??0?$_CORBA_ObjRef_Var@V_objref_ProxyPushSupplier@CosEventChannelAdmin@@VProxyPushSupplier_Helper@2@@@QAE@XZ
??0?$_CORBA_ObjRef_Var@V_objref_ProxySupplier@CosNotifyChannelAdmin@@VProxySupplier_Helper@2@@@QAE@XZ
??0?$_CORBA_ObjRef_Var@V_objref_PullConsumer@CosEventComm@@VPullConsumer_Helper@2@@@QAE@XZ
??0?$_CORBA_ObjRef_Var@V_objref_PullSupplier@CosEventComm@@VPullSupplier_Helper@2@@@QAE@XZ
??0?$_CORBA_ObjRef_Var@V_objref_PushConsumer@CosEventComm@@VPushConsumer_Helper@2@@@QAE@XZ
??0?$_CORBA_ObjRef_Var@V_objref_PushSupplier@CosEventComm@@VPushSupplier_Helper@2@@@QAE@XZ
??0?$_CORBA_ObjRef_Var@V_objref_SequencePullConsumer@CosNotifyComm@@VSequencePullConsumer_Helper@2@@@QAE@XZ
??0?$_CORBA_ObjRef_Var@V_objref_SequencePullSupplier@CosNotifyComm@@VSequencePullSupplier_Helper@2@@@QAE@XZ
??0?$_CORBA_ObjRef_Var@V_objref_SequencePushConsumer@CosNotifyComm@@VSequencePushConsumer_Helper@2@@@QAE@XZ
??0?$_CORBA_ObjRef_Var@V_objref_SequencePushSupplier@CosNotifyComm@@VSequencePushSupplier_Helper@2@@@QAE@XZ
??0?$_CORBA_ObjRef_Var@V_objref_StructuredPullConsumer@CosNotifyComm@@VStructuredPullConsumer_Helper@2@@@QAE@XZ
??0?$_CORBA_ObjRef_Var@V_objref_StructuredPullSupplier@CosNotifyComm@@VStructuredPullSupplier_Helper@2@@@QAE@XZ
??0?$_CORBA_ObjRef_Var@V_objref_StructuredPushConsumer@CosNotifyComm@@VStructuredPushConsumer_Helper@2@@@QAE@XZ
??0?$_CORBA_ObjRef_Var@V_objref_StructuredPushSupplier@CosNotifyComm@@VStructuredPushSupplier_Helper@2@@@QAE@XZ
??0?$_CORBA_ObjRef_Var@V_objref_SupplierAdmin@CosEventChannelAdmin@@VSupplierAdmin_Helper@2@@@QAE@XZ
??0?$_CORBA_ObjRef_Var@V_objref_SupplierAdmin@CosNotifyChannelAdmin@@VSupplierAdmin_Helper@2@@@QAE@XZ
??0?$_CORBA_ObjRef_Var@V_objref_TIO@CosTime@@VTIO_Helper@2@@@QAE@XZ
??0?$_CORBA_ObjRef_Var@V_objref_UTO@CosTime@@VUTO_Helper@2@@@QAE@XZ
??0?$_CORBA_Sequence@J@@IAE@XZ
??0?$_CORBA_Sequence@UConstraintExp@CosNotifyFilter@@@@IAE@XZ
??0?$_CORBA_Sequence@UConstraintInfo@CosNotifyFilter@@@@IAE@XZ
??0?$_CORBA_Sequence@UEventType@CosNotification@@@@IAE@XZ
??0?$_CORBA_Sequence@UMappingConstraintInfo@CosNotifyFilter@@@@IAE@XZ
??0?$_CORBA_Sequence@UMappingConstraintPair@CosNotifyFilter@@@@IAE@XZ
??0?$_CORBA_Sequence@UNVP@CosLifeCycle@@@@IAE@XZ
??0?$_CORBA_Sequence@UNameComponent@CosNaming@@@@IAE@XZ
??0?$_CORBA_Sequence@UNamedPropertyRange@CosNotification@@@@IAE@XZ
??0?$_CORBA_Sequence@UProperty@CosNotification@@@@IAE@XZ
??0?$_CORBA_Sequence@UPropertyError@CosNotification@@@@IAE@XZ
??0?$_CORBA_Sequence@UStructuredEvent@CosNotification@@@@IAE@XZ
??0?$_CORBA_Sequence_ObjRef@VObject@CORBA@@VObject_Element@2@VObject_Helper@2@@@IAE@XZ
??0?$_CORBA_Unbounded_Sequence@J@@QAE@XZ
??0?$_CORBA_Unbounded_Sequence@UConstraintExp@CosNotifyFilter@@@@QAE@XZ
??0?$_CORBA_Unbounded_Sequence@UConstraintInfo@CosNotifyFilter@@@@QAE@XZ
??0?$_CORBA_Unbounded_Sequence@UEventType@CosNotification@@@@QAE@XZ
??0?$_CORBA_Unbounded_Sequence@UMappingConstraintInfo@CosNotifyFilter@@@@QAE@XZ
??0?$_CORBA_Unbounded_Sequence@UMappingConstraintPair@CosNotifyFilter@@@@QAE@XZ
??0?$_CORBA_Unbounded_Sequence@UNVP@CosLifeCycle@@@@QAE@XZ
??0?$_CORBA_Unbounded_Sequence@UNameComponent@CosNaming@@@@QAE@XZ
??0?$_CORBA_Unbounded_Sequence@UNamedPropertyRange@CosNotification@@@@QAE@XZ
??0?$_CORBA_Unbounded_Sequence@UProperty@CosNotification@@@@QAE@XZ
??0?$_CORBA_Unbounded_Sequence@UPropertyError@CosNotification@@@@QAE@XZ
??0?$_CORBA_Unbounded_Sequence@UStructuredEvent@CosNotification@@@@QAE@XZ
??0?$_CORBA_Unbounded_Sequence_ObjRef@VObject@CORBA@@VObject_Element@2@VObject_Helper@2@@@QAE@XZ
??0?$_CORBA_Unbounded_Sequence_w_FixSizeElement@J$03$03@@QAE@XZ
??0AdminIDSeq@CosNotifyChannelAdmin@@QAE@XZ
??0AdminIDSeq_var@CosNotifyChannelAdmin@@QAE@XZ
??0AdminLimit@CosNotifyChannelAdmin@@QAE@XZ
??0AdminLimitExceeded@CosNotifyChannelAdmin@@QAE@ABUAdminLimit@1@@Z
??0AdminLimitExceeded@CosNotifyChannelAdmin@@QAE@ABV01@@Z
??0AdminLimitExceeded@CosNotifyChannelAdmin@@QAE@XZ
??0AdminNotFound@CosNotifyChannelAdmin@@QAE@ABV01@@Z
??0AdminNotFound@CosNotifyChannelAdmin@@QAE@XZ
??0AlreadyConnected@CosEventChannelAdmin@@QAE@ABV01@@Z
??0AlreadyConnected@CosEventChannelAdmin@@QAE@XZ
??0Any_OUT_arg@CORBA@@QAE@AAPAVAny@1@@Z
??0Any_var@CORBA@@QAE@XZ
??0CallbackIDSeq@CosNotifyFilter@@QAE@XZ
??0CallbackIDSeq_var@CosNotifyFilter@@QAE@XZ
??0CallbackNotFound@CosNotifyFilter@@QAE@ABV01@@Z
??0CallbackNotFound@CosNotifyFilter@@QAE@XZ
??0CannotMeetCriteria@CosLifeCycle@@QAE@ABV01@@Z
??0CannotMeetCriteria@CosLifeCycle@@QAE@VCriteria@1@@Z
??0CannotMeetCriteria@CosLifeCycle@@QAE@XZ
??0ChannelIDSeq@CosNotifyChannelAdmin@@QAE@XZ
??0ChannelIDSeq_var@CosNotifyChannelAdmin@@QAE@XZ
??0ChannelNotFound@CosNotifyChannelAdmin@@QAE@ABV01@@Z
??0ChannelNotFound@CosNotifyChannelAdmin@@QAE@XZ
??0ConnectionAlreadyActive@CosNotifyChannelAdmin@@QAE@ABV01@@Z
??0ConnectionAlreadyActive@CosNotifyChannelAdmin@@QAE@XZ
??0ConnectionAlreadyInactive@CosNotifyChannelAdmin@@QAE@ABV01@@Z
??0ConnectionAlreadyInactive@CosNotifyChannelAdmin@@QAE@XZ
??0ConstraintExp@CosNotifyFilter@@QAE@XZ
??0ConstraintExpSeq@CosNotifyFilter@@QAE@XZ
??0ConstraintExpSeq_var@CosNotifyFilter@@QAE@XZ
??0ConstraintIDSeq@CosNotifyFilter@@QAE@XZ
??0ConstraintIDSeq_var@CosNotifyFilter@@QAE@XZ
??0ConstraintInfo@CosNotifyFilter@@QAE@XZ
??0ConstraintInfoSeq@CosNotifyFilter@@QAE@XZ
??0ConstraintInfoSeq_var@CosNotifyFilter@@QAE@XZ
??0ConstraintNotFound@CosNotifyFilter@@QAE@ABV01@@Z
??0ConstraintNotFound@CosNotifyFilter@@QAE@J@Z
??0ConstraintNotFound@CosNotifyFilter@@QAE@XZ
??0Criteria@CosLifeCycle@@QAE@XZ
??0Criteria_var@CosLifeCycle@@QAE@XZ
??0Disconnected@CosEventComm@@QAE@ABV01@@Z
??0Disconnected@CosEventComm@@QAE@XZ
??0DuplicateConstraintID@CosNotifyFilter@@QAE@ABV01@@Z
??0DuplicateConstraintID@CosNotifyFilter@@QAE@J@Z
??0EventBatch@CosNotification@@QAE@XZ
??0EventBatch_var@CosNotification@@QAE@XZ
??0EventHeader@CosNotification@@QAE@XZ
??0EventType@CosNotification@@QAE@XZ
??0EventTypeSeq@CosNotification@@QAE@XZ
??0EventTypeSeq_var@CosNotification@@QAE@XZ
??0Exception@CORBA@@IAE@XZ
??0Exception@CORBA@@QAE@ABV01@@Z
??0Factories@CosLifeCycle@@QAE@XZ
??0Factories_var@CosLifeCycle@@QAE@XZ
??0FilterIDSeq@CosNotifyFilter@@QAE@XZ
??0FilterIDSeq_var@CosNotifyFilter@@QAE@XZ
??0FilterNotFound@CosNotifyFilter@@QAE@ABV01@@Z
??0FilterNotFound@CosNotifyFilter@@QAE@XZ
??0FixedEventHeader@CosNotification@@QAE@XZ
??0InvalidConstraint@CosNotifyFilter@@QAE@ABUConstraintExp@1@@Z
??0InvalidConstraint@CosNotifyFilter@@QAE@ABV01@@Z
??0InvalidConstraint@CosNotifyFilter@@QAE@XZ
??0InvalidCriteria@CosLifeCycle@@QAE@ABV01@@Z
??0InvalidCriteria@CosLifeCycle@@QAE@VCriteria@1@@Z
??0InvalidCriteria@CosLifeCycle@@QAE@XZ
??0InvalidEventType@CosNotifyComm@@QAE@ABUEventType@CosNotification@@@Z
??0InvalidEventType@CosNotifyComm@@QAE@ABV01@@Z
??0InvalidEventType@CosNotifyComm@@QAE@XZ
??0InvalidGrammar@CosNotifyFilter@@QAE@ABV01@@Z
??0InvalidGrammar@CosNotifyFilter@@QAE@XZ
??0InvalidValue@CosNotifyFilter@@QAE@ABUConstraintExp@1@ABVAny@CORBA@@@Z
??0InvalidValue@CosNotifyFilter@@QAE@ABV01@@Z
??0InvalidValue@CosNotifyFilter@@QAE@XZ
??0MARSHAL@CORBA@@QAE@ABV01@@Z
??0MARSHAL@CORBA@@QAE@KW4CompletionStatus@1@@Z
??0MappingConstraintInfo@CosNotifyFilter@@QAE@XZ
??0MappingConstraintInfoSeq@CosNotifyFilter@@QAE@XZ
??0MappingConstraintInfoSeq_var@CosNotifyFilter@@QAE@XZ
??0MappingConstraintPair@CosNotifyFilter@@QAE@XZ
??0MappingConstraintPairSeq@CosNotifyFilter@@QAE@XZ
??0MappingConstraintPairSeq_var@CosNotifyFilter@@QAE@XZ
??0NVP@CosLifeCycle@@QAE@XZ
??0Name@CosNaming@@QAE@XZ
??0NameComponent@CosNaming@@QAE@XZ
??0Name_var@CosNaming@@QAE@XZ
??0NamedPropertyRange@CosNotification@@QAE@XZ
??0NamedPropertyRangeSeq@CosNotification@@QAE@XZ
??0NamedPropertyRangeSeq_out@CosNotification@@QAE@AAPAVNamedPropertyRangeSeq@1@@Z
??0NamedPropertyRangeSeq_var@CosNotification@@QAE@XZ
??0NoFactory@CosLifeCycle@@QAE@ABV01@@Z
??0NoFactory@CosLifeCycle@@QAE@VName@CosNaming@@@Z
??0NoFactory@CosLifeCycle@@QAE@XZ
??0NotConnected@CosNotifyChannelAdmin@@QAE@ABV01@@Z
??0NotConnected@CosNotifyChannelAdmin@@QAE@XZ
??0NotCopyable@CosLifeCycle@@QAE@ABV01@@Z
??0NotCopyable@CosLifeCycle@@QAE@PBD@Z
??0NotCopyable@CosLifeCycle@@QAE@XZ
??0NotMovable@CosLifeCycle@@QAE@ABV01@@Z
??0NotMovable@CosLifeCycle@@QAE@PBD@Z
??0NotMovable@CosLifeCycle@@QAE@XZ
??0NotRemovable@CosLifeCycle@@QAE@ABV01@@Z
??0NotRemovable@CosLifeCycle@@QAE@PBD@Z
??0NotRemovable@CosLifeCycle@@QAE@XZ
??0Object@CORBA@@QAE@XZ
??0Object_var@CORBA@@QAE@XZ
??0Property@CosNotification@@QAE@XZ
??0PropertyError@CosNotification@@QAE@XZ
??0PropertyErrorSeq@CosNotification@@QAE@XZ
??0PropertyRange@CosNotification@@QAE@XZ
??0PropertySeq@CosNotification@@QAE@XZ
??0PropertySeq_var@CosNotification@@QAE@XZ
??0ProxyIDSeq@CosNotifyChannelAdmin@@QAE@XZ
??0ProxyIDSeq_var@CosNotifyChannelAdmin@@QAE@XZ
??0ProxyNotFound@CosNotifyChannelAdmin@@QAE@ABV01@@Z
??0ProxyNotFound@CosNotifyChannelAdmin@@QAE@XZ
??0StructuredEvent@CosNotification@@QAE@XZ
??0SystemException@CORBA@@QAE@ABV01@@Z
??0SystemException@CORBA@@QAE@KW4CompletionStatus@1@@Z
??0TimeUnavailable@CosTime@@QAE@ABV01@@Z
??0TimeUnavailable@CosTime@@QAE@XZ
??0TypeCode_var@CORBA@@QAE@XZ
??0TypeError@CosEventChannelAdmin@@QAE@ABV01@@Z
??0TypeError@CosEventChannelAdmin@@QAE@XZ
??0UNKNOWN@CORBA@@QAE@ABV01@@Z
??0UNKNOWN@CORBA@@QAE@KW4CompletionStatus@1@@Z
??0UnsupportedAdmin@CosNotification@@QAE@ABV01@@Z
??0UnsupportedAdmin@CosNotification@@QAE@VPropertyErrorSeq@1@@Z
??0UnsupportedAdmin@CosNotification@@QAE@XZ
??0UnsupportedFilterableData@CosNotifyFilter@@QAE@ABV01@@Z
??0UnsupportedFilterableData@CosNotifyFilter@@QAE@XZ
??0UnsupportedQoS@CosNotification@@QAE@ABV01@@Z
??0UnsupportedQoS@CosNotification@@QAE@VPropertyErrorSeq@1@@Z
??0UnsupportedQoS@CosNotification@@QAE@XZ
??0UserException@CORBA@@IAE@XZ
??0UserException@CORBA@@QAE@ABV01@@Z
??0_0RL_cd_1fe8f330207afd15_00000000@@QAE@P6AXPAVomniCallDescriptor@@PAVomniServant@@@ZPBDI_N@Z
??0_0RL_cd_1fe8f330207afd15_02000000@@QAE@P6AXPAVomniCallDescriptor@@PAVomniServant@@@ZPBDI_N@Z
??0_0RL_cd_1fe8f330207afd15_03000000@@QAE@P6AXPAVomniCallDescriptor@@PAVomniServant@@@ZPBDI_N@Z
??0_0RL_cd_1fe8f330207afd15_11000000@@QAE@P6AXPAVomniCallDescriptor@@PAVomniServant@@@ZPBDI_N@Z
??0_0RL_cd_1fe8f330207afd15_20000000@@QAE@P6AXPAVomniCallDescriptor@@PAVomniServant@@@ZPBDI_N@Z
??0_0RL_cd_1fe8f330207afd15_22000000@@QAE@P6AXPAVomniCallDescriptor@@PAVomniServant@@@ZPBDI_N@Z
??0_0RL_cd_1fe8f330207afd15_23000000@@QAE@P6AXPAVomniCallDescriptor@@PAVomniServant@@@ZPBDI_N@Z
??0_0RL_cd_1fe8f330207afd15_31000000@@QAE@P6AXPAVomniCallDescriptor@@PAVomniServant@@@ZPBDI_N@Z
??0_0RL_cd_1fe8f330207afd15_40000000@@QAE@P6AXPAVomniCallDescriptor@@PAVomniServant@@@ZPBDI_N@Z
??0_0RL_cd_1fe8f330207afd15_42000000@@QAE@P6AXPAVomniCallDescriptor@@PAVomniServant@@@ZPBDI_N@Z
??0_0RL_cd_1fe8f330207afd15_43000000@@QAE@P6AXPAVomniCallDescriptor@@PAVomniServant@@@ZPBDI_N@Z
??0_0RL_cd_1fe8f330207afd15_51000000@@QAE@P6AXPAVomniCallDescriptor@@PAVomniServant@@@ZPBDI_N@Z
??0_0RL_cd_1fe8f330207afd15_60000000@@QAE@P6AXPAVomniCallDescriptor@@PAVomniServant@@@ZPBDI_N@Z
??0_0RL_cd_1fe8f330207afd15_63000000@@QAE@P6AXPAVomniCallDescriptor@@PAVomniServant@@@ZPBDI_N@Z
??0_0RL_cd_1fe8f330207afd15_71000000@@QAE@P6AXPAVomniCallDescriptor@@PAVomniServant@@@ZPBDI_N@Z
??0_0RL_cd_1fe8f330207afd15_80000000@@QAE@P6AXPAVomniCallDescriptor@@PAVomniServant@@@ZPBDI_N@Z
??0_0RL_cd_1fe8f330207afd15_82000000@@QAE@P6AXPAVomniCallDescriptor@@PAVomniServant@@@ZPBDI_N@Z
??0_0RL_cd_1fe8f330207afd15_83000000@@QAE@P6AXPAVomniCallDescriptor@@PAVomniServant@@@ZPBDI_N@Z
??0_0RL_cd_1fe8f330207afd15_a0000000@@QAE@P6AXPAVomniCallDescriptor@@PAVomniServant@@@ZPBDI_N@Z
??0_0RL_cd_1fe8f330207afd15_a1000000@@QAE@P6AXPAVomniCallDescriptor@@PAVomniServant@@@ZPBDI_N@Z
??0_0RL_cd_1fe8f330207afd15_a2000000@@QAE@P6AXPAVomniCallDescriptor@@PAVomniServant@@@ZPBDI_N@Z
??0_0RL_cd_1fe8f330207afd15_c1000000@@QAE@P6AXPAVomniCallDescriptor@@PAVomniServant@@@ZPBDI_N@Z
??0_0RL_cd_1fe8f330207afd15_c2000000@@QAE@P6AXPAVomniCallDescriptor@@PAVomniServant@@@ZPBDI_N@Z
??0_0RL_cd_1fe8f330207afd15_d0000000@@QAE@P6AXPAVomniCallDescriptor@@PAVomniServant@@@ZPBDI_N@Z
??0_0RL_cd_1fe8f330207afd15_e1000000@@QAE@P6AXPAVomniCallDescriptor@@PAVomniServant@@@ZPBDI_N@Z
??0_0RL_cd_1fe8f330207afd15_e2000000@@QAE@P6AXPAVomniCallDescriptor@@PAVomniServant@@@ZPBDI_N@Z
??0_0RL_cd_1fe8f330207afd15_f0000000@@QAE@P6AXPAVomniCallDescriptor@@PAVomniServant@@@ZPBDI_N@Z
??0_0RL_cd_25b2b9dd5b4ad98d_00000000@@QAE@P6AXPAVomniCallDescriptor@@PAVomniServant@@@ZPBDI_N@Z
??0_0RL_cd_25b2b9dd5b4ad98d_20000000@@QAE@P6AXPAVomniCallDescriptor@@PAVomniServant@@@ZPBDI_N@Z
??0_0RL_cd_25b2b9dd5b4ad98d_40000000@@QAE@P6AXPAVomniCallDescriptor@@PAVomniServant@@@ZPBDI_N@Z
??0_0RL_cd_25b2b9dd5b4ad98d_60000000@@QAE@P6AXPAVomniCallDescriptor@@PAVomniServant@@@ZPBDI_N@Z
??0_0RL_cd_25b2b9dd5b4ad98d_80000000@@QAE@P6AXPAVomniCallDescriptor@@PAVomniServant@@@ZPBDI_N@Z
??0_0RL_cd_25b2b9dd5b4ad98d_a0000000@@QAE@P6AXPAVomniCallDescriptor@@PAVomniServant@@@ZPBDI_N@Z
??0_0RL_cd_4b6b86183777b6c2_00000000@@QAE@P6AXPAVomniCallDescriptor@@PAVomniServant@@@ZPBDI_N@Z
??0_0RL_cd_4b6b86183777b6c2_21000000@@QAE@P6AXPAVomniCallDescriptor@@PAVomniServant@@@ZPBDI_N@Z
??0_0RL_cd_4b6b86183777b6c2_30000000@@QAE@P6AXPAVomniCallDescriptor@@PAVomniServant@@@ZPBDI_N@Z
??0_0RL_cd_4b6b86183777b6c2_41000000@@QAE@P6AXPAVomniCallDescriptor@@PAVomniServant@@@ZPBDI_N@Z
??0_0RL_cd_4b6b86183777b6c2_50000000@@QAE@P6AXPAVomniCallDescriptor@@PAVomniServant@@@ZPBDI_N@Z
??0_0RL_cd_4b6b86183777b6c2_80000000@@QAE@P6AXPAVomniCallDescriptor@@PAVomniServant@@@ZPBDI_N@Z
??0_0RL_cd_4b6b86183777b6c2_a0000000@@QAE@P6AXPAVomniCallDescriptor@@PAVomniServant@@@ZPBDI_N@Z
??0_0RL_cd_4b6b86183777b6c2_e0000000@@QAE@P6AXPAVomniCallDescriptor@@PAVomniServant@@@ZPBDI_N@Z
??0_0RL_cd_8b6214f5b3100e7e_00000000@@QAE@P6AXPAVomniCallDescriptor@@PAVomniServant@@@ZPBDI_N@Z
??0_0RL_cd_8b6214f5b3100e7e_20000000@@QAE@P6AXPAVomniCallDescriptor@@PAVomniServant@@@ZPBDI_N@Z
??0_0RL_cd_8b6214f5b3100e7e_40000000@@QAE@P6AXPAVomniCallDescriptor@@PAVomniServant@@@ZPBDI_N@Z
??0_0RL_cd_8b6214f5b3100e7e_70000000@@QAE@P6AXPAVomniCallDescriptor@@PAVomniServant@@@ZPBDI_N@Z
??0_0RL_cd_9043e11a9721dab3_00000000@@QAE@P6AXPAVomniCallDescriptor@@PAVomniServant@@@ZPBDI_N@Z
??0_0RL_cd_9043e11a9721dab3_06000000@@QAE@P6AXPAVomniCallDescriptor@@PAVomniServant@@@ZPBDI_N@Z
??0_0RL_cd_9043e11a9721dab3_12000000@@QAE@P6AXPAVomniCallDescriptor@@PAVomniServant@@@ZPBDI_N@Z
??0_0RL_cd_9043e11a9721dab3_13000000@@QAE@P6AXPAVomniCallDescriptor@@PAVomniServant@@@ZPBDI_N@Z
??0_0RL_cd_9043e11a9721dab3_20000000@@QAE@P6AXPAVomniCallDescriptor@@PAVomniServant@@@ZPBDI_N@Z
??0_0RL_cd_9043e11a9721dab3_25000000@@QAE@P6AXPAVomniCallDescriptor@@PAVomniServant@@@ZPBDI_N@Z
??0_0RL_cd_9043e11a9721dab3_26000000@@QAE@P6AXPAVomniCallDescriptor@@PAVomniServant@@@ZPBDI_N@Z
??0_0RL_cd_9043e11a9721dab3_31000000@@QAE@P6AXPAVomniCallDescriptor@@PAVomniServant@@@ZPBDI_N@Z
??0_0RL_cd_9043e11a9721dab3_32000000@@QAE@P6AXPAVomniCallDescriptor@@PAVomniServant@@@ZPBDI_N@Z
??0_0RL_cd_9043e11a9721dab3_34000000@@QAE@P6AXPAVomniCallDescriptor@@PAVomniServant@@@ZPBDI_N@Z
??0_0RL_cd_9043e11a9721dab3_40000000@@QAE@P6AXPAVomniCallDescriptor@@PAVomniServant@@@ZPBDI_N@Z
??0_0RL_cd_9043e11a9721dab3_45000000@@QAE@P6AXPAVomniCallDescriptor@@PAVomniServant@@@ZPBDI_N@Z
??0_0RL_cd_9043e11a9721dab3_46000000@@QAE@P6AXPAVomniCallDescriptor@@PAVomniServant@@@ZPBDI_N@Z
??0_0RL_cd_9043e11a9721dab3_51000000@@QAE@P6AXPAVomniCallDescriptor@@PAVomniServant@@@ZPBDI_N@Z
??0_0RL_cd_9043e11a9721dab3_52000000@@QAE@P6AXPAVomniCallDescriptor@@PAVomniServant@@@ZPBDI_N@Z
??0_0RL_cd_9043e11a9721dab3_53000000@@QAE@P6AXPAVomniCallDescriptor@@PAVomniServant@@@ZPBDI_N@Z
??0_0RL_cd_9043e11a9721dab3_60000000@@QAE@P6AXPAVomniCallDescriptor@@PAVomniServant@@@ZPBDI_N@Z
??0_0RL_cd_9043e11a9721dab3_64000000@@QAE@P6AXPAVomniCallDescriptor@@PAVomniServant@@@ZPBDI_N@Z
??0_0RL_cd_9043e11a9721dab3_66000000@@QAE@P6AXPAVomniCallDescriptor@@PAVomniServant@@@ZPBDI_N@Z
??0_0RL_cd_9043e11a9721dab3_71000000@@QAE@P6AXPAVomniCallDescriptor@@PAVomniServant@@@ZPBDI_N@Z
??0_0RL_cd_9043e11a9721dab3_84000000@@QAE@P6AXPAVomniCallDescriptor@@PAVomniServant@@@ZPBDI_N@Z
??0_0RL_cd_9043e11a9721dab3_85000000@@QAE@P6AXPAVomniCallDescriptor@@PAVomniServant@@@ZPBDI_N@Z
??0_0RL_cd_9043e11a9721dab3_90000000@@QAE@P6AXPAVomniCallDescriptor@@PAVomniServant@@@ZPBDI_N@Z
??0_0RL_cd_9043e11a9721dab3_91000000@@QAE@P6AXPAVomniCallDescriptor@@PAVomniServant@@@ZPBDI_N@Z
??0_0RL_cd_9043e11a9721dab3_92000000@@QAE@P6AXPAVomniCallDescriptor@@PAVomniServant@@@ZPBDI_N@Z
??0_0RL_cd_9043e11a9721dab3_93000000@@QAE@P6AXPAVomniCallDescriptor@@PAVomniServant@@@ZPBDI_N@Z
??0_0RL_cd_9043e11a9721dab3_96000000@@QAE@P6AXPAVomniCallDescriptor@@PAVomniServant@@@ZPBDI_N@Z
??0_0RL_cd_9043e11a9721dab3_b0000000@@QAE@P6AXPAVomniCallDescriptor@@PAVomniServant@@@ZPBDI_N@Z
??0_0RL_cd_9043e11a9721dab3_b1000000@@QAE@P6AXPAVomniCallDescriptor@@PAVomniServant@@@ZPBDI_N@Z
??0_0RL_cd_9043e11a9721dab3_b3000000@@QAE@P6AXPAVomniCallDescriptor@@PAVomniServant@@@ZPBDI_N@Z
??0_0RL_cd_9043e11a9721dab3_b4000000@@QAE@P6AXPAVomniCallDescriptor@@PAVomniServant@@@ZPBDI_N@Z
??0_0RL_cd_9043e11a9721dab3_b6000000@@QAE@P6AXPAVomniCallDescriptor@@PAVomniServant@@@ZPBDI_N@Z
??0_0RL_cd_9043e11a9721dab3_c5000000@@QAE@P6AXPAVomniCallDescriptor@@PAVomniServant@@@ZPBDI_N@Z
??0_0RL_cd_9043e11a9721dab3_d0000000@@QAE@P6AXPAVomniCallDescriptor@@PAVomniServant@@@ZPBDI_N@Z
??0_0RL_cd_9043e11a9721dab3_d1000000@@QAE@P6AXPAVomniCallDescriptor@@PAVomniServant@@@ZPBDI_N@Z
??0_0RL_cd_9043e11a9721dab3_d2000000@@QAE@P6AXPAVomniCallDescriptor@@PAVomniServant@@@ZPBDI_N@Z
??0_0RL_cd_9043e11a9721dab3_d3000000@@QAE@P6AXPAVomniCallDescriptor@@PAVomniServant@@@ZPBDI_N@Z
??0_0RL_cd_9043e11a9721dab3_d6000000@@QAE@P6AXPAVomniCallDescriptor@@PAVomniServant@@@ZPBDI_N@Z
??0_0RL_cd_9043e11a9721dab3_e5000000@@QAE@P6AXPAVomniCallDescriptor@@PAVomniServant@@@ZPBDI_N@Z
??0_0RL_cd_9043e11a9721dab3_f1000000@@QAE@P6AXPAVomniCallDescriptor@@PAVomniServant@@@ZPBDI_N@Z
??0_0RL_cd_99dff546ea0f9974_00000000@@QAE@P6AXPAVomniCallDescriptor@@PAVomniServant@@@ZPBDI_N@Z
??0_0RL_cd_99dff546ea0f9974_11000000@@QAE@P6AXPAVomniCallDescriptor@@PAVomniServant@@@ZPBDI_N@Z
??0_0RL_cd_99dff546ea0f9974_30000000@@QAE@P6AXPAVomniCallDescriptor@@PAVomniServant@@@ZPBDI_N@Z
??0_0RL_cd_99dff546ea0f9974_31000000@@QAE@P6AXPAVomniCallDescriptor@@PAVomniServant@@@ZPBDI_N@Z
??0_0RL_cd_99dff546ea0f9974_50000000@@QAE@P6AXPAVomniCallDescriptor@@PAVomniServant@@@ZPBDI_N@Z
??0_0RL_cd_99dff546ea0f9974_61000000@@QAE@P6AXPAVomniCallDescriptor@@PAVomniServant@@@ZPBDI_N@Z
??0_0RL_cd_99dff546ea0f9974_70000000@@QAE@P6AXPAVomniCallDescriptor@@PAVomniServant@@@ZPBDI_N@Z
??0_0RL_cd_99dff546ea0f9974_90000000@@QAE@P6AXPAVomniCallDescriptor@@PAVomniServant@@@ZPBDI_N@Z
??0_0RL_cd_99dff546ea0f9974_91000000@@QAE@P6AXPAVomniCallDescriptor@@PAVomniServant@@@ZPBDI_N@Z
??0_0RL_cd_99dff546ea0f9974_b0000000@@QAE@P6AXPAVomniCallDescriptor@@PAVomniServant@@@ZPBDI_N@Z
??0_0RL_cd_99dff546ea0f9974_b1000000@@QAE@P6AXPAVomniCallDescriptor@@PAVomniServant@@@ZPBDI_N@Z
??0_0RL_cd_99dff546ea0f9974_d0000000@@QAE@P6AXPAVomniCallDescriptor@@PAVomniServant@@@ZPBDI_N@Z
??0_0RL_cd_99dff546ea0f9974_d1000000@@QAE@P6AXPAVomniCallDescriptor@@PAVomniServant@@@ZPBDI_N@Z
??0_0RL_cd_99dff546ea0f9974_f0000000@@QAE@P6AXPAVomniCallDescriptor@@PAVomniServant@@@ZPBDI_N@Z
??0_0RL_cd_bd959cc57b2e138f_00000000@@QAE@P6AXPAVomniCallDescriptor@@PAVomniServant@@@ZPBDI_N@Z
??0_0RL_cd_bd959cc57b2e138f_20000000@@QAE@P6AXPAVomniCallDescriptor@@PAVomniServant@@@ZPBDI_N@Z
??0_0RL_cd_bd959cc57b2e138f_50000000@@QAE@P6AXPAVomniCallDescriptor@@PAVomniServant@@@ZPBDI_N@Z
??0_0RL_cd_bd959cc57b2e138f_70000000@@QAE@P6AXPAVomniCallDescriptor@@PAVomniServant@@@ZPBDI_N@Z
??0_0RL_cd_f894c8374a428e70_00000000@@QAE@P6AXPAVomniCallDescriptor@@PAVomniServant@@@ZPBDI_N@Z
??0_0RL_cd_f894c8374a428e70_01000000@@QAE@P6AXPAVomniCallDescriptor@@PAVomniServant@@@ZPBDI_N@Z
??0_0RL_cd_f894c8374a428e70_20000000@@QAE@P6AXPAVomniCallDescriptor@@PAVomniServant@@@ZPBDI_N@Z
??0_0RL_cd_f894c8374a428e70_21000000@@QAE@P6AXPAVomniCallDescriptor@@PAVomniServant@@@ZPBDI_N@Z
??0_0RL_cd_f894c8374a428e70_40000000@@QAE@P6AXPAVomniCallDescriptor@@PAVomniServant@@@ZPBDI_N@Z
??0_0RL_cd_f894c8374a428e70_41000000@@QAE@P6AXPAVomniCallDescriptor@@PAVomniServant@@@ZPBDI_N@Z
??0_0RL_cd_f894c8374a428e70_60000000@@QAE@P6AXPAVomniCallDescriptor@@PAVomniServant@@@ZPBDI_N@Z
??0_0RL_cd_f894c8374a428e70_80000000@@QAE@P6AXPAVomniCallDescriptor@@PAVomniServant@@@ZPBDI_N@Z
??0_0RL_cd_f894c8374a428e70_a0000000@@QAE@P6AXPAVomniCallDescriptor@@PAVomniServant@@@ZPBDI_N@Z
??0_0RL_cd_f894c8374a428e70_c0000000@@QAE@P6AXPAVomniCallDescriptor@@PAVomniServant@@@ZPBDI_N@Z
??0_0RL_cd_f894c8374a428e70_e0000000@@QAE@P6AXPAVomniCallDescriptor@@PAVomniServant@@@ZPBDI_N@Z
??0_CORBA_String_member@@QAE@XZ
??0_CORBA_String_var@@QAE@XZ
??0_objref_AdminPropertiesAdmin@CosNotification@@QAE@PAVomniIOR@@PAVomniIdentity@@@Z
??0_objref_AdminPropertiesAdmin@CosNotification@@QAE@XZ
??0_objref_ConsumerAdmin@CosEventChannelAdmin@@QAE@PAVomniIOR@@PAVomniIdentity@@@Z
??0_objref_ConsumerAdmin@CosEventChannelAdmin@@QAE@XZ
??0_objref_ConsumerAdmin@CosNotifyChannelAdmin@@QAE@PAVomniIOR@@PAVomniIdentity@@@Z
??0_objref_ConsumerAdmin@CosNotifyChannelAdmin@@QAE@XZ
??0_objref_EventChannel@CosEventChannelAdmin@@QAE@PAVomniIOR@@PAVomniIdentity@@@Z
??0_objref_EventChannel@CosEventChannelAdmin@@QAE@XZ
??0_objref_EventChannel@CosNotifyChannelAdmin@@QAE@PAVomniIOR@@PAVomniIdentity@@@Z
??0_objref_EventChannel@CosNotifyChannelAdmin@@QAE@XZ
??0_objref_EventChannelFactory@CosNotifyChannelAdmin@@QAE@PAVomniIOR@@PAVomniIdentity@@@Z
??0_objref_EventChannelFactory@CosNotifyChannelAdmin@@QAE@XZ
??0_objref_FactoryFinder@CosLifeCycle@@QAE@PAVomniIOR@@PAVomniIdentity@@@Z
??0_objref_FactoryFinder@CosLifeCycle@@QAE@XZ
??0_objref_Filter@CosNotifyFilter@@QAE@PAVomniIOR@@PAVomniIdentity@@@Z
??0_objref_Filter@CosNotifyFilter@@QAE@XZ
??0_objref_FilterAdmin@CosNotifyFilter@@QAE@PAVomniIOR@@PAVomniIdentity@@@Z
??0_objref_FilterAdmin@CosNotifyFilter@@QAE@XZ
??0_objref_FilterFactory@CosNotifyFilter@@QAE@PAVomniIOR@@PAVomniIdentity@@@Z
??0_objref_FilterFactory@CosNotifyFilter@@QAE@XZ
??0_objref_GenericFactory@CosLifeCycle@@QAE@PAVomniIOR@@PAVomniIdentity@@@Z
??0_objref_GenericFactory@CosLifeCycle@@QAE@XZ
??0_objref_LifeCycleObject@CosLifeCycle@@QAE@PAVomniIOR@@PAVomniIdentity@@@Z
??0_objref_LifeCycleObject@CosLifeCycle@@QAE@XZ
??0_objref_MappingFilter@CosNotifyFilter@@QAE@PAVomniIOR@@PAVomniIdentity@@@Z
??0_objref_MappingFilter@CosNotifyFilter@@QAE@XZ
??0_objref_NotifyPublish@CosNotifyComm@@QAE@PAVomniIOR@@PAVomniIdentity@@@Z
??0_objref_NotifyPublish@CosNotifyComm@@QAE@XZ
??0_objref_NotifySubscribe@CosNotifyComm@@QAE@PAVomniIOR@@PAVomniIdentity@@@Z
??0_objref_NotifySubscribe@CosNotifyComm@@QAE@XZ
??0_objref_ProxyConsumer@CosNotifyChannelAdmin@@QAE@PAVomniIOR@@PAVomniIdentity@@@Z
??0_objref_ProxyConsumer@CosNotifyChannelAdmin@@QAE@XZ
??0_objref_ProxyPullConsumer@CosEventChannelAdmin@@QAE@PAVomniIOR@@PAVomniIdentity@@@Z
??0_objref_ProxyPullConsumer@CosEventChannelAdmin@@QAE@XZ
??0_objref_ProxyPullConsumer@CosNotifyChannelAdmin@@QAE@PAVomniIOR@@PAVomniIdentity@@@Z
??0_objref_ProxyPullConsumer@CosNotifyChannelAdmin@@QAE@XZ
??0_objref_ProxyPullSupplier@CosEventChannelAdmin@@QAE@PAVomniIOR@@PAVomniIdentity@@@Z
??0_objref_ProxyPullSupplier@CosEventChannelAdmin@@QAE@XZ
??0_objref_ProxyPullSupplier@CosNotifyChannelAdmin@@QAE@PAVomniIOR@@PAVomniIdentity@@@Z
??0_objref_ProxyPullSupplier@CosNotifyChannelAdmin@@QAE@XZ
??0_objref_ProxyPushConsumer@CosEventChannelAdmin@@QAE@PAVomniIOR@@PAVomniIdentity@@@Z
??0_objref_ProxyPushConsumer@CosEventChannelAdmin@@QAE@XZ
??0_objref_ProxyPushConsumer@CosNotifyChannelAdmin@@QAE@PAVomniIOR@@PAVomniIdentity@@@Z
??0_objref_ProxyPushConsumer@CosNotifyChannelAdmin@@QAE@XZ
??0_objref_ProxyPushSupplier@CosEventChannelAdmin@@QAE@PAVomniIOR@@PAVomniIdentity@@@Z
??0_objref_ProxyPushSupplier@CosEventChannelAdmin@@QAE@XZ
??0_objref_ProxyPushSupplier@CosNotifyChannelAdmin@@QAE@PAVomniIOR@@PAVomniIdentity@@@Z
??0_objref_ProxyPushSupplier@CosNotifyChannelAdmin@@QAE@XZ
??0_objref_ProxySupplier@CosNotifyChannelAdmin@@QAE@PAVomniIOR@@PAVomniIdentity@@@Z
??0_objref_ProxySupplier@CosNotifyChannelAdmin@@QAE@XZ
??0_objref_PullConsumer@CosEventComm@@QAE@PAVomniIOR@@PAVomniIdentity@@@Z
??0_objref_PullConsumer@CosEventComm@@QAE@XZ
??0_objref_PullConsumer@CosNotifyComm@@QAE@PAVomniIOR@@PAVomniIdentity@@@Z
??0_objref_PullConsumer@CosNotifyComm@@QAE@XZ
??0_objref_PullSupplier@CosEventComm@@QAE@PAVomniIOR@@PAVomniIdentity@@@Z
??0_objref_PullSupplier@CosEventComm@@QAE@XZ
??0_objref_PullSupplier@CosNotifyComm@@QAE@PAVomniIOR@@PAVomniIdentity@@@Z
??0_objref_PullSupplier@CosNotifyComm@@QAE@XZ
??0_objref_PushConsumer@CosEventComm@@QAE@PAVomniIOR@@PAVomniIdentity@@@Z
??0_objref_PushConsumer@CosEventComm@@QAE@XZ
??0_objref_PushConsumer@CosNotifyComm@@QAE@PAVomniIOR@@PAVomniIdentity@@@Z
??0_objref_PushConsumer@CosNotifyComm@@QAE@XZ
??0_objref_PushSupplier@CosEventComm@@QAE@PAVomniIOR@@PAVomniIdentity@@@Z
??0_objref_PushSupplier@CosEventComm@@QAE@XZ
??0_objref_PushSupplier@CosNotifyComm@@QAE@PAVomniIOR@@PAVomniIdentity@@@Z
??0_objref_PushSupplier@CosNotifyComm@@QAE@XZ
??0_objref_QoSAdmin@CosNotification@@QAE@PAVomniIOR@@PAVomniIdentity@@@Z
??0_objref_QoSAdmin@CosNotification@@QAE@XZ
??0_objref_SequenceProxyPullConsumer@CosNotifyChannelAdmin@@QAE@PAVomniIOR@@PAVomniIdentity@@@Z
??0_objref_SequenceProxyPullConsumer@CosNotifyChannelAdmin@@QAE@XZ
??0_objref_SequenceProxyPullSupplier@CosNotifyChannelAdmin@@QAE@PAVomniIOR@@PAVomniIdentity@@@Z
??0_objref_SequenceProxyPullSupplier@CosNotifyChannelAdmin@@QAE@XZ
??0_objref_SequenceProxyPushConsumer@CosNotifyChannelAdmin@@QAE@PAVomniIOR@@PAVomniIdentity@@@Z
??0_objref_SequenceProxyPushConsumer@CosNotifyChannelAdmin@@QAE@XZ
??0_objref_SequenceProxyPushSupplier@CosNotifyChannelAdmin@@QAE@PAVomniIOR@@PAVomniIdentity@@@Z
??0_objref_SequenceProxyPushSupplier@CosNotifyChannelAdmin@@QAE@XZ
??0_objref_SequencePullConsumer@CosNotifyComm@@QAE@PAVomniIOR@@PAVomniIdentity@@@Z
??0_objref_SequencePullConsumer@CosNotifyComm@@QAE@XZ
??0_objref_SequencePullSupplier@CosNotifyComm@@QAE@PAVomniIOR@@PAVomniIdentity@@@Z
??0_objref_SequencePullSupplier@CosNotifyComm@@QAE@XZ
??0_objref_SequencePushConsumer@CosNotifyComm@@QAE@PAVomniIOR@@PAVomniIdentity@@@Z
??0_objref_SequencePushConsumer@CosNotifyComm@@QAE@XZ
??0_objref_SequencePushSupplier@CosNotifyComm@@QAE@PAVomniIOR@@PAVomniIdentity@@@Z
??0_objref_SequencePushSupplier@CosNotifyComm@@QAE@XZ
??0_objref_StructuredProxyPullConsumer@CosNotifyChannelAdmin@@QAE@PAVomniIOR@@PAVomniIdentity@@@Z
??0_objref_StructuredProxyPullConsumer@CosNotifyChannelAdmin@@QAE@XZ
??0_objref_StructuredProxyPullSupplier@CosNotifyChannelAdmin@@QAE@PAVomniIOR@@PAVomniIdentity@@@Z
??0_objref_StructuredProxyPullSupplier@CosNotifyChannelAdmin@@QAE@XZ
??0_objref_StructuredProxyPushConsumer@CosNotifyChannelAdmin@@QAE@PAVomniIOR@@PAVomniIdentity@@@Z
??0_objref_StructuredProxyPushConsumer@CosNotifyChannelAdmin@@QAE@XZ
??0_objref_StructuredProxyPushSupplier@CosNotifyChannelAdmin@@QAE@PAVomniIOR@@PAVomniIdentity@@@Z
??0_objref_StructuredProxyPushSupplier@CosNotifyChannelAdmin@@QAE@XZ
??0_objref_StructuredPullConsumer@CosNotifyComm@@QAE@PAVomniIOR@@PAVomniIdentity@@@Z
??0_objref_StructuredPullConsumer@CosNotifyComm@@QAE@XZ
??0_objref_StructuredPullSupplier@CosNotifyComm@@QAE@PAVomniIOR@@PAVomniIdentity@@@Z
??0_objref_StructuredPullSupplier@CosNotifyComm@@QAE@XZ
??0_objref_StructuredPushConsumer@CosNotifyComm@@QAE@PAVomniIOR@@PAVomniIdentity@@@Z
??0_objref_StructuredPushConsumer@CosNotifyComm@@QAE@XZ
??0_objref_StructuredPushSupplier@CosNotifyComm@@QAE@PAVomniIOR@@PAVomniIdentity@@@Z
??0_objref_StructuredPushSupplier@CosNotifyComm@@QAE@XZ
??0_objref_SupplierAdmin@CosEventChannelAdmin@@QAE@PAVomniIOR@@PAVomniIdentity@@@Z
??0_objref_SupplierAdmin@CosEventChannelAdmin@@QAE@XZ
??0_objref_SupplierAdmin@CosNotifyChannelAdmin@@QAE@PAVomniIOR@@PAVomniIdentity@@@Z
??0_objref_SupplierAdmin@CosNotifyChannelAdmin@@QAE@XZ
??0_objref_TIO@CosTime@@QAE@PAVomniIOR@@PAVomniIdentity@@@Z
??0_objref_TIO@CosTime@@QAE@XZ
??0_objref_TimeService@CosTime@@QAE@PAVomniIOR@@PAVomniIdentity@@@Z
??0_objref_TimeService@CosTime@@QAE@XZ
??0_objref_UTO@CosTime@@QAE@PAVomniIOR@@PAVomniIdentity@@@Z
??0_objref_UTO@CosTime@@QAE@XZ
??0_pof_AdminPropertiesAdmin@CosNotification@@QAE@XZ
??0_pof_ConsumerAdmin@CosEventChannelAdmin@@QAE@XZ
??0_pof_ConsumerAdmin@CosNotifyChannelAdmin@@QAE@XZ
??0_pof_EventChannel@CosEventChannelAdmin@@QAE@XZ
??0_pof_EventChannel@CosNotifyChannelAdmin@@QAE@XZ
??0_pof_EventChannelFactory@CosNotifyChannelAdmin@@QAE@XZ
??0_pof_FactoryFinder@CosLifeCycle@@QAE@XZ
??0_pof_Filter@CosNotifyFilter@@QAE@XZ
??0_pof_FilterAdmin@CosNotifyFilter@@QAE@XZ
??0_pof_FilterFactory@CosNotifyFilter@@QAE@XZ
??0_pof_GenericFactory@CosLifeCycle@@QAE@XZ
??0_pof_LifeCycleObject@CosLifeCycle@@QAE@XZ
??0_pof_MappingFilter@CosNotifyFilter@@QAE@XZ
??0_pof_NotifyPublish@CosNotifyComm@@QAE@XZ
??0_pof_NotifySubscribe@CosNotifyComm@@QAE@XZ
??0_pof_ProxyConsumer@CosNotifyChannelAdmin@@QAE@XZ
??0_pof_ProxyPullConsumer@CosEventChannelAdmin@@QAE@XZ
??0_pof_ProxyPullConsumer@CosNotifyChannelAdmin@@QAE@XZ
??0_pof_ProxyPullSupplier@CosEventChannelAdmin@@QAE@XZ
??0_pof_ProxyPullSupplier@CosNotifyChannelAdmin@@QAE@XZ
??0_pof_ProxyPushConsumer@CosEventChannelAdmin@@QAE@XZ
??0_pof_ProxyPushConsumer@CosNotifyChannelAdmin@@QAE@XZ
??0_pof_ProxyPushSupplier@CosEventChannelAdmin@@QAE@XZ
??0_pof_ProxyPushSupplier@CosNotifyChannelAdmin@@QAE@XZ
??0_pof_ProxySupplier@CosNotifyChannelAdmin@@QAE@XZ
??0_pof_PullConsumer@CosEventComm@@QAE@XZ
??0_pof_PullConsumer@CosNotifyComm@@QAE@XZ
??0_pof_PullSupplier@CosEventComm@@QAE@XZ
??0_pof_PullSupplier@CosNotifyComm@@QAE@XZ
??0_pof_PushConsumer@CosEventComm@@QAE@XZ
??0_pof_PushConsumer@CosNotifyComm@@QAE@XZ
??0_pof_PushSupplier@CosEventComm@@QAE@XZ
??0_pof_PushSupplier@CosNotifyComm@@QAE@XZ
??0_pof_QoSAdmin@CosNotification@@QAE@XZ
??0_pof_SequenceProxyPullConsumer@CosNotifyChannelAdmin@@QAE@XZ
??0_pof_SequenceProxyPullSupplier@CosNotifyChannelAdmin@@QAE@XZ
??0_pof_SequenceProxyPushConsumer@CosNotifyChannelAdmin@@QAE@XZ
??0_pof_SequenceProxyPushSupplier@CosNotifyChannelAdmin@@QAE@XZ
??0_pof_SequencePullConsumer@CosNotifyComm@@QAE@XZ
??0_pof_SequencePullSupplier@CosNotifyComm@@QAE@XZ
??0_pof_SequencePushConsumer@CosNotifyComm@@QAE@XZ
??0_pof_SequencePushSupplier@CosNotifyComm@@QAE@XZ
??0_pof_StructuredProxyPullConsumer@CosNotifyChannelAdmin@@QAE@XZ
??0_pof_StructuredProxyPullSupplier@CosNotifyChannelAdmin@@QAE@XZ
??0_pof_StructuredProxyPushConsumer@CosNotifyChannelAdmin@@QAE@XZ
??0_pof_StructuredProxyPushSupplier@CosNotifyChannelAdmin@@QAE@XZ
??0_pof_StructuredPullConsumer@CosNotifyComm@@QAE@XZ
??0_pof_StructuredPullSupplier@CosNotifyComm@@QAE@XZ
??0_pof_StructuredPushConsumer@CosNotifyComm@@QAE@XZ
??0_pof_StructuredPushSupplier@CosNotifyComm@@QAE@XZ
??0_pof_SupplierAdmin@CosEventChannelAdmin@@QAE@XZ
??0_pof_SupplierAdmin@CosNotifyChannelAdmin@@QAE@XZ
??0_pof_TIO@CosTime@@QAE@XZ
??0_pof_TimeService@CosTime@@QAE@XZ
??0_pof_UTO@CosTime@@QAE@XZ
??0omniCallDescriptor@@QAE@P6AXPAV0@PAVomniServant@@@ZPBDI_NPBQBDH4@Z
??0omni_time_t@@QAE@KK@Z
??1?$_CORBA_ConstrType_Variable_Var@UStructuredEvent@CosNotification@@@@QAE@XZ
??1?$_CORBA_ObjRef_Member@V_objref_Contained@CORBA@@VContained_Helper@2@@@QAE@XZ
??1?$_CORBA_ObjRef_Member@V_objref_IDLType@CORBA@@VIDLType_Helper@2@@@QAE@XZ
??1?$_CORBA_ObjRef_OUT_arg@V_objref_TIO@CosTime@@VTIO_Helper@2@@@QAE@XZ
??1?$_CORBA_ObjRef_Var@V_objref_ConsumerAdmin@CosEventChannelAdmin@@VConsumerAdmin_Helper@2@@@QAE@XZ
??1?$_CORBA_ObjRef_Var@V_objref_ConsumerAdmin@CosNotifyChannelAdmin@@VConsumerAdmin_Helper@2@@@QAE@XZ
??1?$_CORBA_ObjRef_Var@V_objref_EventChannel@CosNotifyChannelAdmin@@VEventChannel_Helper@2@@@QAE@XZ
??1?$_CORBA_ObjRef_Var@V_objref_EventChannelFactory@CosNotifyChannelAdmin@@VEventChannelFactory_Helper@2@@@QAE@XZ
??1?$_CORBA_ObjRef_Var@V_objref_FactoryFinder@CosLifeCycle@@VFactoryFinder_Helper@2@@@QAE@XZ
??1?$_CORBA_ObjRef_Var@V_objref_Filter@CosNotifyFilter@@VFilter_Helper@2@@@QAE@XZ
??1?$_CORBA_ObjRef_Var@V_objref_FilterFactory@CosNotifyFilter@@VFilterFactory_Helper@2@@@QAE@XZ
??1?$_CORBA_ObjRef_Var@V_objref_LifeCycleObject@CosLifeCycle@@VLifeCycleObject_Helper@2@@@QAE@XZ
??1?$_CORBA_ObjRef_Var@V_objref_MappingFilter@CosNotifyFilter@@VMappingFilter_Helper@2@@@QAE@XZ
??1?$_CORBA_ObjRef_Var@V_objref_NotifySubscribe@CosNotifyComm@@VNotifySubscribe_Helper@2@@@QAE@XZ
??1?$_CORBA_ObjRef_Var@V_objref_ProxyConsumer@CosNotifyChannelAdmin@@VProxyConsumer_Helper@2@@@QAE@XZ
??1?$_CORBA_ObjRef_Var@V_objref_ProxyPullConsumer@CosEventChannelAdmin@@VProxyPullConsumer_Helper@2@@@QAE@XZ
??1?$_CORBA_ObjRef_Var@V_objref_ProxyPullSupplier@CosEventChannelAdmin@@VProxyPullSupplier_Helper@2@@@QAE@XZ
??1?$_CORBA_ObjRef_Var@V_objref_ProxyPushConsumer@CosEventChannelAdmin@@VProxyPushConsumer_Helper@2@@@QAE@XZ
??1?$_CORBA_ObjRef_Var@V_objref_ProxyPushSupplier@CosEventChannelAdmin@@VProxyPushSupplier_Helper@2@@@QAE@XZ
??1?$_CORBA_ObjRef_Var@V_objref_ProxySupplier@CosNotifyChannelAdmin@@VProxySupplier_Helper@2@@@QAE@XZ
??1?$_CORBA_ObjRef_Var@V_objref_PullConsumer@CosEventComm@@VPullConsumer_Helper@2@@@QAE@XZ
??1?$_CORBA_ObjRef_Var@V_objref_PullSupplier@CosEventComm@@VPullSupplier_Helper@2@@@QAE@XZ
??1?$_CORBA_ObjRef_Var@V_objref_PushConsumer@CosEventComm@@VPushConsumer_Helper@2@@@QAE@XZ
??1?$_CORBA_ObjRef_Var@V_objref_PushSupplier@CosEventComm@@VPushSupplier_Helper@2@@@QAE@XZ
??1?$_CORBA_ObjRef_Var@V_objref_SequencePullConsumer@CosNotifyComm@@VSequencePullConsumer_Helper@2@@@QAE@XZ
??1?$_CORBA_ObjRef_Var@V_objref_SequencePullSupplier@CosNotifyComm@@VSequencePullSupplier_Helper@2@@@QAE@XZ
??1?$_CORBA_ObjRef_Var@V_objref_SequencePushConsumer@CosNotifyComm@@VSequencePushConsumer_Helper@2@@@QAE@XZ
??1?$_CORBA_ObjRef_Var@V_objref_SequencePushSupplier@CosNotifyComm@@VSequencePushSupplier_Helper@2@@@QAE@XZ
??1?$_CORBA_ObjRef_Var@V_objref_StructuredPullConsumer@CosNotifyComm@@VStructuredPullConsumer_Helper@2@@@QAE@XZ
??1?$_CORBA_ObjRef_Var@V_objref_StructuredPullSupplier@CosNotifyComm@@VStructuredPullSupplier_Helper@2@@@QAE@XZ
??1?$_CORBA_ObjRef_Var@V_objref_StructuredPushConsumer@CosNotifyComm@@VStructuredPushConsumer_Helper@2@@@QAE@XZ
??1?$_CORBA_ObjRef_Var@V_objref_StructuredPushSupplier@CosNotifyComm@@VStructuredPushSupplier_Helper@2@@@QAE@XZ
??1?$_CORBA_ObjRef_Var@V_objref_SupplierAdmin@CosEventChannelAdmin@@VSupplierAdmin_Helper@2@@@QAE@XZ
??1?$_CORBA_ObjRef_Var@V_objref_SupplierAdmin@CosNotifyChannelAdmin@@VSupplierAdmin_Helper@2@@@QAE@XZ
??1?$_CORBA_ObjRef_Var@V_objref_TIO@CosTime@@VTIO_Helper@2@@@QAE@XZ
??1?$_CORBA_ObjRef_Var@V_objref_UTO@CosTime@@VUTO_Helper@2@@@QAE@XZ
??1?$_CORBA_PseudoObj_Member@VDynAny@DynamicAny@@V?$_CORBA_PseudoObj_Var@VDynAny@DynamicAny@@@@@@QAE@XZ
??1?$_CORBA_PseudoObj_Member@VPolicy@CORBA@@V?$_CORBA_PseudoObj_Var@VPolicy@CORBA@@@@@@QAE@XZ
??1?$_CORBA_Sequence@E@@QAE@XZ
??1?$_CORBA_Sequence@J@@QAE@XZ
??1?$_CORBA_Sequence@UConstraintExp@CosNotifyFilter@@@@QAE@XZ
??1?$_CORBA_Sequence@UConstraintInfo@CosNotifyFilter@@@@QAE@XZ
??1?$_CORBA_Sequence@UEventType@CosNotification@@@@QAE@XZ
??1?$_CORBA_Sequence@UExceptionDescription@CORBA@@@@QAE@XZ
??1?$_CORBA_Sequence@UMappingConstraintInfo@CosNotifyFilter@@@@QAE@XZ
??1?$_CORBA_Sequence@UMappingConstraintPair@CosNotifyFilter@@@@QAE@XZ
??1?$_CORBA_Sequence@UNVP@CosLifeCycle@@@@QAE@XZ
??1?$_CORBA_Sequence@UNameComponent@CosNaming@@@@QAE@XZ
??1?$_CORBA_Sequence@UNamedPropertyRange@CosNotification@@@@QAE@XZ
??1?$_CORBA_Sequence@UParameterDescription@CORBA@@@@QAE@XZ
??1?$_CORBA_Sequence@UProperty@CosNotification@@@@QAE@XZ
??1?$_CORBA_Sequence@UPropertyError@CosNotification@@@@QAE@XZ
??1?$_CORBA_Sequence@UStructMember@CORBA@@@@QAE@XZ
??1?$_CORBA_Sequence@UStructuredEvent@CosNotification@@@@QAE@XZ
??1?$_CORBA_Sequence_ObjRef@VObject@CORBA@@VObject_Element@2@VObject_Helper@2@@@QAE@XZ
??1?$_CORBA_Unbounded_Sequence@J@@QAE@XZ
??1?$_CORBA_Unbounded_Sequence@UConstraintExp@CosNotifyFilter@@@@QAE@XZ
??1?$_CORBA_Unbounded_Sequence@UConstraintInfo@CosNotifyFilter@@@@QAE@XZ
??1?$_CORBA_Unbounded_Sequence@UEventType@CosNotification@@@@QAE@XZ
??1?$_CORBA_Unbounded_Sequence@UExceptionDescription@CORBA@@@@QAE@XZ
??1?$_CORBA_Unbounded_Sequence@UMappingConstraintInfo@CosNotifyFilter@@@@QAE@XZ
??1?$_CORBA_Unbounded_Sequence@UMappingConstraintPair@CosNotifyFilter@@@@QAE@XZ
??1?$_CORBA_Unbounded_Sequence@UNVP@CosLifeCycle@@@@QAE@XZ
??1?$_CORBA_Unbounded_Sequence@UNameComponent@CosNaming@@@@QAE@XZ
??1?$_CORBA_Unbounded_Sequence@UNamedPropertyRange@CosNotification@@@@QAE@XZ
??1?$_CORBA_Unbounded_Sequence@UParameterDescription@CORBA@@@@QAE@XZ
??1?$_CORBA_Unbounded_Sequence@UProperty@CosNotification@@@@QAE@XZ
??1?$_CORBA_Unbounded_Sequence@UPropertyError@CosNotification@@@@QAE@XZ
??1?$_CORBA_Unbounded_Sequence@UStructMember@CORBA@@@@QAE@XZ
??1?$_CORBA_Unbounded_Sequence@UStructuredEvent@CosNotification@@@@QAE@XZ
??1?$_CORBA_Unbounded_Sequence_ObjRef@VObject@CORBA@@VObject_Element@2@VObject_Helper@2@@@QAE@XZ
??1?$_CORBA_Unbounded_Sequence_w_FixSizeElement@J$03$03@@QAE@XZ
??1AdminIDSeq@CosNotifyChannelAdmin@@QAE@XZ
??1AdminIDSeq_var@CosNotifyChannelAdmin@@QAE@XZ
??1AdminLimit@CosNotifyChannelAdmin@@QAE@XZ
??1AdminLimitExceeded@CosNotifyChannelAdmin@@UAE@XZ
??1AdminNotFound@CosNotifyChannelAdmin@@UAE@XZ
??1AdminPropertiesAdmin@POA_CosNotification@@UAE@XZ
??1AlreadyConnected@CosEventChannelAdmin@@UAE@XZ
??1Any_var@CORBA@@QAE@XZ
??1AttributeDescription@CORBA@@QAE@XZ
??1Binding@CosNaming@@QAE@XZ
??1CallbackIDSeq@CosNotifyFilter@@QAE@XZ
??1CallbackIDSeq_var@CosNotifyFilter@@QAE@XZ
??1CallbackNotFound@CosNotifyFilter@@UAE@XZ
??1CannotMeetCriteria@CosLifeCycle@@UAE@XZ
??1ChannelIDSeq@CosNotifyChannelAdmin@@QAE@XZ
??1ChannelIDSeq_var@CosNotifyChannelAdmin@@QAE@XZ
??1ChannelNotFound@CosNotifyChannelAdmin@@UAE@XZ
??1ConnectionAlreadyActive@CosNotifyChannelAdmin@@UAE@XZ
??1ConnectionAlreadyInactive@CosNotifyChannelAdmin@@UAE@XZ
??1ConstraintExp@CosNotifyFilter@@QAE@XZ
??1ConstraintExpSeq@CosNotifyFilter@@QAE@XZ
??1ConstraintExpSeq_var@CosNotifyFilter@@QAE@XZ
??1ConstraintIDSeq@CosNotifyFilter@@QAE@XZ
??1ConstraintIDSeq_var@CosNotifyFilter@@QAE@XZ
??1ConstraintInfo@CosNotifyFilter@@QAE@XZ
??1ConstraintInfoSeq@CosNotifyFilter@@QAE@XZ
??1ConstraintInfoSeq_var@CosNotifyFilter@@QAE@XZ
??1ConstraintNotFound@CosNotifyFilter@@UAE@XZ
??1ConsumerAdmin@POA_CosEventChannelAdmin@@UAE@XZ
??1ConsumerAdmin@POA_CosNotifyChannelAdmin@@UAE@XZ
??1ContextIdSeq@CORBA@@QAE@XZ
??1Criteria@CosLifeCycle@@QAE@XZ
??1Criteria_var@CosLifeCycle@@QAE@XZ
??1Description@Container@CORBA@@QAE@XZ
??1Disconnected@CosEventComm@@UAE@XZ
??1DuplicateConstraintID@CosNotifyFilter@@UAE@XZ
??1EventBatch@CosNotification@@QAE@XZ
??1EventBatch_var@CosNotification@@QAE@XZ
??1EventChannel@POA_CosEventChannelAdmin@@UAE@XZ
??1EventChannel@POA_CosNotifyChannelAdmin@@UAE@XZ
??1EventChannelFactory@POA_CosNotifyChannelAdmin@@UAE@XZ
??1EventHeader@CosNotification@@QAE@XZ
??1EventType@CosNotification@@QAE@XZ
??1EventTypeSeq@CosNotification@@QAE@XZ
??1EventTypeSeq_var@CosNotification@@QAE@XZ
??1ExcDescriptionSeq@CORBA@@QAE@XZ
??1ExceptionDescription@CORBA@@QAE@XZ
??1Factories@CosLifeCycle@@QAE@XZ
??1Factories_var@CosLifeCycle@@QAE@XZ
??1FactoryFinder@POA_CosLifeCycle@@UAE@XZ
??1Filter@POA_CosNotifyFilter@@UAE@XZ
??1FilterAdmin@POA_CosNotifyFilter@@UAE@XZ
??1FilterFactory@POA_CosNotifyFilter@@UAE@XZ
??1FilterIDSeq@CosNotifyFilter@@QAE@XZ
??1FilterIDSeq_var@CosNotifyFilter@@QAE@XZ
??1FilterNotFound@CosNotifyFilter@@UAE@XZ
??1FixedEventHeader@CosNotification@@QAE@XZ
??1GenericFactory@POA_CosLifeCycle@@UAE@XZ
??1Initializer@CORBA@@QAE@XZ
??1InvalidConstraint@CosNotifyFilter@@UAE@XZ
??1InvalidCriteria@CosLifeCycle@@UAE@XZ
??1InvalidEventType@CosNotifyComm@@UAE@XZ
??1InvalidGrammar@CosNotifyFilter@@UAE@XZ
??1InvalidValue@CosNotifyFilter@@UAE@XZ
??1LifeCycleObject@POA_CosLifeCycle@@UAE@XZ
??1MappingConstraintInfo@CosNotifyFilter@@QAE@XZ
??1MappingConstraintInfoSeq@CosNotifyFilter@@QAE@XZ
??1MappingConstraintInfoSeq_var@CosNotifyFilter@@QAE@XZ
??1MappingConstraintPair@CosNotifyFilter@@QAE@XZ
??1MappingConstraintPairSeq@CosNotifyFilter@@QAE@XZ
??1MappingConstraintPairSeq_var@CosNotifyFilter@@QAE@XZ
??1MappingFilter@POA_CosNotifyFilter@@UAE@XZ
??1NVP@CosLifeCycle@@QAE@XZ
??1Name@CosNaming@@QAE@XZ
??1NameComponent@CosNaming@@QAE@XZ
??1NameDynAnyPair@DynamicAny@@QAE@XZ
??1NameValuePair@DynamicAny@@QAE@XZ
??1Name_var@CosNaming@@QAE@XZ
??1NamedPropertyRange@CosNotification@@QAE@XZ
??1NamedPropertyRangeSeq@CosNotification@@QAE@XZ
??1NamedPropertyRangeSeq_var@CosNotification@@QAE@XZ
??1NoFactory@CosLifeCycle@@UAE@XZ
??1NotConnected@CosNotifyChannelAdmin@@UAE@XZ
??1NotCopyable@CosLifeCycle@@UAE@XZ
??1NotMovable@CosLifeCycle@@UAE@XZ
??1NotRemovable@CosLifeCycle@@UAE@XZ
??1NotifyPublish@POA_CosNotifyComm@@UAE@XZ
??1NotifySubscribe@POA_CosNotifyComm@@UAE@XZ
??1Object_var@CORBA@@QAE@XZ
??1OperationDescription@CORBA@@QAE@XZ
??1ParDescriptionSeq@CORBA@@QAE@XZ
??1ParameterDescription@CORBA@@QAE@XZ
??1Property@CosNotification@@QAE@XZ
??1PropertyError@CosNotification@@QAE@XZ
??1PropertyErrorSeq@CosNotification@@QAE@XZ
??1PropertyRange@CosNotification@@QAE@XZ
??1PropertySeq@CosNotification@@QAE@XZ
??1PropertySeq_var@CosNotification@@QAE@XZ
??1ProxyConsumer@POA_CosNotifyChannelAdmin@@UAE@XZ
??1ProxyIDSeq@CosNotifyChannelAdmin@@QAE@XZ
??1ProxyIDSeq_var@CosNotifyChannelAdmin@@QAE@XZ
??1ProxyNotFound@CosNotifyChannelAdmin@@UAE@XZ
??1ProxyPullConsumer@POA_CosEventChannelAdmin@@UAE@XZ
??1ProxyPullConsumer@POA_CosNotifyChannelAdmin@@UAE@XZ
??1ProxyPullSupplier@POA_CosEventChannelAdmin@@UAE@XZ
??1ProxyPullSupplier@POA_CosNotifyChannelAdmin@@UAE@XZ
??1ProxyPushConsumer@POA_CosEventChannelAdmin@@UAE@XZ
??1ProxyPushConsumer@POA_CosNotifyChannelAdmin@@UAE@XZ
??1ProxyPushSupplier@POA_CosEventChannelAdmin@@UAE@XZ
??1ProxyPushSupplier@POA_CosNotifyChannelAdmin@@UAE@XZ
??1ProxySupplier@POA_CosNotifyChannelAdmin@@UAE@XZ
??1PullConsumer@POA_CosEventComm@@UAE@XZ
??1PullConsumer@POA_CosNotifyComm@@UAE@XZ
??1PullSupplier@POA_CosEventComm@@UAE@XZ
??1PullSupplier@POA_CosNotifyComm@@UAE@XZ
??1PushConsumer@POA_CosEventComm@@UAE@XZ
??1PushConsumer@POA_CosNotifyComm@@UAE@XZ
??1PushSupplier@POA_CosEventComm@@UAE@XZ
??1PushSupplier@POA_CosNotifyComm@@UAE@XZ
??1QoSAdmin@POA_CosNotification@@UAE@XZ
??1SequenceProxyPullConsumer@POA_CosNotifyChannelAdmin@@UAE@XZ
??1SequenceProxyPullSupplier@POA_CosNotifyChannelAdmin@@UAE@XZ
??1SequenceProxyPushConsumer@POA_CosNotifyChannelAdmin@@UAE@XZ
??1SequenceProxyPushSupplier@POA_CosNotifyChannelAdmin@@UAE@XZ
??1SequencePullConsumer@POA_CosNotifyComm@@UAE@XZ
??1SequencePullSupplier@POA_CosNotifyComm@@UAE@XZ
??1SequencePushConsumer@POA_CosNotifyComm@@UAE@XZ
??1SequencePushSupplier@POA_CosNotifyComm@@UAE@XZ
??1ServiceContext@IOP@@QAE@XZ
??1StructMember@CORBA@@QAE@XZ
??1StructMemberSeq@CORBA@@QAE@XZ
??1StructuredEvent@CosNotification@@QAE@XZ
??1StructuredProxyPullConsumer@POA_CosNotifyChannelAdmin@@UAE@XZ
??1StructuredProxyPullSupplier@POA_CosNotifyChannelAdmin@@UAE@XZ
??1StructuredProxyPushConsumer@POA_CosNotifyChannelAdmin@@UAE@XZ
??1StructuredProxyPushSupplier@POA_CosNotifyChannelAdmin@@UAE@XZ
??1StructuredPullConsumer@POA_CosNotifyComm@@UAE@XZ
??1StructuredPullSupplier@POA_CosNotifyComm@@UAE@XZ
??1StructuredPushConsumer@POA_CosNotifyComm@@UAE@XZ
??1StructuredPushSupplier@POA_CosNotifyComm@@UAE@XZ
??1SupplierAdmin@POA_CosEventChannelAdmin@@UAE@XZ
??1SupplierAdmin@POA_CosNotifyChannelAdmin@@UAE@XZ
??1TIO@POA_CosTime@@UAE@XZ
??1TaggedComponent@IOP@@QAE@XZ
??1TaggedProfile@IOP@@QAE@XZ
??1TimeService@POA_CosTime@@UAE@XZ
??1TimeUnavailable@CosTime@@UAE@XZ
??1TypeCode_var@CORBA@@QAE@XZ
??1TypeError@CosEventChannelAdmin@@UAE@XZ
??1UTO@POA_CosTime@@UAE@XZ
??1UnionMember@CORBA@@QAE@XZ
??1UnsupportedAdmin@CosNotification@@UAE@XZ
??1UnsupportedFilterableData@CosNotifyFilter@@UAE@XZ
??1UnsupportedQoS@CosNotification@@UAE@XZ
??1ValueMember@CORBA@@QAE@XZ
??1_0RL_cd_1fe8f330207afd15_00000000@@UAE@XZ
??1_0RL_cd_1fe8f330207afd15_02000000@@UAE@XZ
??1_0RL_cd_1fe8f330207afd15_03000000@@UAE@XZ
??1_0RL_cd_1fe8f330207afd15_11000000@@UAE@XZ
??1_0RL_cd_1fe8f330207afd15_20000000@@UAE@XZ
??1_0RL_cd_1fe8f330207afd15_22000000@@UAE@XZ
??1_0RL_cd_1fe8f330207afd15_23000000@@UAE@XZ
??1_0RL_cd_1fe8f330207afd15_31000000@@UAE@XZ
??1_0RL_cd_1fe8f330207afd15_40000000@@UAE@XZ
??1_0RL_cd_1fe8f330207afd15_42000000@@UAE@XZ
??1_0RL_cd_1fe8f330207afd15_43000000@@UAE@XZ
??1_0RL_cd_1fe8f330207afd15_51000000@@UAE@XZ
??1_0RL_cd_1fe8f330207afd15_60000000@@UAE@XZ
??1_0RL_cd_1fe8f330207afd15_63000000@@UAE@XZ
??1_0RL_cd_1fe8f330207afd15_71000000@@UAE@XZ
??1_0RL_cd_1fe8f330207afd15_80000000@@UAE@XZ
??1_0RL_cd_1fe8f330207afd15_82000000@@UAE@XZ
??1_0RL_cd_1fe8f330207afd15_83000000@@UAE@XZ
??1_0RL_cd_1fe8f330207afd15_a0000000@@UAE@XZ
??1_0RL_cd_1fe8f330207afd15_a1000000@@UAE@XZ
??1_0RL_cd_1fe8f330207afd15_a2000000@@UAE@XZ
??1_0RL_cd_1fe8f330207afd15_c1000000@@UAE@XZ
??1_0RL_cd_1fe8f330207afd15_c2000000@@UAE@XZ
??1_0RL_cd_1fe8f330207afd15_d0000000@@UAE@XZ
??1_0RL_cd_1fe8f330207afd15_e1000000@@UAE@XZ
??1_0RL_cd_1fe8f330207afd15_e2000000@@UAE@XZ
??1_0RL_cd_1fe8f330207afd15_f0000000@@UAE@XZ
??1_0RL_cd_25b2b9dd5b4ad98d_00000000@@UAE@XZ
??1_0RL_cd_25b2b9dd5b4ad98d_20000000@@UAE@XZ
??1_0RL_cd_25b2b9dd5b4ad98d_40000000@@UAE@XZ
??1_0RL_cd_25b2b9dd5b4ad98d_60000000@@UAE@XZ
??1_0RL_cd_25b2b9dd5b4ad98d_80000000@@UAE@XZ
??1_0RL_cd_25b2b9dd5b4ad98d_a0000000@@UAE@XZ
??1_0RL_cd_4b6b86183777b6c2_00000000@@UAE@XZ
??1_0RL_cd_4b6b86183777b6c2_21000000@@UAE@XZ
??1_0RL_cd_4b6b86183777b6c2_30000000@@UAE@XZ
??1_0RL_cd_4b6b86183777b6c2_41000000@@UAE@XZ
??1_0RL_cd_4b6b86183777b6c2_50000000@@UAE@XZ
??1_0RL_cd_4b6b86183777b6c2_80000000@@UAE@XZ
??1_0RL_cd_4b6b86183777b6c2_a0000000@@UAE@XZ
??1_0RL_cd_4b6b86183777b6c2_e0000000@@UAE@XZ
??1_0RL_cd_8b6214f5b3100e7e_00000000@@UAE@XZ
??1_0RL_cd_8b6214f5b3100e7e_20000000@@UAE@XZ
??1_0RL_cd_8b6214f5b3100e7e_40000000@@UAE@XZ
??1_0RL_cd_8b6214f5b3100e7e_70000000@@UAE@XZ
??1_0RL_cd_9043e11a9721dab3_00000000@@UAE@XZ
??1_0RL_cd_9043e11a9721dab3_06000000@@UAE@XZ
??1_0RL_cd_9043e11a9721dab3_12000000@@UAE@XZ
??1_0RL_cd_9043e11a9721dab3_13000000@@UAE@XZ
??1_0RL_cd_9043e11a9721dab3_20000000@@UAE@XZ
??1_0RL_cd_9043e11a9721dab3_25000000@@UAE@XZ
??1_0RL_cd_9043e11a9721dab3_26000000@@UAE@XZ
??1_0RL_cd_9043e11a9721dab3_31000000@@UAE@XZ
??1_0RL_cd_9043e11a9721dab3_32000000@@UAE@XZ
??1_0RL_cd_9043e11a9721dab3_34000000@@UAE@XZ
??1_0RL_cd_9043e11a9721dab3_40000000@@UAE@XZ
??1_0RL_cd_9043e11a9721dab3_45000000@@UAE@XZ
??1_0RL_cd_9043e11a9721dab3_46000000@@UAE@XZ
??1_0RL_cd_9043e11a9721dab3_51000000@@UAE@XZ
??1_0RL_cd_9043e11a9721dab3_52000000@@UAE@XZ
??1_0RL_cd_9043e11a9721dab3_53000000@@UAE@XZ
??1_0RL_cd_9043e11a9721dab3_60000000@@UAE@XZ
??1_0RL_cd_9043e11a9721dab3_64000000@@UAE@XZ
??1_0RL_cd_9043e11a9721dab3_66000000@@UAE@XZ
??1_0RL_cd_9043e11a9721dab3_71000000@@UAE@XZ
??1_0RL_cd_9043e11a9721dab3_84000000@@UAE@XZ
??1_0RL_cd_9043e11a9721dab3_85000000@@UAE@XZ
??1_0RL_cd_9043e11a9721dab3_90000000@@UAE@XZ
??1_0RL_cd_9043e11a9721dab3_91000000@@UAE@XZ
??1_0RL_cd_9043e11a9721dab3_92000000@@UAE@XZ
??1_0RL_cd_9043e11a9721dab3_93000000@@UAE@XZ
??1_0RL_cd_9043e11a9721dab3_96000000@@UAE@XZ
??1_0RL_cd_9043e11a9721dab3_b0000000@@UAE@XZ
??1_0RL_cd_9043e11a9721dab3_b1000000@@UAE@XZ
??1_0RL_cd_9043e11a9721dab3_b3000000@@UAE@XZ
??1_0RL_cd_9043e11a9721dab3_b4000000@@UAE@XZ
??1_0RL_cd_9043e11a9721dab3_b6000000@@UAE@XZ
??1_0RL_cd_9043e11a9721dab3_c5000000@@UAE@XZ
??1_0RL_cd_9043e11a9721dab3_d0000000@@UAE@XZ
??1_0RL_cd_9043e11a9721dab3_d1000000@@UAE@XZ
??1_0RL_cd_9043e11a9721dab3_d2000000@@UAE@XZ
??1_0RL_cd_9043e11a9721dab3_d3000000@@UAE@XZ
??1_0RL_cd_9043e11a9721dab3_d6000000@@UAE@XZ
??1_0RL_cd_9043e11a9721dab3_e5000000@@UAE@XZ
??1_0RL_cd_9043e11a9721dab3_f1000000@@UAE@XZ
??1_0RL_cd_99dff546ea0f9974_00000000@@UAE@XZ
??1_0RL_cd_99dff546ea0f9974_11000000@@UAE@XZ
??1_0RL_cd_99dff546ea0f9974_30000000@@UAE@XZ
??1_0RL_cd_99dff546ea0f9974_31000000@@UAE@XZ
??1_0RL_cd_99dff546ea0f9974_50000000@@UAE@XZ
??1_0RL_cd_99dff546ea0f9974_61000000@@UAE@XZ
??1_0RL_cd_99dff546ea0f9974_70000000@@UAE@XZ
??1_0RL_cd_99dff546ea0f9974_90000000@@UAE@XZ
??1_0RL_cd_99dff546ea0f9974_91000000@@UAE@XZ
??1_0RL_cd_99dff546ea0f9974_b0000000@@UAE@XZ
??1_0RL_cd_99dff546ea0f9974_b1000000@@UAE@XZ
??1_0RL_cd_99dff546ea0f9974_d0000000@@UAE@XZ
??1_0RL_cd_99dff546ea0f9974_d1000000@@UAE@XZ
??1_0RL_cd_99dff546ea0f9974_f0000000@@UAE@XZ
??1_0RL_cd_bd959cc57b2e138f_00000000@@UAE@XZ
??1_0RL_cd_bd959cc57b2e138f_20000000@@UAE@XZ
??1_0RL_cd_bd959cc57b2e138f_50000000@@UAE@XZ
??1_0RL_cd_bd959cc57b2e138f_70000000@@UAE@XZ
??1_0RL_cd_f894c8374a428e70_00000000@@UAE@XZ
??1_0RL_cd_f894c8374a428e70_01000000@@UAE@XZ
??1_0RL_cd_f894c8374a428e70_20000000@@UAE@XZ
??1_0RL_cd_f894c8374a428e70_21000000@@UAE@XZ
??1_0RL_cd_f894c8374a428e70_40000000@@UAE@XZ
??1_0RL_cd_f894c8374a428e70_41000000@@UAE@XZ
??1_0RL_cd_f894c8374a428e70_60000000@@UAE@XZ
??1_0RL_cd_f894c8374a428e70_80000000@@UAE@XZ
??1_0RL_cd_f894c8374a428e70_a0000000@@UAE@XZ
??1_0RL_cd_f894c8374a428e70_c0000000@@UAE@XZ
??1_0RL_cd_f894c8374a428e70_e0000000@@UAE@XZ
??1_CORBA_Sequence_Octet@@IAE@XZ
??1_CORBA_Sequence_String@@QAE@XZ
??1_CORBA_String_member@@QAE@XZ
??1_CORBA_String_var@@QAE@XZ
??1_CORBA_Unbounded_Sequence_Octet@@QAE@XZ
??1_CORBA_Unbounded_Sequence_String@@QAE@XZ
??1_impl_AdminPropertiesAdmin@CosNotification@@UAE@XZ
??1_impl_ConsumerAdmin@CosEventChannelAdmin@@UAE@XZ
??1_impl_ConsumerAdmin@CosNotifyChannelAdmin@@UAE@XZ
??1_impl_EventChannel@CosEventChannelAdmin@@UAE@XZ
??1_impl_EventChannel@CosNotifyChannelAdmin@@UAE@XZ
??1_impl_EventChannelFactory@CosNotifyChannelAdmin@@UAE@XZ
??1_impl_FactoryFinder@CosLifeCycle@@UAE@XZ
??1_impl_Filter@CosNotifyFilter@@UAE@XZ
??1_impl_FilterAdmin@CosNotifyFilter@@UAE@XZ
??1_impl_FilterFactory@CosNotifyFilter@@UAE@XZ
??1_impl_GenericFactory@CosLifeCycle@@UAE@XZ
??1_impl_LifeCycleObject@CosLifeCycle@@UAE@XZ
??1_impl_MappingFilter@CosNotifyFilter@@UAE@XZ
??1_impl_NotifyPublish@CosNotifyComm@@UAE@XZ
??1_impl_NotifySubscribe@CosNotifyComm@@UAE@XZ
??1_impl_ProxyConsumer@CosNotifyChannelAdmin@@UAE@XZ
??1_impl_ProxyPullConsumer@CosEventChannelAdmin@@UAE@XZ
??1_impl_ProxyPullConsumer@CosNotifyChannelAdmin@@UAE@XZ
??1_impl_ProxyPullSupplier@CosEventChannelAdmin@@UAE@XZ
??1_impl_ProxyPullSupplier@CosNotifyChannelAdmin@@UAE@XZ
??1_impl_ProxyPushConsumer@CosEventChannelAdmin@@UAE@XZ
??1_impl_ProxyPushConsumer@CosNotifyChannelAdmin@@UAE@XZ
??1_impl_ProxyPushSupplier@CosEventChannelAdmin@@UAE@XZ
??1_impl_ProxyPushSupplier@CosNotifyChannelAdmin@@UAE@XZ
??1_impl_ProxySupplier@CosNotifyChannelAdmin@@UAE@XZ
??1_impl_PullConsumer@CosEventComm@@UAE@XZ
??1_impl_PullConsumer@CosNotifyComm@@UAE@XZ
??1_impl_PullSupplier@CosEventComm@@UAE@XZ
??1_impl_PullSupplier@CosNotifyComm@@UAE@XZ
??1_impl_PushConsumer@CosEventComm@@UAE@XZ
??1_impl_PushConsumer@CosNotifyComm@@UAE@XZ
??1_impl_PushSupplier@CosEventComm@@UAE@XZ
??1_impl_PushSupplier@CosNotifyComm@@UAE@XZ
??1_impl_QoSAdmin@CosNotification@@UAE@XZ
??1_impl_SequenceProxyPullConsumer@CosNotifyChannelAdmin@@UAE@XZ
??1_impl_SequenceProxyPullSupplier@CosNotifyChannelAdmin@@UAE@XZ
??1_impl_SequenceProxyPushConsumer@CosNotifyChannelAdmin@@UAE@XZ
??1_impl_SequenceProxyPushSupplier@CosNotifyChannelAdmin@@UAE@XZ
??1_impl_SequencePullConsumer@CosNotifyComm@@UAE@XZ
??1_impl_SequencePullSupplier@CosNotifyComm@@UAE@XZ
??1_impl_SequencePushConsumer@CosNotifyComm@@UAE@XZ
??1_impl_SequencePushSupplier@CosNotifyComm@@UAE@XZ
??1_impl_StructuredProxyPullConsumer@CosNotifyChannelAdmin@@UAE@XZ
??1_impl_StructuredProxyPullSupplier@CosNotifyChannelAdmin@@UAE@XZ
??1_impl_StructuredProxyPushConsumer@CosNotifyChannelAdmin@@UAE@XZ
??1_impl_StructuredProxyPushSupplier@CosNotifyChannelAdmin@@UAE@XZ
??1_impl_StructuredPullConsumer@CosNotifyComm@@UAE@XZ
??1_impl_StructuredPullSupplier@CosNotifyComm@@UAE@XZ
??1_impl_StructuredPushConsumer@CosNotifyComm@@UAE@XZ
??1_impl_StructuredPushSupplier@CosNotifyComm@@UAE@XZ
??1_impl_SupplierAdmin@CosEventChannelAdmin@@UAE@XZ
??1_impl_SupplierAdmin@CosNotifyChannelAdmin@@UAE@XZ
??1_impl_TIO@CosTime@@UAE@XZ
??1_impl_TimeService@CosTime@@UAE@XZ
??1_impl_UTO@CosTime@@UAE@XZ
??1_objref_AdminPropertiesAdmin@CosNotification@@MAE@XZ
??1_objref_ConsumerAdmin@CosEventChannelAdmin@@MAE@XZ
??1_objref_ConsumerAdmin@CosNotifyChannelAdmin@@MAE@XZ
??1_objref_EventChannel@CosEventChannelAdmin@@MAE@XZ
??1_objref_EventChannel@CosNotifyChannelAdmin@@MAE@XZ
??1_objref_EventChannelFactory@CosNotifyChannelAdmin@@MAE@XZ
??1_objref_FactoryFinder@CosLifeCycle@@MAE@XZ
??1_objref_Filter@CosNotifyFilter@@MAE@XZ
??1_objref_FilterAdmin@CosNotifyFilter@@MAE@XZ
??1_objref_FilterFactory@CosNotifyFilter@@MAE@XZ
??1_objref_GenericFactory@CosLifeCycle@@MAE@XZ
??1_objref_LifeCycleObject@CosLifeCycle@@MAE@XZ
??1_objref_MappingFilter@CosNotifyFilter@@MAE@XZ
??1_objref_NotifyPublish@CosNotifyComm@@MAE@XZ
??1_objref_NotifySubscribe@CosNotifyComm@@MAE@XZ
??1_objref_ProxyConsumer@CosNotifyChannelAdmin@@MAE@XZ
??1_objref_ProxyPullConsumer@CosEventChannelAdmin@@MAE@XZ
??1_objref_ProxyPullConsumer@CosNotifyChannelAdmin@@MAE@XZ
??1_objref_ProxyPullSupplier@CosEventChannelAdmin@@MAE@XZ
??1_objref_ProxyPullSupplier@CosNotifyChannelAdmin@@MAE@XZ
??1_objref_ProxyPushConsumer@CosEventChannelAdmin@@MAE@XZ
??1_objref_ProxyPushConsumer@CosNotifyChannelAdmin@@MAE@XZ
??1_objref_ProxyPushSupplier@CosEventChannelAdmin@@MAE@XZ
??1_objref_ProxyPushSupplier@CosNotifyChannelAdmin@@MAE@XZ
??1_objref_ProxySupplier@CosNotifyChannelAdmin@@MAE@XZ
??1_objref_PullConsumer@CosEventComm@@MAE@XZ
??1_objref_PullConsumer@CosNotifyComm@@MAE@XZ
??1_objref_PullSupplier@CosEventComm@@MAE@XZ
??1_objref_PullSupplier@CosNotifyComm@@MAE@XZ
??1_objref_PushConsumer@CosEventComm@@MAE@XZ
??1_objref_PushConsumer@CosNotifyComm@@MAE@XZ
??1_objref_PushSupplier@CosEventComm@@MAE@XZ
??1_objref_PushSupplier@CosNotifyComm@@MAE@XZ
??1_objref_QoSAdmin@CosNotification@@MAE@XZ
??1_objref_SequenceProxyPullConsumer@CosNotifyChannelAdmin@@MAE@XZ
??1_objref_SequenceProxyPullSupplier@CosNotifyChannelAdmin@@MAE@XZ
??1_objref_SequenceProxyPushConsumer@CosNotifyChannelAdmin@@MAE@XZ
??1_objref_SequenceProxyPushSupplier@CosNotifyChannelAdmin@@MAE@XZ
??1_objref_SequencePullConsumer@CosNotifyComm@@MAE@XZ
??1_objref_SequencePullSupplier@CosNotifyComm@@MAE@XZ
??1_objref_SequencePushConsumer@CosNotifyComm@@MAE@XZ
??1_objref_SequencePushSupplier@CosNotifyComm@@MAE@XZ
??1_objref_StructuredProxyPullConsumer@CosNotifyChannelAdmin@@MAE@XZ
??1_objref_StructuredProxyPullSupplier@CosNotifyChannelAdmin@@MAE@XZ
??1_objref_StructuredProxyPushConsumer@CosNotifyChannelAdmin@@MAE@XZ
??1_objref_StructuredProxyPushSupplier@CosNotifyChannelAdmin@@MAE@XZ
??1_objref_StructuredPullConsumer@CosNotifyComm@@MAE@XZ
??1_objref_StructuredPullSupplier@CosNotifyComm@@MAE@XZ
??1_objref_StructuredPushConsumer@CosNotifyComm@@MAE@XZ
??1_objref_StructuredPushSupplier@CosNotifyComm@@MAE@XZ
??1_objref_SupplierAdmin@CosEventChannelAdmin@@MAE@XZ
??1_objref_SupplierAdmin@CosNotifyChannelAdmin@@MAE@XZ
??1_objref_TIO@CosTime@@MAE@XZ
??1_objref_TimeService@CosTime@@MAE@XZ
??1_objref_UTO@CosTime@@MAE@XZ
??1_pof_AdminPropertiesAdmin@CosNotification@@UAE@XZ
??1_pof_ConsumerAdmin@CosEventChannelAdmin@@UAE@XZ
??1_pof_ConsumerAdmin@CosNotifyChannelAdmin@@UAE@XZ
??1_pof_EventChannel@CosEventChannelAdmin@@UAE@XZ
??1_pof_EventChannel@CosNotifyChannelAdmin@@UAE@XZ
??1_pof_EventChannelFactory@CosNotifyChannelAdmin@@UAE@XZ
??1_pof_FactoryFinder@CosLifeCycle@@UAE@XZ
??1_pof_Filter@CosNotifyFilter@@UAE@XZ
??1_pof_FilterAdmin@CosNotifyFilter@@UAE@XZ
??1_pof_FilterFactory@CosNotifyFilter@@UAE@XZ
??1_pof_GenericFactory@CosLifeCycle@@UAE@XZ
??1_pof_LifeCycleObject@CosLifeCycle@@UAE@XZ
??1_pof_MappingFilter@CosNotifyFilter@@UAE@XZ
??1_pof_NotifyPublish@CosNotifyComm@@UAE@XZ
??1_pof_NotifySubscribe@CosNotifyComm@@UAE@XZ
??1_pof_ProxyConsumer@CosNotifyChannelAdmin@@UAE@XZ
??1_pof_ProxyPullConsumer@CosEventChannelAdmin@@UAE@XZ
??1_pof_ProxyPullConsumer@CosNotifyChannelAdmin@@UAE@XZ
??1_pof_ProxyPullSupplier@CosEventChannelAdmin@@UAE@XZ
??1_pof_ProxyPullSupplier@CosNotifyChannelAdmin@@UAE@XZ
??1_pof_ProxyPushConsumer@CosEventChannelAdmin@@UAE@XZ
??1_pof_ProxyPushConsumer@CosNotifyChannelAdmin@@UAE@XZ
??1_pof_ProxyPushSupplier@CosEventChannelAdmin@@UAE@XZ
??1_pof_ProxyPushSupplier@CosNotifyChannelAdmin@@UAE@XZ
??1_pof_ProxySupplier@CosNotifyChannelAdmin@@UAE@XZ
??1_pof_PullConsumer@CosEventComm@@UAE@XZ
??1_pof_PullConsumer@CosNotifyComm@@UAE@XZ
??1_pof_PullSupplier@CosEventComm@@UAE@XZ
??1_pof_PullSupplier@CosNotifyComm@@UAE@XZ
??1_pof_PushConsumer@CosEventComm@@UAE@XZ
??1_pof_PushConsumer@CosNotifyComm@@UAE@XZ
??1_pof_PushSupplier@CosEventComm@@UAE@XZ
??1_pof_PushSupplier@CosNotifyComm@@UAE@XZ
??1_pof_QoSAdmin@CosNotification@@UAE@XZ
??1_pof_SequenceProxyPullConsumer@CosNotifyChannelAdmin@@UAE@XZ
??1_pof_SequenceProxyPullSupplier@CosNotifyChannelAdmin@@UAE@XZ
??1_pof_SequenceProxyPushConsumer@CosNotifyChannelAdmin@@UAE@XZ
??1_pof_SequenceProxyPushSupplier@CosNotifyChannelAdmin@@UAE@XZ
??1_pof_SequencePullConsumer@CosNotifyComm@@UAE@XZ
??1_pof_SequencePullSupplier@CosNotifyComm@@UAE@XZ
??1_pof_SequencePushConsumer@CosNotifyComm@@UAE@XZ
??1_pof_SequencePushSupplier@CosNotifyComm@@UAE@XZ
??1_pof_StructuredProxyPullConsumer@CosNotifyChannelAdmin@@UAE@XZ
??1_pof_StructuredProxyPullSupplier@CosNotifyChannelAdmin@@UAE@XZ
??1_pof_StructuredProxyPushConsumer@CosNotifyChannelAdmin@@UAE@XZ
??1_pof_StructuredProxyPushSupplier@CosNotifyChannelAdmin@@UAE@XZ
??1_pof_StructuredPullConsumer@CosNotifyComm@@UAE@XZ
??1_pof_StructuredPullSupplier@CosNotifyComm@@UAE@XZ
??1_pof_StructuredPushConsumer@CosNotifyComm@@UAE@XZ
??1_pof_StructuredPushSupplier@CosNotifyComm@@UAE@XZ
??1_pof_SupplierAdmin@CosEventChannelAdmin@@UAE@XZ
??1_pof_SupplierAdmin@CosNotifyChannelAdmin@@UAE@XZ
??1_pof_TIO@CosTime@@UAE@XZ
??1_pof_TimeService@CosTime@@UAE@XZ
??1_pof_UTO@CosTime@@UAE@XZ
??1omniCallDescriptor@@UAE@XZ
??4?$_CORBA_ConstrType_Variable_Var@UStructuredEvent@CosNotification@@@@QAEAAV0@PAUStructuredEvent@CosNotification@@@Z
??4?$_CORBA_ObjRef_OUT_arg@V_objref_TIO@CosTime@@VTIO_Helper@2@@@QAEAAV0@PAV_objref_TIO@CosTime@@@Z
??4?$_CORBA_ObjRef_Var@V_objref_ConsumerAdmin@CosEventChannelAdmin@@VConsumerAdmin_Helper@2@@@QAEAAV0@PAV_objref_ConsumerAdmin@CosEventChannelAdmin@@@Z
??4?$_CORBA_ObjRef_Var@V_objref_ConsumerAdmin@CosNotifyChannelAdmin@@VConsumerAdmin_Helper@2@@@QAEAAV0@PAV_objref_ConsumerAdmin@CosNotifyChannelAdmin@@@Z
??4?$_CORBA_ObjRef_Var@V_objref_EventChannel@CosNotifyChannelAdmin@@VEventChannel_Helper@2@@@QAEAAV0@PAV_objref_EventChannel@CosNotifyChannelAdmin@@@Z
??4?$_CORBA_ObjRef_Var@V_objref_EventChannelFactory@CosNotifyChannelAdmin@@VEventChannelFactory_Helper@2@@@QAEAAV0@PAV_objref_EventChannelFactory@CosNotifyChannelAdmin@@@Z
??4?$_CORBA_ObjRef_Var@V_objref_FactoryFinder@CosLifeCycle@@VFactoryFinder_Helper@2@@@QAEAAV0@PAV_objref_FactoryFinder@CosLifeCycle@@@Z
??4?$_CORBA_ObjRef_Var@V_objref_Filter@CosNotifyFilter@@VFilter_Helper@2@@@QAEAAV0@PAV_objref_Filter@CosNotifyFilter@@@Z
??4?$_CORBA_ObjRef_Var@V_objref_FilterFactory@CosNotifyFilter@@VFilterFactory_Helper@2@@@QAEAAV0@PAV_objref_FilterFactory@CosNotifyFilter@@@Z
??4?$_CORBA_ObjRef_Var@V_objref_LifeCycleObject@CosLifeCycle@@VLifeCycleObject_Helper@2@@@QAEAAV0@PAV_objref_LifeCycleObject@CosLifeCycle@@@Z
??4?$_CORBA_ObjRef_Var@V_objref_MappingFilter@CosNotifyFilter@@VMappingFilter_Helper@2@@@QAEAAV0@PAV_objref_MappingFilter@CosNotifyFilter@@@Z
??4?$_CORBA_ObjRef_Var@V_objref_NotifySubscribe@CosNotifyComm@@VNotifySubscribe_Helper@2@@@QAEAAV0@PAV_objref_NotifySubscribe@CosNotifyComm@@@Z
??4?$_CORBA_ObjRef_Var@V_objref_ProxyConsumer@CosNotifyChannelAdmin@@VProxyConsumer_Helper@2@@@QAEAAV0@PAV_objref_ProxyConsumer@CosNotifyChannelAdmin@@@Z
??4?$_CORBA_ObjRef_Var@V_objref_ProxyPullConsumer@CosEventChannelAdmin@@VProxyPullConsumer_Helper@2@@@QAEAAV0@PAV_objref_ProxyPullConsumer@CosEventChannelAdmin@@@Z
??4?$_CORBA_ObjRef_Var@V_objref_ProxyPullSupplier@CosEventChannelAdmin@@VProxyPullSupplier_Helper@2@@@QAEAAV0@PAV_objref_ProxyPullSupplier@CosEventChannelAdmin@@@Z
??4?$_CORBA_ObjRef_Var@V_objref_ProxyPushConsumer@CosEventChannelAdmin@@VProxyPushConsumer_Helper@2@@@QAEAAV0@PAV_objref_ProxyPushConsumer@CosEventChannelAdmin@@@Z
??4?$_CORBA_ObjRef_Var@V_objref_ProxyPushSupplier@CosEventChannelAdmin@@VProxyPushSupplier_Helper@2@@@QAEAAV0@PAV_objref_ProxyPushSupplier@CosEventChannelAdmin@@@Z
??4?$_CORBA_ObjRef_Var@V_objref_ProxySupplier@CosNotifyChannelAdmin@@VProxySupplier_Helper@2@@@QAEAAV0@PAV_objref_ProxySupplier@CosNotifyChannelAdmin@@@Z
??4?$_CORBA_ObjRef_Var@V_objref_PullConsumer@CosEventComm@@VPullConsumer_Helper@2@@@QAEAAV0@PAV_objref_PullConsumer@CosEventComm@@@Z
??4?$_CORBA_ObjRef_Var@V_objref_PullSupplier@CosEventComm@@VPullSupplier_Helper@2@@@QAEAAV0@PAV_objref_PullSupplier@CosEventComm@@@Z
??4?$_CORBA_ObjRef_Var@V_objref_PushConsumer@CosEventComm@@VPushConsumer_Helper@2@@@QAEAAV0@PAV_objref_PushConsumer@CosEventComm@@@Z
??4?$_CORBA_ObjRef_Var@V_objref_PushSupplier@CosEventComm@@VPushSupplier_Helper@2@@@QAEAAV0@PAV_objref_PushSupplier@CosEventComm@@@Z
??4?$_CORBA_ObjRef_Var@V_objref_SequencePullConsumer@CosNotifyComm@@VSequencePullConsumer_Helper@2@@@QAEAAV0@PAV_objref_SequencePullConsumer@CosNotifyComm@@@Z
??4?$_CORBA_ObjRef_Var@V_objref_SequencePullSupplier@CosNotifyComm@@VSequencePullSupplier_Helper@2@@@QAEAAV0@PAV_objref_SequencePullSupplier@CosNotifyComm@@@Z
??4?$_CORBA_ObjRef_Var@V_objref_SequencePushConsumer@CosNotifyComm@@VSequencePushConsumer_Helper@2@@@QAEAAV0@PAV_objref_SequencePushConsumer@CosNotifyComm@@@Z
??4?$_CORBA_ObjRef_Var@V_objref_SequencePushSupplier@CosNotifyComm@@VSequencePushSupplier_Helper@2@@@QAEAAV0@PAV_objref_SequencePushSupplier@CosNotifyComm@@@Z
??4?$_CORBA_ObjRef_Var@V_objref_StructuredPullConsumer@CosNotifyComm@@VStructuredPullConsumer_Helper@2@@@QAEAAV0@PAV_objref_StructuredPullConsumer@CosNotifyComm@@@Z
??4?$_CORBA_ObjRef_Var@V_objref_StructuredPullSupplier@CosNotifyComm@@VStructuredPullSupplier_Helper@2@@@QAEAAV0@PAV_objref_StructuredPullSupplier@CosNotifyComm@@@Z
??4?$_CORBA_ObjRef_Var@V_objref_StructuredPushConsumer@CosNotifyComm@@VStructuredPushConsumer_Helper@2@@@QAEAAV0@PAV_objref_StructuredPushConsumer@CosNotifyComm@@@Z
??4?$_CORBA_ObjRef_Var@V_objref_StructuredPushSupplier@CosNotifyComm@@VStructuredPushSupplier_Helper@2@@@QAEAAV0@PAV_objref_StructuredPushSupplier@CosNotifyComm@@@Z
??4?$_CORBA_ObjRef_Var@V_objref_SupplierAdmin@CosEventChannelAdmin@@VSupplierAdmin_Helper@2@@@QAEAAV0@PAV_objref_SupplierAdmin@CosEventChannelAdmin@@@Z
??4?$_CORBA_ObjRef_Var@V_objref_SupplierAdmin@CosNotifyChannelAdmin@@VSupplierAdmin_Helper@2@@@QAEAAV0@PAV_objref_SupplierAdmin@CosNotifyChannelAdmin@@@Z
??4?$_CORBA_ObjRef_Var@V_objref_TIO@CosTime@@VTIO_Helper@2@@@QAEAAV0@PAV_objref_TIO@CosTime@@@Z
??4?$_CORBA_ObjRef_Var@V_objref_UTO@CosTime@@VUTO_Helper@2@@@QAEAAV0@PAV_objref_UTO@CosTime@@@Z
??4?$_CORBA_Sequence@UEventType@CosNotification@@@@IAEAAV0@ABV0@@Z
??4?$_CORBA_Sequence@UNVP@CosLifeCycle@@@@IAEAAV0@ABV0@@Z
??4?$_CORBA_Sequence@UNameComponent@CosNaming@@@@IAEAAV0@ABV0@@Z
??4?$_CORBA_Sequence@UProperty@CosNotification@@@@IAEAAV0@ABV0@@Z
??4?$_CORBA_Sequence@UPropertyError@CosNotification@@@@IAEAAV0@ABV0@@Z
??4?$_CORBA_Unbounded_Sequence@UEventType@CosNotification@@@@QAEAAV0@ABV0@@Z
??4?$_CORBA_Unbounded_Sequence@UNVP@CosLifeCycle@@@@QAEAAV0@ABV0@@Z
??4?$_CORBA_Unbounded_Sequence@UNameComponent@CosNaming@@@@QAEAAV0@ABV0@@Z
??4?$_CORBA_Unbounded_Sequence@UProperty@CosNotification@@@@QAEAAV0@ABV0@@Z
??4?$_CORBA_Unbounded_Sequence@UPropertyError@CosNotification@@@@QAEAAV0@ABV0@@Z
??4AdminIDSeq_var@CosNotifyChannelAdmin@@QAEAAV01@PAVAdminIDSeq@1@@Z
??4AdminLimit@CosNotifyChannelAdmin@@QAEAAU01@ABU01@@Z
??4AdminLimitExceeded@CosNotifyChannelAdmin@@QAEAAV01@ABV01@@Z
??4AdminNotFound@CosNotifyChannelAdmin@@QAEAAV01@ABV01@@Z
??4AlreadyConnected@CosEventChannelAdmin@@QAEAAV01@ABV01@@Z
??4Any_OUT_arg@CORBA@@QAEAAV01@PAVAny@1@@Z
??4Any_var@CORBA@@QAEAAV01@PAVAny@1@@Z
??4CallbackIDSeq_var@CosNotifyFilter@@QAEAAV01@PAVCallbackIDSeq@1@@Z
??4CallbackNotFound@CosNotifyFilter@@QAEAAV01@ABV01@@Z
??4CannotMeetCriteria@CosLifeCycle@@QAEAAV01@ABV01@@Z
??4ChannelIDSeq_var@CosNotifyChannelAdmin@@QAEAAV01@PAVChannelIDSeq@1@@Z
??4ChannelNotFound@CosNotifyChannelAdmin@@QAEAAV01@ABV01@@Z
??4ConnectionAlreadyActive@CosNotifyChannelAdmin@@QAEAAV01@ABV01@@Z
??4ConnectionAlreadyInactive@CosNotifyChannelAdmin@@QAEAAV01@ABV01@@Z
??4ConstraintExp@CosNotifyFilter@@QAEAAU01@ABU01@@Z
??4ConstraintExpSeq_var@CosNotifyFilter@@QAEAAV01@PAVConstraintExpSeq@1@@Z
??4ConstraintIDSeq_var@CosNotifyFilter@@QAEAAV01@PAVConstraintIDSeq@1@@Z
??4ConstraintInfo@CosNotifyFilter@@QAEAAU01@ABU01@@Z
??4ConstraintInfoSeq_var@CosNotifyFilter@@QAEAAV01@PAVConstraintInfoSeq@1@@Z
??4ConstraintNotFound@CosNotifyFilter@@QAEAAV01@ABV01@@Z
??4Criteria@CosLifeCycle@@QAEAAV01@ABV01@@Z
??4Criteria_var@CosLifeCycle@@QAEAAV01@PAVCriteria@1@@Z
??4Disconnected@CosEventComm@@QAEAAV01@ABV01@@Z
??4DuplicateConstraintID@CosNotifyFilter@@QAEAAV01@ABV01@@Z
??4EventBatch_var@CosNotification@@QAEAAV01@PAVEventBatch@1@@Z
??4EventHeader@CosNotification@@QAEAAU01@ABU01@@Z
??4EventType@CosNotification@@QAEAAU01@ABU01@@Z
??4EventTypeSeq@CosNotification@@QAEAAV01@ABV01@@Z
??4EventTypeSeq_var@CosNotification@@QAEAAV01@PAVEventTypeSeq@1@@Z
??4Exception@CORBA@@IAEAAV01@ABV01@@Z
??4Factories_var@CosLifeCycle@@QAEAAV01@PAVFactories@1@@Z
??4FilterIDSeq_var@CosNotifyFilter@@QAEAAV01@PAVFilterIDSeq@1@@Z
??4FilterNotFound@CosNotifyFilter@@QAEAAV01@ABV01@@Z
??4FixedEventHeader@CosNotification@@QAEAAU01@ABU01@@Z
??4InvalidConstraint@CosNotifyFilter@@QAEAAV01@ABV01@@Z
??4InvalidCriteria@CosLifeCycle@@QAEAAV01@ABV01@@Z
??4InvalidEventType@CosNotifyComm@@QAEAAV01@ABV01@@Z
??4InvalidGrammar@CosNotifyFilter@@QAEAAV01@ABV01@@Z
??4InvalidValue@CosNotifyFilter@@QAEAAV01@ABV01@@Z
??4MappingConstraintInfo@CosNotifyFilter@@QAEAAU01@ABU01@@Z
??4MappingConstraintInfoSeq_var@CosNotifyFilter@@QAEAAV01@PAVMappingConstraintInfoSeq@1@@Z
??4MappingConstraintPair@CosNotifyFilter@@QAEAAU01@ABU01@@Z
??4MappingConstraintPairSeq_var@CosNotifyFilter@@QAEAAV01@PAVMappingConstraintPairSeq@1@@Z
??4NVP@CosLifeCycle@@QAEAAU01@ABU01@@Z
??4Name@CosNaming@@QAEAAV01@ABV01@@Z
??4NameComponent@CosNaming@@QAEAAU01@ABU01@@Z
??4Name_var@CosNaming@@QAEAAV01@PAVName@1@@Z
??4NamedPropertyRange@CosNotification@@QAEAAU01@ABU01@@Z
??4NamedPropertyRangeSeq_out@CosNotification@@QAEAAV01@PAVNamedPropertyRangeSeq@1@@Z
??4NamedPropertyRangeSeq_var@CosNotification@@QAEAAV01@PAVNamedPropertyRangeSeq@1@@Z
??4NoFactory@CosLifeCycle@@QAEAAV01@ABV01@@Z
??4NotConnected@CosNotifyChannelAdmin@@QAEAAV01@ABV01@@Z
??4NotCopyable@CosLifeCycle@@QAEAAV01@ABV01@@Z
??4NotMovable@CosLifeCycle@@QAEAAV01@ABV01@@Z
??4NotRemovable@CosLifeCycle@@QAEAAV01@ABV01@@Z
??4Object_var@CORBA@@QAEAAV01@PAVObject@1@@Z
??4Property@CosNotification@@QAEAAU01@ABU01@@Z
??4PropertyError@CosNotification@@QAEAAU01@ABU01@@Z
??4PropertyErrorSeq@CosNotification@@QAEAAV01@ABV01@@Z
??4PropertyRange@CosNotification@@QAEAAU01@ABU01@@Z
??4PropertySeq@CosNotification@@QAEAAV01@ABV01@@Z
??4PropertySeq_var@CosNotification@@QAEAAV01@PAVPropertySeq@1@@Z
??4ProxyIDSeq_var@CosNotifyChannelAdmin@@QAEAAV01@PAVProxyIDSeq@1@@Z
??4ProxyNotFound@CosNotifyChannelAdmin@@QAEAAV01@ABV01@@Z
??4StructuredEvent@CosNotification@@QAEAAU01@ABU01@@Z
??4TimeUnavailable@CosTime@@QAEAAV01@ABV01@@Z
??4TypeCode_var@CORBA@@QAEAAV01@PAVTypeCode@1@@Z
??4TypeError@CosEventChannelAdmin@@QAEAAV01@ABV01@@Z
??4UnsupportedAdmin@CosNotification@@QAEAAV01@ABV01@@Z
??4UnsupportedFilterableData@CosNotifyFilter@@QAEAAV01@ABV01@@Z
??4UnsupportedQoS@CosNotification@@QAEAAV01@ABV01@@Z
??4UserException@CORBA@@QAEAAV01@ABV01@@Z
??4_CORBA_String_member@@QAEAAV0@ABV0@@Z
??4_CORBA_String_member@@QAEAAV0@PAD@Z
??4_CORBA_String_member@@QAEAAV0@PBD@Z
??4_CORBA_String_var@@QAEAAV0@PAD@Z
??B?$_CORBA_ConstrType_Variable_Var@UStructuredEvent@CosNotification@@@@QAEAAUStructuredEvent@CosNotification@@XZ
??B?$_CORBA_ObjRef_Var@V_objref_ConsumerAdmin@CosEventChannelAdmin@@VConsumerAdmin_Helper@2@@@QBEPAV_objref_ConsumerAdmin@CosEventChannelAdmin@@XZ
??B?$_CORBA_ObjRef_Var@V_objref_ConsumerAdmin@CosNotifyChannelAdmin@@VConsumerAdmin_Helper@2@@@QBEPAV_objref_ConsumerAdmin@CosNotifyChannelAdmin@@XZ
??B?$_CORBA_ObjRef_Var@V_objref_EventChannel@CosNotifyChannelAdmin@@VEventChannel_Helper@2@@@QBEPAV_objref_EventChannel@CosNotifyChannelAdmin@@XZ
??B?$_CORBA_ObjRef_Var@V_objref_EventChannelFactory@CosNotifyChannelAdmin@@VEventChannelFactory_Helper@2@@@QBEPAV_objref_EventChannelFactory@CosNotifyChannelAdmin@@XZ
??B?$_CORBA_ObjRef_Var@V_objref_Filter@CosNotifyFilter@@VFilter_Helper@2@@@QBEPAV_objref_Filter@CosNotifyFilter@@XZ
??B?$_CORBA_ObjRef_Var@V_objref_FilterFactory@CosNotifyFilter@@VFilterFactory_Helper@2@@@QBEPAV_objref_FilterFactory@CosNotifyFilter@@XZ
??B?$_CORBA_ObjRef_Var@V_objref_LifeCycleObject@CosLifeCycle@@VLifeCycleObject_Helper@2@@@QBEPAV_objref_LifeCycleObject@CosLifeCycle@@XZ
??B?$_CORBA_ObjRef_Var@V_objref_MappingFilter@CosNotifyFilter@@VMappingFilter_Helper@2@@@QBEPAV_objref_MappingFilter@CosNotifyFilter@@XZ
??B?$_CORBA_ObjRef_Var@V_objref_ProxyConsumer@CosNotifyChannelAdmin@@VProxyConsumer_Helper@2@@@QBEPAV_objref_ProxyConsumer@CosNotifyChannelAdmin@@XZ
??B?$_CORBA_ObjRef_Var@V_objref_ProxyPullConsumer@CosEventChannelAdmin@@VProxyPullConsumer_Helper@2@@@QBEPAV_objref_ProxyPullConsumer@CosEventChannelAdmin@@XZ
??B?$_CORBA_ObjRef_Var@V_objref_ProxyPullSupplier@CosEventChannelAdmin@@VProxyPullSupplier_Helper@2@@@QBEPAV_objref_ProxyPullSupplier@CosEventChannelAdmin@@XZ
??B?$_CORBA_ObjRef_Var@V_objref_ProxyPushConsumer@CosEventChannelAdmin@@VProxyPushConsumer_Helper@2@@@QBEPAV_objref_ProxyPushConsumer@CosEventChannelAdmin@@XZ
??B?$_CORBA_ObjRef_Var@V_objref_ProxyPushSupplier@CosEventChannelAdmin@@VProxyPushSupplier_Helper@2@@@QBEPAV_objref_ProxyPushSupplier@CosEventChannelAdmin@@XZ
??B?$_CORBA_ObjRef_Var@V_objref_ProxySupplier@CosNotifyChannelAdmin@@VProxySupplier_Helper@2@@@QBEPAV_objref_ProxySupplier@CosNotifyChannelAdmin@@XZ
??B?$_CORBA_ObjRef_Var@V_objref_SupplierAdmin@CosEventChannelAdmin@@VSupplierAdmin_Helper@2@@@QBEPAV_objref_SupplierAdmin@CosEventChannelAdmin@@XZ
??B?$_CORBA_ObjRef_Var@V_objref_SupplierAdmin@CosNotifyChannelAdmin@@VSupplierAdmin_Helper@2@@@QBEPAV_objref_SupplierAdmin@CosNotifyChannelAdmin@@XZ
??B?$_CORBA_ObjRef_Var@V_objref_TIO@CosTime@@VTIO_Helper@2@@@QBEPAV_objref_TIO@CosTime@@XZ
??B?$_CORBA_ObjRef_Var@V_objref_UTO@CosTime@@VUTO_Helper@2@@@QBEPAV_objref_UTO@CosTime@@XZ
??BAdminIDSeq_var@CosNotifyChannelAdmin@@QAEAAVAdminIDSeq@1@XZ
??BAny_var@CORBA@@QAEAAVAny@1@XZ
??BCallbackIDSeq_var@CosNotifyFilter@@QAEAAVCallbackIDSeq@1@XZ
??BChannelIDSeq_var@CosNotifyChannelAdmin@@QAEAAVChannelIDSeq@1@XZ
??BConstraintExpSeq_var@CosNotifyFilter@@QAEAAVConstraintExpSeq@1@XZ
??BConstraintIDSeq_var@CosNotifyFilter@@QAEAAVConstraintIDSeq@1@XZ
??BConstraintInfoSeq_var@CosNotifyFilter@@QAEAAVConstraintInfoSeq@1@XZ
??BCriteria_var@CosLifeCycle@@QAEAAVCriteria@1@XZ
??BEventBatch_var@CosNotification@@QAEAAVEventBatch@1@XZ
??BEventTypeSeq_var@CosNotification@@QAEAAVEventTypeSeq@1@XZ
??BFactories_var@CosLifeCycle@@QAEAAVFactories@1@XZ
??BFilterIDSeq_var@CosNotifyFilter@@QAEAAVFilterIDSeq@1@XZ
??BMappingConstraintInfoSeq_var@CosNotifyFilter@@QAEAAVMappingConstraintInfoSeq@1@XZ
??BMappingConstraintPairSeq_var@CosNotifyFilter@@QAEAAVMappingConstraintPairSeq@1@XZ
??BName_var@CosNaming@@QAEAAVName@1@XZ
??BNamedPropertyRangeSeq_var@CosNotification@@QAEAAVNamedPropertyRangeSeq@1@XZ
??BObject_var@CORBA@@QBEPAVObject@1@XZ
??BPropertySeq_var@CosNotification@@QAEAAVPropertySeq@1@XZ
??BProxyIDSeq_var@CosNotifyChannelAdmin@@QAEAAVProxyIDSeq@1@XZ
??BTypeCode_var@CORBA@@QBEPAVTypeCode@1@XZ
??B_CORBA_String_member@@QBEPBDXZ
??B_CORBA_String_var@@QAEPADXZ
??_2?$_CORBA_Sequence_ObjRef@VObject@CORBA@@VObject_Element@2@VObject_Helper@2@@@QBEXAAVcdrStream@@@Z
??_2?$_CORBA_Unbounded_Sequence@J@@QBEXAAVcdrStream@@@Z
??_2?$_CORBA_Unbounded_Sequence@UConstraintExp@CosNotifyFilter@@@@QBEXAAVcdrStream@@@Z
??_2?$_CORBA_Unbounded_Sequence@UConstraintInfo@CosNotifyFilter@@@@QBEXAAVcdrStream@@@Z
??_2?$_CORBA_Unbounded_Sequence@UEventType@CosNotification@@@@QBEXAAVcdrStream@@@Z
??_2?$_CORBA_Unbounded_Sequence@UMappingConstraintInfo@CosNotifyFilter@@@@QBEXAAVcdrStream@@@Z
??_2?$_CORBA_Unbounded_Sequence@UMappingConstraintPair@CosNotifyFilter@@@@QBEXAAVcdrStream@@@Z
??_2?$_CORBA_Unbounded_Sequence@UNVP@CosLifeCycle@@@@QBEXAAVcdrStream@@@Z
??_2?$_CORBA_Unbounded_Sequence@UNameComponent@CosNaming@@@@QBEXAAVcdrStream@@@Z
??_2?$_CORBA_Unbounded_Sequence@UNamedPropertyRange@CosNotification@@@@QBEXAAVcdrStream@@@Z
??_2?$_CORBA_Unbounded_Sequence@UProperty@CosNotification@@@@QBEXAAVcdrStream@@@Z
??_2?$_CORBA_Unbounded_Sequence@UPropertyError@CosNotification@@@@QBEXAAVcdrStream@@@Z
??_2?$_CORBA_Unbounded_Sequence@UStructuredEvent@CosNotification@@@@QBEXAAVcdrStream@@@Z
??_2?$_CORBA_Unbounded_Sequence_w_FixSizeElement@J$03$03@@QBEXAAVcdrStream@@@Z
??_2@YAXFAAVcdrStream@@@Z
??_2@YAXGAAVcdrStream@@@Z
??_2@YAXJAAVcdrStream@@@Z
??_2@YAXKAAVcdrStream@@@Z
??_2@YAXW4ClientType@CosNotifyChannelAdmin@@AAVcdrStream@@@Z
??_2@YAXW4ComparisonType@CosTime@@AAVcdrStream@@@Z
??_2@YAXW4InterFilterGroupOperator@CosNotifyChannelAdmin@@AAVcdrStream@@@Z
??_2@YAXW4ObtainInfoMode@CosNotifyChannelAdmin@@AAVcdrStream@@@Z
??_2@YAXW4OverlapType@CosTime@@AAVcdrStream@@@Z
??_2@YAXW4ProxyType@CosNotifyChannelAdmin@@AAVcdrStream@@@Z
??_2@YAXW4QoSError_code@CosNotification@@AAVcdrStream@@@Z
??_2@YAXW4TimeComparison@CosTime@@AAVcdrStream@@@Z
??_2@YAX_KAAVcdrStream@@@Z
??_2AdminLimit@CosNotifyChannelAdmin@@QBEXAAVcdrStream@@@Z
??_2AdminLimitExceeded@CosNotifyChannelAdmin@@QBEXAAVcdrStream@@@Z
??_2AdminNotFound@CosNotifyChannelAdmin@@QBEXAAVcdrStream@@@Z
??_2AlreadyConnected@CosEventChannelAdmin@@QBEXAAVcdrStream@@@Z
??_2CallbackNotFound@CosNotifyFilter@@QBEXAAVcdrStream@@@Z
??_2CannotMeetCriteria@CosLifeCycle@@QBEXAAVcdrStream@@@Z
??_2ChannelNotFound@CosNotifyChannelAdmin@@QBEXAAVcdrStream@@@Z
??_2ConnectionAlreadyActive@CosNotifyChannelAdmin@@QBEXAAVcdrStream@@@Z
??_2ConnectionAlreadyInactive@CosNotifyChannelAdmin@@QBEXAAVcdrStream@@@Z
??_2ConstraintExp@CosNotifyFilter@@QBEXAAVcdrStream@@@Z
??_2ConstraintInfo@CosNotifyFilter@@QBEXAAVcdrStream@@@Z
??_2ConstraintNotFound@CosNotifyFilter@@QBEXAAVcdrStream@@@Z
??_2Disconnected@CosEventComm@@QBEXAAVcdrStream@@@Z
??_2DuplicateConstraintID@CosNotifyFilter@@QBEXAAVcdrStream@@@Z
??_2EventHeader@CosNotification@@QBEXAAVcdrStream@@@Z
??_2EventType@CosNotification@@QBEXAAVcdrStream@@@Z
??_2FilterNotFound@CosNotifyFilter@@QBEXAAVcdrStream@@@Z
??_2FixedEventHeader@CosNotification@@QBEXAAVcdrStream@@@Z
??_2IntervalT@TimeBase@@QBEXAAVcdrStream@@@Z
??_2InvalidConstraint@CosNotifyFilter@@QBEXAAVcdrStream@@@Z
??_2InvalidCriteria@CosLifeCycle@@QBEXAAVcdrStream@@@Z
??_2InvalidEventType@CosNotifyComm@@QBEXAAVcdrStream@@@Z
??_2InvalidGrammar@CosNotifyFilter@@QBEXAAVcdrStream@@@Z
??_2InvalidValue@CosNotifyFilter@@QBEXAAVcdrStream@@@Z
??_2MappingConstraintInfo@CosNotifyFilter@@QBEXAAVcdrStream@@@Z
??_2MappingConstraintPair@CosNotifyFilter@@QBEXAAVcdrStream@@@Z
??_2NVP@CosLifeCycle@@QBEXAAVcdrStream@@@Z
??_2NamedPropertyRange@CosNotification@@QBEXAAVcdrStream@@@Z
??_2NoFactory@CosLifeCycle@@QBEXAAVcdrStream@@@Z
??_2NotConnected@CosNotifyChannelAdmin@@QBEXAAVcdrStream@@@Z
??_2NotCopyable@CosLifeCycle@@QBEXAAVcdrStream@@@Z
??_2NotMovable@CosLifeCycle@@QBEXAAVcdrStream@@@Z
??_2NotRemovable@CosLifeCycle@@QBEXAAVcdrStream@@@Z
??_2Property@CosNotification@@QBEXAAVcdrStream@@@Z
??_2PropertyError@CosNotification@@QBEXAAVcdrStream@@@Z
??_2PropertyRange@CosNotification@@QBEXAAVcdrStream@@@Z
??_2ProxyNotFound@CosNotifyChannelAdmin@@QBEXAAVcdrStream@@@Z
??_2StructuredEvent@CosNotification@@QBEXAAVcdrStream@@@Z
??_2TimeUnavailable@CosTime@@QBEXAAVcdrStream@@@Z
??_2TypeError@CosEventChannelAdmin@@QBEXAAVcdrStream@@@Z
??_2UnsupportedAdmin@CosNotification@@QBEXAAVcdrStream@@@Z
??_2UnsupportedFilterableData@CosNotifyFilter@@QBEXAAVcdrStream@@@Z
??_2UnsupportedQoS@CosNotification@@QBEXAAVcdrStream@@@Z
??_2UtcT@TimeBase@@QBEXAAVcdrStream@@@Z
??_3?$_CORBA_Sequence_ObjRef@VObject@CORBA@@VObject_Element@2@VObject_Helper@2@@@QAEXAAVcdrStream@@@Z
??_3?$_CORBA_Unbounded_Sequence@UConstraintExp@CosNotifyFilter@@@@QAEXAAVcdrStream@@@Z
??_3?$_CORBA_Unbounded_Sequence@UConstraintInfo@CosNotifyFilter@@@@QAEXAAVcdrStream@@@Z
??_3?$_CORBA_Unbounded_Sequence@UEventType@CosNotification@@@@QAEXAAVcdrStream@@@Z
??_3?$_CORBA_Unbounded_Sequence@UMappingConstraintInfo@CosNotifyFilter@@@@QAEXAAVcdrStream@@@Z
??_3?$_CORBA_Unbounded_Sequence@UMappingConstraintPair@CosNotifyFilter@@@@QAEXAAVcdrStream@@@Z
??_3?$_CORBA_Unbounded_Sequence@UNVP@CosLifeCycle@@@@QAEXAAVcdrStream@@@Z
??_3?$_CORBA_Unbounded_Sequence@UNameComponent@CosNaming@@@@QAEXAAVcdrStream@@@Z
??_3?$_CORBA_Unbounded_Sequence@UNamedPropertyRange@CosNotification@@@@QAEXAAVcdrStream@@@Z
??_3?$_CORBA_Unbounded_Sequence@UProperty@CosNotification@@@@QAEXAAVcdrStream@@@Z
??_3?$_CORBA_Unbounded_Sequence@UPropertyError@CosNotification@@@@QAEXAAVcdrStream@@@Z
??_3?$_CORBA_Unbounded_Sequence@UStructuredEvent@CosNotification@@@@QAEXAAVcdrStream@@@Z
??_3?$_CORBA_Unbounded_Sequence_w_FixSizeElement@J$03$03@@QAEXAAVcdrStream@@@Z
??_3@YAXAAFAAVcdrStream@@@Z
??_3@YAXAAGAAVcdrStream@@@Z
??_3@YAXAAJAAVcdrStream@@@Z
??_3@YAXAAKAAVcdrStream@@@Z
??_3@YAXAAW4ClientType@CosNotifyChannelAdmin@@AAVcdrStream@@@Z
??_3@YAXAAW4ComparisonType@CosTime@@AAVcdrStream@@@Z
??_3@YAXAAW4InterFilterGroupOperator@CosNotifyChannelAdmin@@AAVcdrStream@@@Z
??_3@YAXAAW4ObtainInfoMode@CosNotifyChannelAdmin@@AAVcdrStream@@@Z
??_3@YAXAAW4OverlapType@CosTime@@AAVcdrStream@@@Z
??_3@YAXAAW4ProxyType@CosNotifyChannelAdmin@@AAVcdrStream@@@Z
??_3@YAXAAW4QoSError_code@CosNotification@@AAVcdrStream@@@Z
??_3@YAXAAW4TimeComparison@CosTime@@AAVcdrStream@@@Z
??_3@YAXAA_KAAVcdrStream@@@Z
??_3AdminLimit@CosNotifyChannelAdmin@@QAEXAAVcdrStream@@@Z
??_3AdminLimitExceeded@CosNotifyChannelAdmin@@QAEXAAVcdrStream@@@Z
??_3AdminNotFound@CosNotifyChannelAdmin@@QAEXAAVcdrStream@@@Z
??_3AlreadyConnected@CosEventChannelAdmin@@QAEXAAVcdrStream@@@Z
??_3CallbackNotFound@CosNotifyFilter@@QAEXAAVcdrStream@@@Z
??_3CannotMeetCriteria@CosLifeCycle@@QAEXAAVcdrStream@@@Z
??_3ChannelNotFound@CosNotifyChannelAdmin@@QAEXAAVcdrStream@@@Z
??_3ConnectionAlreadyActive@CosNotifyChannelAdmin@@QAEXAAVcdrStream@@@Z
??_3ConnectionAlreadyInactive@CosNotifyChannelAdmin@@QAEXAAVcdrStream@@@Z
??_3ConstraintExp@CosNotifyFilter@@QAEXAAVcdrStream@@@Z
??_3ConstraintInfo@CosNotifyFilter@@QAEXAAVcdrStream@@@Z
??_3ConstraintNotFound@CosNotifyFilter@@QAEXAAVcdrStream@@@Z
??_3Disconnected@CosEventComm@@QAEXAAVcdrStream@@@Z
??_3DuplicateConstraintID@CosNotifyFilter@@QAEXAAVcdrStream@@@Z
??_3EventHeader@CosNotification@@QAEXAAVcdrStream@@@Z
??_3EventType@CosNotification@@QAEXAAVcdrStream@@@Z
??_3FilterNotFound@CosNotifyFilter@@QAEXAAVcdrStream@@@Z
??_3FixedEventHeader@CosNotification@@QAEXAAVcdrStream@@@Z
??_3IntervalT@TimeBase@@QAEXAAVcdrStream@@@Z
??_3InvalidConstraint@CosNotifyFilter@@QAEXAAVcdrStream@@@Z
??_3InvalidCriteria@CosLifeCycle@@QAEXAAVcdrStream@@@Z
??_3InvalidEventType@CosNotifyComm@@QAEXAAVcdrStream@@@Z
??_3InvalidGrammar@CosNotifyFilter@@QAEXAAVcdrStream@@@Z
??_3InvalidValue@CosNotifyFilter@@QAEXAAVcdrStream@@@Z
??_3MappingConstraintInfo@CosNotifyFilter@@QAEXAAVcdrStream@@@Z
??_3MappingConstraintPair@CosNotifyFilter@@QAEXAAVcdrStream@@@Z
??_3NVP@CosLifeCycle@@QAEXAAVcdrStream@@@Z
??_3NamedPropertyRange@CosNotification@@QAEXAAVcdrStream@@@Z
??_3NoFactory@CosLifeCycle@@QAEXAAVcdrStream@@@Z
??_3NotConnected@CosNotifyChannelAdmin@@QAEXAAVcdrStream@@@Z
??_3NotCopyable@CosLifeCycle@@QAEXAAVcdrStream@@@Z
??_3NotMovable@CosLifeCycle@@QAEXAAVcdrStream@@@Z
??_3NotRemovable@CosLifeCycle@@QAEXAAVcdrStream@@@Z
??_3Property@CosNotification@@QAEXAAVcdrStream@@@Z
??_3PropertyError@CosNotification@@QAEXAAVcdrStream@@@Z
??_3PropertyRange@CosNotification@@QAEXAAVcdrStream@@@Z
??_3ProxyNotFound@CosNotifyChannelAdmin@@QAEXAAVcdrStream@@@Z
??_3StructuredEvent@CosNotification@@QAEXAAVcdrStream@@@Z
??_3TimeUnavailable@CosTime@@QAEXAAVcdrStream@@@Z
??_3TypeError@CosEventChannelAdmin@@QAEXAAVcdrStream@@@Z
??_3UnsupportedAdmin@CosNotification@@QAEXAAVcdrStream@@@Z
??_3UnsupportedFilterableData@CosNotifyFilter@@QAEXAAVcdrStream@@@Z
??_3UnsupportedQoS@CosNotification@@QAEXAAVcdrStream@@@Z
??_3UtcT@TimeBase@@QAEXAAVcdrStream@@@Z
??_DAdminPropertiesAdmin@POA_CosNotification@@QAEXXZ
??_DConsumerAdmin@POA_CosEventChannelAdmin@@QAEXXZ
??_DConsumerAdmin@POA_CosNotifyChannelAdmin@@QAEXXZ
??_DEventChannel@POA_CosEventChannelAdmin@@QAEXXZ
??_DEventChannel@POA_CosNotifyChannelAdmin@@QAEXXZ
??_DEventChannelFactory@POA_CosNotifyChannelAdmin@@QAEXXZ
??_DFactoryFinder@POA_CosLifeCycle@@QAEXXZ
??_DFilter@POA_CosNotifyFilter@@QAEXXZ
??_DFilterAdmin@POA_CosNotifyFilter@@QAEXXZ
??_DFilterFactory@POA_CosNotifyFilter@@QAEXXZ
??_DGenericFactory@POA_CosLifeCycle@@QAEXXZ
??_DLifeCycleObject@POA_CosLifeCycle@@QAEXXZ
??_DMappingFilter@POA_CosNotifyFilter@@QAEXXZ
??_DNotifyPublish@POA_CosNotifyComm@@QAEXXZ
??_DNotifySubscribe@POA_CosNotifyComm@@QAEXXZ
??_DProxyConsumer@POA_CosNotifyChannelAdmin@@QAEXXZ
??_DProxyPullConsumer@POA_CosEventChannelAdmin@@QAEXXZ
??_DProxyPullConsumer@POA_CosNotifyChannelAdmin@@QAEXXZ
??_DProxyPullSupplier@POA_CosEventChannelAdmin@@QAEXXZ
??_DProxyPullSupplier@POA_CosNotifyChannelAdmin@@QAEXXZ
??_DProxyPushConsumer@POA_CosEventChannelAdmin@@QAEXXZ
??_DProxyPushConsumer@POA_CosNotifyChannelAdmin@@QAEXXZ
??_DProxyPushSupplier@POA_CosEventChannelAdmin@@QAEXXZ
??_DProxyPushSupplier@POA_CosNotifyChannelAdmin@@QAEXXZ
??_DProxySupplier@POA_CosNotifyChannelAdmin@@QAEXXZ
??_DPullConsumer@POA_CosEventComm@@QAEXXZ
??_DPullConsumer@POA_CosNotifyComm@@QAEXXZ
??_DPullSupplier@POA_CosEventComm@@QAEXXZ
??_DPullSupplier@POA_CosNotifyComm@@QAEXXZ
??_DPushConsumer@POA_CosEventComm@@QAEXXZ
??_DPushConsumer@POA_CosNotifyComm@@QAEXXZ
??_DPushSupplier@POA_CosEventComm@@QAEXXZ
??_DPushSupplier@POA_CosNotifyComm@@QAEXXZ
??_DQoSAdmin@POA_CosNotification@@QAEXXZ
??_DSequenceProxyPullConsumer@POA_CosNotifyChannelAdmin@@QAEXXZ
??_DSequenceProxyPullSupplier@POA_CosNotifyChannelAdmin@@QAEXXZ
??_DSequenceProxyPushConsumer@POA_CosNotifyChannelAdmin@@QAEXXZ
??_DSequenceProxyPushSupplier@POA_CosNotifyChannelAdmin@@QAEXXZ
??_DSequencePullConsumer@POA_CosNotifyComm@@QAEXXZ
??_DSequencePullSupplier@POA_CosNotifyComm@@QAEXXZ
??_DSequencePushConsumer@POA_CosNotifyComm@@QAEXXZ
??_DSequencePushSupplier@POA_CosNotifyComm@@QAEXXZ
??_DStructuredProxyPullConsumer@POA_CosNotifyChannelAdmin@@QAEXXZ
??_DStructuredProxyPullSupplier@POA_CosNotifyChannelAdmin@@QAEXXZ
??_DStructuredProxyPushConsumer@POA_CosNotifyChannelAdmin@@QAEXXZ
??_DStructuredProxyPushSupplier@POA_CosNotifyChannelAdmin@@QAEXXZ
??_DStructuredPullConsumer@POA_CosNotifyComm@@QAEXXZ
??_DStructuredPullSupplier@POA_CosNotifyComm@@QAEXXZ
??_DStructuredPushConsumer@POA_CosNotifyComm@@QAEXXZ
??_DStructuredPushSupplier@POA_CosNotifyComm@@QAEXXZ
??_DSupplierAdmin@POA_CosEventChannelAdmin@@QAEXXZ
??_DSupplierAdmin@POA_CosNotifyChannelAdmin@@QAEXXZ
??_DTIO@POA_CosTime@@QAEXXZ
??_DTimeService@POA_CosTime@@QAEXXZ
??_DUTO@POA_CosTime@@QAEXXZ
??_D_impl_AdminPropertiesAdmin@CosNotification@@QAEXXZ
??_D_impl_ConsumerAdmin@CosEventChannelAdmin@@QAEXXZ
??_D_impl_ConsumerAdmin@CosNotifyChannelAdmin@@QAEXXZ
??_D_impl_EventChannel@CosEventChannelAdmin@@QAEXXZ
??_D_impl_EventChannel@CosNotifyChannelAdmin@@QAEXXZ
??_D_impl_EventChannelFactory@CosNotifyChannelAdmin@@QAEXXZ
??_D_impl_FactoryFinder@CosLifeCycle@@QAEXXZ
??_D_impl_Filter@CosNotifyFilter@@QAEXXZ
??_D_impl_FilterAdmin@CosNotifyFilter@@QAEXXZ
??_D_impl_FilterFactory@CosNotifyFilter@@QAEXXZ
??_D_impl_GenericFactory@CosLifeCycle@@QAEXXZ
??_D_impl_LifeCycleObject@CosLifeCycle@@QAEXXZ
??_D_impl_MappingFilter@CosNotifyFilter@@QAEXXZ
??_D_impl_NotifyPublish@CosNotifyComm@@QAEXXZ
??_D_impl_NotifySubscribe@CosNotifyComm@@QAEXXZ
??_D_impl_ProxyConsumer@CosNotifyChannelAdmin@@QAEXXZ
??_D_impl_ProxyPullConsumer@CosEventChannelAdmin@@QAEXXZ
??_D_impl_ProxyPullConsumer@CosNotifyChannelAdmin@@QAEXXZ
??_D_impl_ProxyPullSupplier@CosEventChannelAdmin@@QAEXXZ
??_D_impl_ProxyPullSupplier@CosNotifyChannelAdmin@@QAEXXZ
??_D_impl_ProxyPushConsumer@CosEventChannelAdmin@@QAEXXZ
??_D_impl_ProxyPushConsumer@CosNotifyChannelAdmin@@QAEXXZ
??_D_impl_ProxyPushSupplier@CosEventChannelAdmin@@QAEXXZ
??_D_impl_ProxyPushSupplier@CosNotifyChannelAdmin@@QAEXXZ
??_D_impl_ProxySupplier@CosNotifyChannelAdmin@@QAEXXZ
??_D_impl_PullConsumer@CosEventComm@@QAEXXZ
??_D_impl_PullConsumer@CosNotifyComm@@QAEXXZ
??_D_impl_PullSupplier@CosEventComm@@QAEXXZ
??_D_impl_PullSupplier@CosNotifyComm@@QAEXXZ
??_D_impl_PushConsumer@CosEventComm@@QAEXXZ
??_D_impl_PushConsumer@CosNotifyComm@@QAEXXZ
??_D_impl_PushSupplier@CosEventComm@@QAEXXZ
??_D_impl_PushSupplier@CosNotifyComm@@QAEXXZ
??_D_impl_QoSAdmin@CosNotification@@QAEXXZ
??_D_impl_SequenceProxyPullConsumer@CosNotifyChannelAdmin@@QAEXXZ
??_D_impl_SequenceProxyPullSupplier@CosNotifyChannelAdmin@@QAEXXZ
??_D_impl_SequenceProxyPushConsumer@CosNotifyChannelAdmin@@QAEXXZ
??_D_impl_SequenceProxyPushSupplier@CosNotifyChannelAdmin@@QAEXXZ
??_D_impl_SequencePullConsumer@CosNotifyComm@@QAEXXZ
??_D_impl_SequencePullSupplier@CosNotifyComm@@QAEXXZ
??_D_impl_SequencePushConsumer@CosNotifyComm@@QAEXXZ
??_D_impl_SequencePushSupplier@CosNotifyComm@@QAEXXZ
??_D_impl_StructuredProxyPullConsumer@CosNotifyChannelAdmin@@QAEXXZ
??_D_impl_StructuredProxyPullSupplier@CosNotifyChannelAdmin@@QAEXXZ
??_D_impl_StructuredProxyPushConsumer@CosNotifyChannelAdmin@@QAEXXZ
??_D_impl_StructuredProxyPushSupplier@CosNotifyChannelAdmin@@QAEXXZ
??_D_impl_StructuredPullConsumer@CosNotifyComm@@QAEXXZ
??_D_impl_StructuredPullSupplier@CosNotifyComm@@QAEXXZ
??_D_impl_StructuredPushConsumer@CosNotifyComm@@QAEXXZ
??_D_impl_StructuredPushSupplier@CosNotifyComm@@QAEXXZ
??_D_impl_SupplierAdmin@CosEventChannelAdmin@@QAEXXZ
??_D_impl_SupplierAdmin@CosNotifyChannelAdmin@@QAEXXZ
??_D_impl_TIO@CosTime@@QAEXXZ
??_D_impl_TimeService@CosTime@@QAEXXZ
??_D_impl_UTO@CosTime@@QAEXXZ
??_D_objref_AdminPropertiesAdmin@CosNotification@@IAEXXZ
??_D_objref_ConsumerAdmin@CosEventChannelAdmin@@IAEXXZ
??_D_objref_ConsumerAdmin@CosNotifyChannelAdmin@@IAEXXZ
??_D_objref_EventChannel@CosEventChannelAdmin@@IAEXXZ
??_D_objref_EventChannel@CosNotifyChannelAdmin@@IAEXXZ
??_D_objref_EventChannelFactory@CosNotifyChannelAdmin@@IAEXXZ
??_D_objref_FactoryFinder@CosLifeCycle@@IAEXXZ
??_D_objref_Filter@CosNotifyFilter@@IAEXXZ
??_D_objref_FilterAdmin@CosNotifyFilter@@IAEXXZ
??_D_objref_FilterFactory@CosNotifyFilter@@IAEXXZ
??_D_objref_GenericFactory@CosLifeCycle@@IAEXXZ
??_D_objref_LifeCycleObject@CosLifeCycle@@IAEXXZ
??_D_objref_MappingFilter@CosNotifyFilter@@IAEXXZ
??_D_objref_NotifyPublish@CosNotifyComm@@IAEXXZ
??_D_objref_NotifySubscribe@CosNotifyComm@@IAEXXZ
??_D_objref_ProxyConsumer@CosNotifyChannelAdmin@@IAEXXZ
??_D_objref_ProxyPullConsumer@CosEventChannelAdmin@@IAEXXZ
??_D_objref_ProxyPullConsumer@CosNotifyChannelAdmin@@IAEXXZ
??_D_objref_ProxyPullSupplier@CosEventChannelAdmin@@IAEXXZ
??_D_objref_ProxyPullSupplier@CosNotifyChannelAdmin@@IAEXXZ
??_D_objref_ProxyPushConsumer@CosEventChannelAdmin@@IAEXXZ
??_D_objref_ProxyPushConsumer@CosNotifyChannelAdmin@@IAEXXZ
??_D_objref_ProxyPushSupplier@CosEventChannelAdmin@@IAEXXZ
??_D_objref_ProxyPushSupplier@CosNotifyChannelAdmin@@IAEXXZ
??_D_objref_ProxySupplier@CosNotifyChannelAdmin@@IAEXXZ
??_D_objref_PullConsumer@CosEventComm@@IAEXXZ
??_D_objref_PullConsumer@CosNotifyComm@@IAEXXZ
??_D_objref_PullSupplier@CosEventComm@@IAEXXZ
??_D_objref_PullSupplier@CosNotifyComm@@IAEXXZ
??_D_objref_PushConsumer@CosEventComm@@IAEXXZ
??_D_objref_PushConsumer@CosNotifyComm@@IAEXXZ
??_D_objref_PushSupplier@CosEventComm@@IAEXXZ
??_D_objref_PushSupplier@CosNotifyComm@@IAEXXZ
??_D_objref_QoSAdmin@CosNotification@@IAEXXZ
??_D_objref_SequenceProxyPullConsumer@CosNotifyChannelAdmin@@IAEXXZ
??_D_objref_SequenceProxyPullSupplier@CosNotifyChannelAdmin@@IAEXXZ
??_D_objref_SequenceProxyPushConsumer@CosNotifyChannelAdmin@@IAEXXZ
??_D_objref_SequenceProxyPushSupplier@CosNotifyChannelAdmin@@IAEXXZ
??_D_objref_SequencePullConsumer@CosNotifyComm@@IAEXXZ
??_D_objref_SequencePullSupplier@CosNotifyComm@@IAEXXZ
??_D_objref_SequencePushConsumer@CosNotifyComm@@IAEXXZ
??_D_objref_SequencePushSupplier@CosNotifyComm@@IAEXXZ
??_D_objref_StructuredProxyPullConsumer@CosNotifyChannelAdmin@@IAEXXZ
??_D_objref_StructuredProxyPullSupplier@CosNotifyChannelAdmin@@IAEXXZ
??_D_objref_StructuredProxyPushConsumer@CosNotifyChannelAdmin@@IAEXXZ
??_D_objref_StructuredProxyPushSupplier@CosNotifyChannelAdmin@@IAEXXZ
??_D_objref_StructuredPullConsumer@CosNotifyComm@@IAEXXZ
??_D_objref_StructuredPullSupplier@CosNotifyComm@@IAEXXZ
??_D_objref_StructuredPushConsumer@CosNotifyComm@@IAEXXZ
??_D_objref_StructuredPushSupplier@CosNotifyComm@@IAEXXZ
??_D_objref_SupplierAdmin@CosEventChannelAdmin@@IAEXXZ
??_D_objref_SupplierAdmin@CosNotifyChannelAdmin@@IAEXXZ
??_D_objref_TIO@CosTime@@IAEXXZ
??_D_objref_TimeService@CosTime@@IAEXXZ
??_D_objref_UTO@CosTime@@IAEXXZ
?ConnectionReliability@CosNotification@@3PBDB
?DiscardPolicy@CosNotification@@3PBDB
?EventReliability@CosNotification@@3PBDB
?MaxConsumers@CosNotification@@3PBDB
?MaxEventsPerConsumer@CosNotification@@3PBDB
?MaxQueueLength@CosNotification@@3PBDB
?MaxSuppliers@CosNotification@@3PBDB
?MaximumBatchSize@CosNotification@@3PBDB
?MyAdmin@_objref_ProxyConsumer@CosNotifyChannelAdmin@@QAEPAV_objref_SupplierAdmin@2@XZ
?MyAdmin@_objref_ProxySupplier@CosNotifyChannelAdmin@@QAEPAV_objref_ConsumerAdmin@2@XZ
?MyChannel@_objref_ConsumerAdmin@CosNotifyChannelAdmin@@QAEPAV_objref_EventChannel@2@XZ
?MyChannel@_objref_SupplierAdmin@CosNotifyChannelAdmin@@QAEPAV_objref_EventChannel@2@XZ
?MyFactory@_objref_EventChannel@CosNotifyChannelAdmin@@QAEPAV_objref_EventChannelFactory@2@XZ
?MyID@_objref_ConsumerAdmin@CosNotifyChannelAdmin@@QAEJXZ
?MyID@_objref_SupplierAdmin@CosNotifyChannelAdmin@@QAEJXZ
?MyOperator@_objref_ConsumerAdmin@CosNotifyChannelAdmin@@QAE?AW4InterFilterGroupOperator@2@XZ
?MyOperator@_objref_SupplierAdmin@CosNotifyChannelAdmin@@QAE?AW4InterFilterGroupOperator@2@XZ
?MyType@_objref_ProxyConsumer@CosNotifyChannelAdmin@@QAE?AW4ProxyType@2@XZ
?MyType@_objref_ProxySupplier@CosNotifyChannelAdmin@@QAE?AW4ProxyType@2@XZ
?NP_data@?$_CORBA_Sequence@J@@QBEPAJXZ
?OrderPolicy@CosNotification@@3PBDB
?PacingInterval@CosNotification@@3PBDB
?Priority@CosNotification@@3PBDB
?RejectNewEvents@CosNotification@@3PBDB
?StartTime@CosNotification@@3PBDB
?StartTimeSupported@CosNotification@@3PBDB
?StopTime@CosNotification@@3PBDB
?StopTimeSupported@CosNotification@@3PBDB
?Timeout@CosNotification@@3PBDB
?_NP_duplicate@AdminLimitExceeded@CosNotifyChannelAdmin@@UBEPAVException@CORBA@@XZ
?_NP_duplicate@AdminNotFound@CosNotifyChannelAdmin@@UBEPAVException@CORBA@@XZ
?_NP_duplicate@AlreadyConnected@CosEventChannelAdmin@@UBEPAVException@CORBA@@XZ
?_NP_duplicate@CallbackNotFound@CosNotifyFilter@@UBEPAVException@CORBA@@XZ
?_NP_duplicate@CannotMeetCriteria@CosLifeCycle@@UBEPAVException@CORBA@@XZ
?_NP_duplicate@ChannelNotFound@CosNotifyChannelAdmin@@UBEPAVException@CORBA@@XZ
?_NP_duplicate@ConnectionAlreadyActive@CosNotifyChannelAdmin@@UBEPAVException@CORBA@@XZ
?_NP_duplicate@ConnectionAlreadyInactive@CosNotifyChannelAdmin@@UBEPAVException@CORBA@@XZ
?_NP_duplicate@ConstraintNotFound@CosNotifyFilter@@UBEPAVException@CORBA@@XZ
?_NP_duplicate@Disconnected@CosEventComm@@UBEPAVException@CORBA@@XZ
?_NP_duplicate@DuplicateConstraintID@CosNotifyFilter@@UBEPAVException@CORBA@@XZ
?_NP_duplicate@FilterNotFound@CosNotifyFilter@@UBEPAVException@CORBA@@XZ
?_NP_duplicate@InvalidConstraint@CosNotifyFilter@@UBEPAVException@CORBA@@XZ
?_NP_duplicate@InvalidCriteria@CosLifeCycle@@UBEPAVException@CORBA@@XZ
?_NP_duplicate@InvalidEventType@CosNotifyComm@@UBEPAVException@CORBA@@XZ
?_NP_duplicate@InvalidGrammar@CosNotifyFilter@@UBEPAVException@CORBA@@XZ
?_NP_duplicate@InvalidValue@CosNotifyFilter@@UBEPAVException@CORBA@@XZ
?_NP_duplicate@NoFactory@CosLifeCycle@@UBEPAVException@CORBA@@XZ
?_NP_duplicate@NotConnected@CosNotifyChannelAdmin@@UBEPAVException@CORBA@@XZ
?_NP_duplicate@NotCopyable@CosLifeCycle@@UBEPAVException@CORBA@@XZ
?_NP_duplicate@NotMovable@CosLifeCycle@@UBEPAVException@CORBA@@XZ
?_NP_duplicate@NotRemovable@CosLifeCycle@@UBEPAVException@CORBA@@XZ
?_NP_duplicate@ProxyNotFound@CosNotifyChannelAdmin@@UBEPAVException@CORBA@@XZ
?_NP_duplicate@TimeUnavailable@CosTime@@UBEPAVException@CORBA@@XZ
?_NP_duplicate@TypeError@CosEventChannelAdmin@@UBEPAVException@CORBA@@XZ
?_NP_duplicate@UnsupportedAdmin@CosNotification@@UBEPAVException@CORBA@@XZ
?_NP_duplicate@UnsupportedFilterableData@CosNotifyFilter@@UBEPAVException@CORBA@@XZ
?_NP_duplicate@UnsupportedQoS@CosNotification@@UBEPAVException@CORBA@@XZ
?_NP_is_nil@Object@CORBA@@QBE_NXZ
?_NP_is_pseudo@Object@CORBA@@QBE_NXZ
?_NP_marshal@AdminLimitExceeded@CosNotifyChannelAdmin@@EBEXAAVcdrStream@@@Z
?_NP_marshal@AdminNotFound@CosNotifyChannelAdmin@@EBEXAAVcdrStream@@@Z
?_NP_marshal@AlreadyConnected@CosEventChannelAdmin@@EBEXAAVcdrStream@@@Z
?_NP_marshal@CallbackNotFound@CosNotifyFilter@@EBEXAAVcdrStream@@@Z
?_NP_marshal@CannotMeetCriteria@CosLifeCycle@@EBEXAAVcdrStream@@@Z
?_NP_marshal@ChannelNotFound@CosNotifyChannelAdmin@@EBEXAAVcdrStream@@@Z
?_NP_marshal@ConnectionAlreadyActive@CosNotifyChannelAdmin@@EBEXAAVcdrStream@@@Z
?_NP_marshal@ConnectionAlreadyInactive@CosNotifyChannelAdmin@@EBEXAAVcdrStream@@@Z
?_NP_marshal@ConstraintNotFound@CosNotifyFilter@@EBEXAAVcdrStream@@@Z
?_NP_marshal@Disconnected@CosEventComm@@EBEXAAVcdrStream@@@Z
?_NP_marshal@DuplicateConstraintID@CosNotifyFilter@@EBEXAAVcdrStream@@@Z
?_NP_marshal@FilterNotFound@CosNotifyFilter@@EBEXAAVcdrStream@@@Z
?_NP_marshal@InvalidConstraint@CosNotifyFilter@@EBEXAAVcdrStream@@@Z
?_NP_marshal@InvalidCriteria@CosLifeCycle@@EBEXAAVcdrStream@@@Z
?_NP_marshal@InvalidEventType@CosNotifyComm@@EBEXAAVcdrStream@@@Z
?_NP_marshal@InvalidGrammar@CosNotifyFilter@@EBEXAAVcdrStream@@@Z
?_NP_marshal@InvalidValue@CosNotifyFilter@@EBEXAAVcdrStream@@@Z
?_NP_marshal@NoFactory@CosLifeCycle@@EBEXAAVcdrStream@@@Z
?_NP_marshal@NotConnected@CosNotifyChannelAdmin@@EBEXAAVcdrStream@@@Z
?_NP_marshal@NotCopyable@CosLifeCycle@@EBEXAAVcdrStream@@@Z
?_NP_marshal@NotMovable@CosLifeCycle@@EBEXAAVcdrStream@@@Z
?_NP_marshal@NotRemovable@CosLifeCycle@@EBEXAAVcdrStream@@@Z
?_NP_marshal@ProxyNotFound@CosNotifyChannelAdmin@@EBEXAAVcdrStream@@@Z
?_NP_marshal@TimeUnavailable@CosTime@@EBEXAAVcdrStream@@@Z
?_NP_marshal@TypeError@CosEventChannelAdmin@@EBEXAAVcdrStream@@@Z
?_NP_marshal@UnsupportedAdmin@CosNotification@@EBEXAAVcdrStream@@@Z
?_NP_marshal@UnsupportedFilterableData@CosNotifyFilter@@EBEXAAVcdrStream@@@Z
?_NP_marshal@UnsupportedQoS@CosNotification@@EBEXAAVcdrStream@@@Z
?_NP_repoId@AdminLimitExceeded@CosNotifyChannelAdmin@@EBEPBDPAH@Z
?_NP_repoId@AdminNotFound@CosNotifyChannelAdmin@@EBEPBDPAH@Z
?_NP_repoId@AlreadyConnected@CosEventChannelAdmin@@EBEPBDPAH@Z
?_NP_repoId@CallbackNotFound@CosNotifyFilter@@EBEPBDPAH@Z
?_NP_repoId@CannotMeetCriteria@CosLifeCycle@@EBEPBDPAH@Z
?_NP_repoId@ChannelNotFound@CosNotifyChannelAdmin@@EBEPBDPAH@Z
?_NP_repoId@ConnectionAlreadyActive@CosNotifyChannelAdmin@@EBEPBDPAH@Z
?_NP_repoId@ConnectionAlreadyInactive@CosNotifyChannelAdmin@@EBEPBDPAH@Z
?_NP_repoId@ConstraintNotFound@CosNotifyFilter@@EBEPBDPAH@Z
?_NP_repoId@Disconnected@CosEventComm@@EBEPBDPAH@Z
?_NP_repoId@DuplicateConstraintID@CosNotifyFilter@@EBEPBDPAH@Z
?_NP_repoId@FilterNotFound@CosNotifyFilter@@EBEPBDPAH@Z
?_NP_repoId@InvalidConstraint@CosNotifyFilter@@EBEPBDPAH@Z
?_NP_repoId@InvalidCriteria@CosLifeCycle@@EBEPBDPAH@Z
?_NP_repoId@InvalidEventType@CosNotifyComm@@EBEPBDPAH@Z
?_NP_repoId@InvalidGrammar@CosNotifyFilter@@EBEPBDPAH@Z
?_NP_repoId@InvalidValue@CosNotifyFilter@@EBEPBDPAH@Z
?_NP_repoId@NoFactory@CosLifeCycle@@EBEPBDPAH@Z
?_NP_repoId@NotConnected@CosNotifyChannelAdmin@@EBEPBDPAH@Z
?_NP_repoId@NotCopyable@CosLifeCycle@@EBEPBDPAH@Z
?_NP_repoId@NotMovable@CosLifeCycle@@EBEPBDPAH@Z
?_NP_repoId@NotRemovable@CosLifeCycle@@EBEPBDPAH@Z
?_NP_repoId@ProxyNotFound@CosNotifyChannelAdmin@@EBEPBDPAH@Z
?_NP_repoId@TimeUnavailable@CosTime@@EBEPBDPAH@Z
?_NP_repoId@TypeError@CosEventChannelAdmin@@EBEPBDPAH@Z
?_NP_repoId@UnsupportedAdmin@CosNotification@@EBEPBDPAH@Z
?_NP_repoId@UnsupportedFilterableData@CosNotifyFilter@@EBEPBDPAH@Z
?_NP_repoId@UnsupportedQoS@CosNotification@@EBEPBDPAH@Z
?_NP_typeId@AdminLimitExceeded@CosNotifyChannelAdmin@@EBEPBDXZ
?_NP_typeId@AdminNotFound@CosNotifyChannelAdmin@@EBEPBDXZ
?_NP_typeId@AlreadyConnected@CosEventChannelAdmin@@EBEPBDXZ
?_NP_typeId@CallbackNotFound@CosNotifyFilter@@EBEPBDXZ
?_NP_typeId@CannotMeetCriteria@CosLifeCycle@@EBEPBDXZ
?_NP_typeId@ChannelNotFound@CosNotifyChannelAdmin@@EBEPBDXZ
?_NP_typeId@ConnectionAlreadyActive@CosNotifyChannelAdmin@@EBEPBDXZ
?_NP_typeId@ConnectionAlreadyInactive@CosNotifyChannelAdmin@@EBEPBDXZ
?_NP_typeId@ConstraintNotFound@CosNotifyFilter@@EBEPBDXZ
?_NP_typeId@Disconnected@CosEventComm@@EBEPBDXZ
?_NP_typeId@DuplicateConstraintID@CosNotifyFilter@@EBEPBDXZ
?_NP_typeId@FilterNotFound@CosNotifyFilter@@EBEPBDXZ
?_NP_typeId@InvalidConstraint@CosNotifyFilter@@EBEPBDXZ
?_NP_typeId@InvalidCriteria@CosLifeCycle@@EBEPBDXZ
?_NP_typeId@InvalidEventType@CosNotifyComm@@EBEPBDXZ
?_NP_typeId@InvalidGrammar@CosNotifyFilter@@EBEPBDXZ
?_NP_typeId@InvalidValue@CosNotifyFilter@@EBEPBDXZ
?_NP_typeId@NoFactory@CosLifeCycle@@EBEPBDXZ
?_NP_typeId@NotConnected@CosNotifyChannelAdmin@@EBEPBDXZ
?_NP_typeId@NotCopyable@CosLifeCycle@@EBEPBDXZ
?_NP_typeId@NotMovable@CosLifeCycle@@EBEPBDXZ
?_NP_typeId@NotRemovable@CosLifeCycle@@EBEPBDXZ
?_NP_typeId@ProxyNotFound@CosNotifyChannelAdmin@@EBEPBDXZ
?_NP_typeId@TimeUnavailable@CosTime@@EBEPBDXZ
?_NP_typeId@TypeError@CosEventChannelAdmin@@EBEPBDXZ
?_NP_typeId@UnsupportedAdmin@CosNotification@@EBEPBDXZ
?_NP_typeId@UnsupportedFilterableData@CosNotifyFilter@@EBEPBDXZ
?_NP_typeId@UnsupportedQoS@CosNotification@@EBEPBDXZ
?_PD_repoId@AdminLimitExceeded@CosNotifyChannelAdmin@@2PBDB
?_PD_repoId@AdminNotFound@CosNotifyChannelAdmin@@2PBDB
?_PD_repoId@AdminPropertiesAdmin@CosNotification@@2PBDB
?_PD_repoId@AlreadyConnected@CosEventChannelAdmin@@2PBDB
?_PD_repoId@CallbackNotFound@CosNotifyFilter@@2PBDB
?_PD_repoId@CannotMeetCriteria@CosLifeCycle@@2PBDB
?_PD_repoId@ChannelNotFound@CosNotifyChannelAdmin@@2PBDB
?_PD_repoId@ConnectionAlreadyActive@CosNotifyChannelAdmin@@2PBDB
?_PD_repoId@ConnectionAlreadyInactive@CosNotifyChannelAdmin@@2PBDB
?_PD_repoId@ConstraintNotFound@CosNotifyFilter@@2PBDB
?_PD_repoId@ConsumerAdmin@CosEventChannelAdmin@@2PBDB
?_PD_repoId@ConsumerAdmin@CosNotifyChannelAdmin@@2PBDB
?_PD_repoId@Disconnected@CosEventComm@@2PBDB
?_PD_repoId@DuplicateConstraintID@CosNotifyFilter@@2PBDB
?_PD_repoId@EventChannel@CosEventChannelAdmin@@2PBDB
?_PD_repoId@EventChannel@CosNotifyChannelAdmin@@2PBDB
?_PD_repoId@EventChannelFactory@CosNotifyChannelAdmin@@2PBDB
?_PD_repoId@FactoryFinder@CosLifeCycle@@2PBDB
?_PD_repoId@Filter@CosNotifyFilter@@2PBDB
?_PD_repoId@FilterAdmin@CosNotifyFilter@@2PBDB
?_PD_repoId@FilterFactory@CosNotifyFilter@@2PBDB
?_PD_repoId@FilterNotFound@CosNotifyFilter@@2PBDB
?_PD_repoId@GenericFactory@CosLifeCycle@@2PBDB
?_PD_repoId@InvalidConstraint@CosNotifyFilter@@2PBDB
?_PD_repoId@InvalidCriteria@CosLifeCycle@@2PBDB
?_PD_repoId@InvalidEventType@CosNotifyComm@@2PBDB
?_PD_repoId@InvalidGrammar@CosNotifyFilter@@2PBDB
?_PD_repoId@InvalidValue@CosNotifyFilter@@2PBDB
?_PD_repoId@LifeCycleObject@CosLifeCycle@@2PBDB
?_PD_repoId@MappingFilter@CosNotifyFilter@@2PBDB
?_PD_repoId@NoFactory@CosLifeCycle@@2PBDB
?_PD_repoId@NotConnected@CosNotifyChannelAdmin@@2PBDB
?_PD_repoId@NotCopyable@CosLifeCycle@@2PBDB
?_PD_repoId@NotMovable@CosLifeCycle@@2PBDB
?_PD_repoId@NotRemovable@CosLifeCycle@@2PBDB
?_PD_repoId@NotifyPublish@CosNotifyComm@@2PBDB
?_PD_repoId@NotifySubscribe@CosNotifyComm@@2PBDB
?_PD_repoId@ProxyConsumer@CosNotifyChannelAdmin@@2PBDB
?_PD_repoId@ProxyNotFound@CosNotifyChannelAdmin@@2PBDB
?_PD_repoId@ProxyPullConsumer@CosEventChannelAdmin@@2PBDB
?_PD_repoId@ProxyPullConsumer@CosNotifyChannelAdmin@@2PBDB
?_PD_repoId@ProxyPullSupplier@CosEventChannelAdmin@@2PBDB
?_PD_repoId@ProxyPullSupplier@CosNotifyChannelAdmin@@2PBDB
?_PD_repoId@ProxyPushConsumer@CosEventChannelAdmin@@2PBDB
?_PD_repoId@ProxyPushConsumer@CosNotifyChannelAdmin@@2PBDB
?_PD_repoId@ProxyPushSupplier@CosEventChannelAdmin@@2PBDB
?_PD_repoId@ProxyPushSupplier@CosNotifyChannelAdmin@@2PBDB
?_PD_repoId@ProxySupplier@CosNotifyChannelAdmin@@2PBDB
?_PD_repoId@PullConsumer@CosEventComm@@2PBDB
?_PD_repoId@PullConsumer@CosNotifyComm@@2PBDB
?_PD_repoId@PullSupplier@CosEventComm@@2PBDB
?_PD_repoId@PullSupplier@CosNotifyComm@@2PBDB
?_PD_repoId@PushConsumer@CosEventComm@@2PBDB
?_PD_repoId@PushConsumer@CosNotifyComm@@2PBDB
?_PD_repoId@PushSupplier@CosEventComm@@2PBDB
?_PD_repoId@PushSupplier@CosNotifyComm@@2PBDB
?_PD_repoId@QoSAdmin@CosNotification@@2PBDB
?_PD_repoId@SequenceProxyPullConsumer@CosNotifyChannelAdmin@@2PBDB
?_PD_repoId@SequenceProxyPullSupplier@CosNotifyChannelAdmin@@2PBDB
?_PD_repoId@SequenceProxyPushConsumer@CosNotifyChannelAdmin@@2PBDB
?_PD_repoId@SequenceProxyPushSupplier@CosNotifyChannelAdmin@@2PBDB
?_PD_repoId@SequencePullConsumer@CosNotifyComm@@2PBDB
?_PD_repoId@SequencePullSupplier@CosNotifyComm@@2PBDB
?_PD_repoId@SequencePushConsumer@CosNotifyComm@@2PBDB
?_PD_repoId@SequencePushSupplier@CosNotifyComm@@2PBDB
?_PD_repoId@StructuredProxyPullConsumer@CosNotifyChannelAdmin@@2PBDB
?_PD_repoId@StructuredProxyPullSupplier@CosNotifyChannelAdmin@@2PBDB
?_PD_repoId@StructuredProxyPushConsumer@CosNotifyChannelAdmin@@2PBDB
?_PD_repoId@StructuredProxyPushSupplier@CosNotifyChannelAdmin@@2PBDB
?_PD_repoId@StructuredPullConsumer@CosNotifyComm@@2PBDB
?_PD_repoId@StructuredPullSupplier@CosNotifyComm@@2PBDB
?_PD_repoId@StructuredPushConsumer@CosNotifyComm@@2PBDB
?_PD_repoId@StructuredPushSupplier@CosNotifyComm@@2PBDB
?_PD_repoId@SupplierAdmin@CosEventChannelAdmin@@2PBDB
?_PD_repoId@SupplierAdmin@CosNotifyChannelAdmin@@2PBDB
?_PD_repoId@TIO@CosTime@@2PBDB
?_PD_repoId@TimeService@CosTime@@2PBDB
?_PD_repoId@TimeUnavailable@CosTime@@2PBDB
?_PD_repoId@TypeError@CosEventChannelAdmin@@2PBDB
?_PD_repoId@UTO@CosTime@@2PBDB
?_PD_repoId@UnsupportedAdmin@CosNotification@@2PBDB
?_PD_repoId@UnsupportedFilterableData@CosNotifyFilter@@2PBDB
?_PD_repoId@UnsupportedQoS@CosNotification@@2PBDB
?_PD_typeId@AdminLimitExceeded@CosNotifyChannelAdmin@@2PBDB
?_PD_typeId@AdminNotFound@CosNotifyChannelAdmin@@2PBDB
?_PD_typeId@AlreadyConnected@CosEventChannelAdmin@@2PBDB
?_PD_typeId@CallbackNotFound@CosNotifyFilter@@2PBDB
?_PD_typeId@CannotMeetCriteria@CosLifeCycle@@2PBDB
?_PD_typeId@ChannelNotFound@CosNotifyChannelAdmin@@2PBDB
?_PD_typeId@ConnectionAlreadyActive@CosNotifyChannelAdmin@@2PBDB
?_PD_typeId@ConnectionAlreadyInactive@CosNotifyChannelAdmin@@2PBDB
?_PD_typeId@ConstraintNotFound@CosNotifyFilter@@2PBDB
?_PD_typeId@Disconnected@CosEventComm@@2PBDB
?_PD_typeId@DuplicateConstraintID@CosNotifyFilter@@2PBDB
?_PD_typeId@FilterNotFound@CosNotifyFilter@@2PBDB
?_PD_typeId@InvalidConstraint@CosNotifyFilter@@2PBDB
?_PD_typeId@InvalidCriteria@CosLifeCycle@@2PBDB
?_PD_typeId@InvalidEventType@CosNotifyComm@@2PBDB
?_PD_typeId@InvalidGrammar@CosNotifyFilter@@2PBDB
?_PD_typeId@InvalidValue@CosNotifyFilter@@2PBDB
?_PD_typeId@NoFactory@CosLifeCycle@@2PBDB
?_PD_typeId@NotConnected@CosNotifyChannelAdmin@@2PBDB
?_PD_typeId@NotCopyable@CosLifeCycle@@2PBDB
?_PD_typeId@NotMovable@CosLifeCycle@@2PBDB
?_PD_typeId@NotRemovable@CosLifeCycle@@2PBDB
?_PD_typeId@ProxyNotFound@CosNotifyChannelAdmin@@2PBDB
?_PD_typeId@TimeUnavailable@CosTime@@2PBDB
?_PD_typeId@TypeError@CosEventChannelAdmin@@2PBDB
?_PD_typeId@UnsupportedAdmin@CosNotification@@2PBDB
?_PD_typeId@UnsupportedFilterableData@CosNotifyFilter@@2PBDB
?_PD_typeId@UnsupportedQoS@CosNotification@@2PBDB
?_PR_getobj@Object@CORBA@@QAEPAVomniObjRef@@XZ
?_PR_is_valid@Object@CORBA@@SA_NPAV12@@Z
?_PR_setobj@Object@CORBA@@QAEXPAVomniObjRef@@@Z
?_add_ref@ServantBase@PortableServer@@$R47BA@PPPPPPPM@BA@AEXXZ
?_add_ref@ServantBase@PortableServer@@$R47BE@PPPPPPPM@BA@AEXXZ
?_add_ref@ServantBase@PortableServer@@$R47BI@PPPPPPPM@BA@AEXXZ
?_add_ref@ServantBase@PortableServer@@$R47BM@PPPPPPPM@BA@AEXXZ
?_add_ref@ServantBase@PortableServer@@$R47CA@PPPPPPPM@BA@AEXXZ
?_add_ref@ServantBase@PortableServer@@$R47CE@PPPPPPPM@BA@AEXXZ
?_add_ref@ServantBase@PortableServer@@$R47M@PPPPPPPM@BA@AEXXZ
?_dispatch@_impl_AdminPropertiesAdmin@CosNotification@@$4PPPPPPPM@A@AE_NAAVomniCallHandle@@@Z
?_dispatch@_impl_AdminPropertiesAdmin@CosNotification@@$R477PPPPPPPM@M@AE_NAAVomniCallHandle@@@Z
?_dispatch@_impl_AdminPropertiesAdmin@CosNotification@@UAE_NAAVomniCallHandle@@@Z
?_dispatch@_impl_ConsumerAdmin@CosEventChannelAdmin@@$4PPPPPPPM@A@AE_NAAVomniCallHandle@@@Z
?_dispatch@_impl_ConsumerAdmin@CosEventChannelAdmin@@$R477PPPPPPPM@M@AE_NAAVomniCallHandle@@@Z
?_dispatch@_impl_ConsumerAdmin@CosEventChannelAdmin@@UAE_NAAVomniCallHandle@@@Z
?_dispatch@_impl_ConsumerAdmin@CosNotifyChannelAdmin@@$4PPPPPPPM@A@AE_NAAVomniCallHandle@@@Z
?_dispatch@_impl_ConsumerAdmin@CosNotifyChannelAdmin@@$R47BI@PPPPPPPM@M@AE_NAAVomniCallHandle@@@Z
?_dispatch@_impl_ConsumerAdmin@CosNotifyChannelAdmin@@UAE_NAAVomniCallHandle@@@Z
?_dispatch@_impl_EventChannel@CosEventChannelAdmin@@$4PPPPPPPM@A@AE_NAAVomniCallHandle@@@Z
?_dispatch@_impl_EventChannel@CosEventChannelAdmin@@$R477PPPPPPPM@M@AE_NAAVomniCallHandle@@@Z
?_dispatch@_impl_EventChannel@CosEventChannelAdmin@@UAE_NAAVomniCallHandle@@@Z
?_dispatch@_impl_EventChannel@CosNotifyChannelAdmin@@$4PPPPPPPM@A@AE_NAAVomniCallHandle@@@Z
?_dispatch@_impl_EventChannel@CosNotifyChannelAdmin@@$R47BE@PPPPPPPM@M@AE_NAAVomniCallHandle@@@Z
?_dispatch@_impl_EventChannel@CosNotifyChannelAdmin@@UAE_NAAVomniCallHandle@@@Z
?_dispatch@_impl_EventChannelFactory@CosNotifyChannelAdmin@@$4PPPPPPPM@A@AE_NAAVomniCallHandle@@@Z
?_dispatch@_impl_EventChannelFactory@CosNotifyChannelAdmin@@$R477PPPPPPPM@M@AE_NAAVomniCallHandle@@@Z
?_dispatch@_impl_EventChannelFactory@CosNotifyChannelAdmin@@UAE_NAAVomniCallHandle@@@Z
?_dispatch@_impl_FactoryFinder@CosLifeCycle@@$4PPPPPPPM@A@AE_NAAVomniCallHandle@@@Z
?_dispatch@_impl_FactoryFinder@CosLifeCycle@@$R477PPPPPPPM@M@AE_NAAVomniCallHandle@@@Z
?_dispatch@_impl_FactoryFinder@CosLifeCycle@@UAE_NAAVomniCallHandle@@@Z
?_dispatch@_impl_Filter@CosNotifyFilter@@$4PPPPPPPM@A@AE_NAAVomniCallHandle@@@Z
?_dispatch@_impl_Filter@CosNotifyFilter@@$R477PPPPPPPM@M@AE_NAAVomniCallHandle@@@Z
?_dispatch@_impl_Filter@CosNotifyFilter@@UAE_NAAVomniCallHandle@@@Z
?_dispatch@_impl_FilterAdmin@CosNotifyFilter@@$4PPPPPPPM@A@AE_NAAVomniCallHandle@@@Z
?_dispatch@_impl_FilterAdmin@CosNotifyFilter@@$R477PPPPPPPM@M@AE_NAAVomniCallHandle@@@Z
?_dispatch@_impl_FilterAdmin@CosNotifyFilter@@UAE_NAAVomniCallHandle@@@Z
?_dispatch@_impl_FilterFactory@CosNotifyFilter@@$4PPPPPPPM@A@AE_NAAVomniCallHandle@@@Z
?_dispatch@_impl_FilterFactory@CosNotifyFilter@@$R477PPPPPPPM@M@AE_NAAVomniCallHandle@@@Z
?_dispatch@_impl_FilterFactory@CosNotifyFilter@@UAE_NAAVomniCallHandle@@@Z
?_dispatch@_impl_GenericFactory@CosLifeCycle@@$4PPPPPPPM@A@AE_NAAVomniCallHandle@@@Z
?_dispatch@_impl_GenericFactory@CosLifeCycle@@$R477PPPPPPPM@M@AE_NAAVomniCallHandle@@@Z
?_dispatch@_impl_GenericFactory@CosLifeCycle@@UAE_NAAVomniCallHandle@@@Z
?_dispatch@_impl_LifeCycleObject@CosLifeCycle@@$4PPPPPPPM@A@AE_NAAVomniCallHandle@@@Z
?_dispatch@_impl_LifeCycleObject@CosLifeCycle@@$R477PPPPPPPM@M@AE_NAAVomniCallHandle@@@Z
?_dispatch@_impl_LifeCycleObject@CosLifeCycle@@UAE_NAAVomniCallHandle@@@Z
?_dispatch@_impl_MappingFilter@CosNotifyFilter@@$4PPPPPPPM@A@AE_NAAVomniCallHandle@@@Z
?_dispatch@_impl_MappingFilter@CosNotifyFilter@@$R477PPPPPPPM@M@AE_NAAVomniCallHandle@@@Z
?_dispatch@_impl_MappingFilter@CosNotifyFilter@@UAE_NAAVomniCallHandle@@@Z
?_dispatch@_impl_NotifyPublish@CosNotifyComm@@$4PPPPPPPM@A@AE_NAAVomniCallHandle@@@Z
?_dispatch@_impl_NotifyPublish@CosNotifyComm@@$R477PPPPPPPM@M@AE_NAAVomniCallHandle@@@Z
?_dispatch@_impl_NotifyPublish@CosNotifyComm@@UAE_NAAVomniCallHandle@@@Z
?_dispatch@_impl_NotifySubscribe@CosNotifyComm@@$4PPPPPPPM@A@AE_NAAVomniCallHandle@@@Z
?_dispatch@_impl_NotifySubscribe@CosNotifyComm@@$R477PPPPPPPM@M@AE_NAAVomniCallHandle@@@Z
?_dispatch@_impl_NotifySubscribe@CosNotifyComm@@UAE_NAAVomniCallHandle@@@Z
?_dispatch@_impl_ProxyConsumer@CosNotifyChannelAdmin@@$4PPPPPPPM@A@AE_NAAVomniCallHandle@@@Z
?_dispatch@_impl_ProxyConsumer@CosNotifyChannelAdmin@@$R47BA@PPPPPPPM@M@AE_NAAVomniCallHandle@@@Z
?_dispatch@_impl_ProxyConsumer@CosNotifyChannelAdmin@@UAE_NAAVomniCallHandle@@@Z
?_dispatch@_impl_ProxyPullConsumer@CosEventChannelAdmin@@$4PPPPPPPM@A@AE_NAAVomniCallHandle@@@Z
?_dispatch@_impl_ProxyPullConsumer@CosEventChannelAdmin@@$R47M@PPPPPPPM@M@AE_NAAVomniCallHandle@@@Z
?_dispatch@_impl_ProxyPullConsumer@CosEventChannelAdmin@@UAE_NAAVomniCallHandle@@@Z
?_dispatch@_impl_ProxyPullConsumer@CosNotifyChannelAdmin@@$4PPPPPPPM@A@AE_NAAVomniCallHandle@@@Z
?_dispatch@_impl_ProxyPullConsumer@CosNotifyChannelAdmin@@$R47CA@PPPPPPPM@M@AE_NAAVomniCallHandle@@@Z
?_dispatch@_impl_ProxyPullConsumer@CosNotifyChannelAdmin@@UAE_NAAVomniCallHandle@@@Z
?_dispatch@_impl_ProxyPullSupplier@CosEventChannelAdmin@@$4PPPPPPPM@A@AE_NAAVomniCallHandle@@@Z
?_dispatch@_impl_ProxyPullSupplier@CosEventChannelAdmin@@$R47M@PPPPPPPM@M@AE_NAAVomniCallHandle@@@Z
?_dispatch@_impl_ProxyPullSupplier@CosEventChannelAdmin@@UAE_NAAVomniCallHandle@@@Z
?_dispatch@_impl_ProxyPullSupplier@CosNotifyChannelAdmin@@$4PPPPPPPM@A@AE_NAAVomniCallHandle@@@Z
?_dispatch@_impl_ProxyPullSupplier@CosNotifyChannelAdmin@@$R47CA@PPPPPPPM@M@AE_NAAVomniCallHandle@@@Z
?_dispatch@_impl_ProxyPullSupplier@CosNotifyChannelAdmin@@UAE_NAAVomniCallHandle@@@Z
?_dispatch@_impl_ProxyPushConsumer@CosEventChannelAdmin@@$4PPPPPPPM@A@AE_NAAVomniCallHandle@@@Z
?_dispatch@_impl_ProxyPushConsumer@CosEventChannelAdmin@@$R47M@PPPPPPPM@M@AE_NAAVomniCallHandle@@@Z
?_dispatch@_impl_ProxyPushConsumer@CosEventChannelAdmin@@UAE_NAAVomniCallHandle@@@Z
?_dispatch@_impl_ProxyPushConsumer@CosNotifyChannelAdmin@@$4PPPPPPPM@A@AE_NAAVomniCallHandle@@@Z
?_dispatch@_impl_ProxyPushConsumer@CosNotifyChannelAdmin@@$R47CA@PPPPPPPM@M@AE_NAAVomniCallHandle@@@Z
?_dispatch@_impl_ProxyPushConsumer@CosNotifyChannelAdmin@@UAE_NAAVomniCallHandle@@@Z
?_dispatch@_impl_ProxyPushSupplier@CosEventChannelAdmin@@$4PPPPPPPM@A@AE_NAAVomniCallHandle@@@Z
?_dispatch@_impl_ProxyPushSupplier@CosEventChannelAdmin@@$R47M@PPPPPPPM@M@AE_NAAVomniCallHandle@@@Z
?_dispatch@_impl_ProxyPushSupplier@CosEventChannelAdmin@@UAE_NAAVomniCallHandle@@@Z
?_dispatch@_impl_ProxyPushSupplier@CosNotifyChannelAdmin@@$4PPPPPPPM@A@AE_NAAVomniCallHandle@@@Z
?_dispatch@_impl_ProxyPushSupplier@CosNotifyChannelAdmin@@$R47CA@PPPPPPPM@M@AE_NAAVomniCallHandle@@@Z
?_dispatch@_impl_ProxyPushSupplier@CosNotifyChannelAdmin@@UAE_NAAVomniCallHandle@@@Z
?_dispatch@_impl_ProxySupplier@CosNotifyChannelAdmin@@$4PPPPPPPM@A@AE_NAAVomniCallHandle@@@Z
?_dispatch@_impl_ProxySupplier@CosNotifyChannelAdmin@@$R47BA@PPPPPPPM@M@AE_NAAVomniCallHandle@@@Z
?_dispatch@_impl_ProxySupplier@CosNotifyChannelAdmin@@UAE_NAAVomniCallHandle@@@Z
?_dispatch@_impl_PullConsumer@CosEventComm@@$4PPPPPPPM@A@AE_NAAVomniCallHandle@@@Z
?_dispatch@_impl_PullConsumer@CosEventComm@@$R477PPPPPPPM@M@AE_NAAVomniCallHandle@@@Z
?_dispatch@_impl_PullConsumer@CosEventComm@@UAE_NAAVomniCallHandle@@@Z
?_dispatch@_impl_PullConsumer@CosNotifyComm@@$4PPPPPPPM@A@AE_NAAVomniCallHandle@@@Z
?_dispatch@_impl_PullConsumer@CosNotifyComm@@$R47BA@PPPPPPPM@7AE_NAAVomniCallHandle@@@Z
?_dispatch@_impl_PullConsumer@CosNotifyComm@@UAE_NAAVomniCallHandle@@@Z
?_dispatch@_impl_PullSupplier@CosEventComm@@$4PPPPPPPM@A@AE_NAAVomniCallHandle@@@Z
?_dispatch@_impl_PullSupplier@CosEventComm@@$R477PPPPPPPM@M@AE_NAAVomniCallHandle@@@Z
?_dispatch@_impl_PullSupplier@CosEventComm@@UAE_NAAVomniCallHandle@@@Z
?_dispatch@_impl_PullSupplier@CosNotifyComm@@$4PPPPPPPM@A@AE_NAAVomniCallHandle@@@Z
?_dispatch@_impl_PullSupplier@CosNotifyComm@@$R47BA@PPPPPPPM@7AE_NAAVomniCallHandle@@@Z
?_dispatch@_impl_PullSupplier@CosNotifyComm@@UAE_NAAVomniCallHandle@@@Z
?_dispatch@_impl_PushConsumer@CosEventComm@@$4PPPPPPPM@A@AE_NAAVomniCallHandle@@@Z
?_dispatch@_impl_PushConsumer@CosEventComm@@$R477PPPPPPPM@M@AE_NAAVomniCallHandle@@@Z
?_dispatch@_impl_PushConsumer@CosEventComm@@UAE_NAAVomniCallHandle@@@Z
?_dispatch@_impl_PushConsumer@CosNotifyComm@@$4PPPPPPPM@A@AE_NAAVomniCallHandle@@@Z
?_dispatch@_impl_PushConsumer@CosNotifyComm@@$R47BA@PPPPPPPM@7AE_NAAVomniCallHandle@@@Z
?_dispatch@_impl_PushConsumer@CosNotifyComm@@UAE_NAAVomniCallHandle@@@Z
?_dispatch@_impl_PushSupplier@CosEventComm@@$4PPPPPPPM@A@AE_NAAVomniCallHandle@@@Z
?_dispatch@_impl_PushSupplier@CosEventComm@@$R477PPPPPPPM@M@AE_NAAVomniCallHandle@@@Z
?_dispatch@_impl_PushSupplier@CosEventComm@@UAE_NAAVomniCallHandle@@@Z
?_dispatch@_impl_PushSupplier@CosNotifyComm@@$4PPPPPPPM@A@AE_NAAVomniCallHandle@@@Z
?_dispatch@_impl_PushSupplier@CosNotifyComm@@$R47BA@PPPPPPPM@7AE_NAAVomniCallHandle@@@Z
?_dispatch@_impl_PushSupplier@CosNotifyComm@@UAE_NAAVomniCallHandle@@@Z
?_dispatch@_impl_QoSAdmin@CosNotification@@$4PPPPPPPM@A@AE_NAAVomniCallHandle@@@Z
?_dispatch@_impl_QoSAdmin@CosNotification@@$R477PPPPPPPM@M@AE_NAAVomniCallHandle@@@Z
?_dispatch@_impl_QoSAdmin@CosNotification@@UAE_NAAVomniCallHandle@@@Z
?_dispatch@_impl_SequenceProxyPullConsumer@CosNotifyChannelAdmin@@$4PPPPPPPM@A@AE_NAAVomniCallHandle@@@Z
?_dispatch@_impl_SequenceProxyPullConsumer@CosNotifyChannelAdmin@@$R47BM@PPPPPPPM@M@AE_NAAVomniCallHandle@@@Z
?_dispatch@_impl_SequenceProxyPullConsumer@CosNotifyChannelAdmin@@UAE_NAAVomniCallHandle@@@Z
?_dispatch@_impl_SequenceProxyPullSupplier@CosNotifyChannelAdmin@@$4PPPPPPPM@A@AE_NAAVomniCallHandle@@@Z
?_dispatch@_impl_SequenceProxyPullSupplier@CosNotifyChannelAdmin@@$R47BM@PPPPPPPM@M@AE_NAAVomniCallHandle@@@Z
?_dispatch@_impl_SequenceProxyPullSupplier@CosNotifyChannelAdmin@@UAE_NAAVomniCallHandle@@@Z
?_dispatch@_impl_SequenceProxyPushConsumer@CosNotifyChannelAdmin@@$4PPPPPPPM@A@AE_NAAVomniCallHandle@@@Z
?_dispatch@_impl_SequenceProxyPushConsumer@CosNotifyChannelAdmin@@$R47BM@PPPPPPPM@M@AE_NAAVomniCallHandle@@@Z
?_dispatch@_impl_SequenceProxyPushConsumer@CosNotifyChannelAdmin@@UAE_NAAVomniCallHandle@@@Z
?_dispatch@_impl_SequenceProxyPushSupplier@CosNotifyChannelAdmin@@$4PPPPPPPM@A@AE_NAAVomniCallHandle@@@Z
?_dispatch@_impl_SequenceProxyPushSupplier@CosNotifyChannelAdmin@@$R47BM@PPPPPPPM@M@AE_NAAVomniCallHandle@@@Z
?_dispatch@_impl_SequenceProxyPushSupplier@CosNotifyChannelAdmin@@UAE_NAAVomniCallHandle@@@Z
?_dispatch@_impl_SequencePullConsumer@CosNotifyComm@@$4PPPPPPPM@A@AE_NAAVomniCallHandle@@@Z
?_dispatch@_impl_SequencePullConsumer@CosNotifyComm@@$R47M@PPPPPPPM@M@AE_NAAVomniCallHandle@@@Z
?_dispatch@_impl_SequencePullConsumer@CosNotifyComm@@UAE_NAAVomniCallHandle@@@Z
?_dispatch@_impl_SequencePullSupplier@CosNotifyComm@@$4PPPPPPPM@A@AE_NAAVomniCallHandle@@@Z
?_dispatch@_impl_SequencePullSupplier@CosNotifyComm@@$R47M@PPPPPPPM@M@AE_NAAVomniCallHandle@@@Z
?_dispatch@_impl_SequencePullSupplier@CosNotifyComm@@UAE_NAAVomniCallHandle@@@Z
?_dispatch@_impl_SequencePushConsumer@CosNotifyComm@@$4PPPPPPPM@A@AE_NAAVomniCallHandle@@@Z
?_dispatch@_impl_SequencePushConsumer@CosNotifyComm@@$R47M@PPPPPPPM@M@AE_NAAVomniCallHandle@@@Z
?_dispatch@_impl_SequencePushConsumer@CosNotifyComm@@UAE_NAAVomniCallHandle@@@Z
?_dispatch@_impl_SequencePushSupplier@CosNotifyComm@@$4PPPPPPPM@A@AE_NAAVomniCallHandle@@@Z
?_dispatch@_impl_SequencePushSupplier@CosNotifyComm@@$R47M@PPPPPPPM@M@AE_NAAVomniCallHandle@@@Z
?_dispatch@_impl_SequencePushSupplier@CosNotifyComm@@UAE_NAAVomniCallHandle@@@Z
?_dispatch@_impl_StructuredProxyPullConsumer@CosNotifyChannelAdmin@@$4PPPPPPPM@A@AE_NAAVomniCallHandle@@@Z
?_dispatch@_impl_StructuredProxyPullConsumer@CosNotifyChannelAdmin@@$R47BM@PPPPPPPM@M@AE_NAAVomniCallHandle@@@Z
?_dispatch@_impl_StructuredProxyPullConsumer@CosNotifyChannelAdmin@@UAE_NAAVomniCallHandle@@@Z
?_dispatch@_impl_StructuredProxyPullSupplier@CosNotifyChannelAdmin@@$4PPPPPPPM@A@AE_NAAVomniCallHandle@@@Z
?_dispatch@_impl_StructuredProxyPullSupplier@CosNotifyChannelAdmin@@$R47BM@PPPPPPPM@M@AE_NAAVomniCallHandle@@@Z
?_dispatch@_impl_StructuredProxyPullSupplier@CosNotifyChannelAdmin@@UAE_NAAVomniCallHandle@@@Z
?_dispatch@_impl_StructuredProxyPushConsumer@CosNotifyChannelAdmin@@$4PPPPPPPM@A@AE_NAAVomniCallHandle@@@Z
?_dispatch@_impl_StructuredProxyPushConsumer@CosNotifyChannelAdmin@@$R47BM@PPPPPPPM@M@AE_NAAVomniCallHandle@@@Z
?_dispatch@_impl_StructuredProxyPushConsumer@CosNotifyChannelAdmin@@UAE_NAAVomniCallHandle@@@Z
?_dispatch@_impl_StructuredProxyPushSupplier@CosNotifyChannelAdmin@@$4PPPPPPPM@A@AE_NAAVomniCallHandle@@@Z
?_dispatch@_impl_StructuredProxyPushSupplier@CosNotifyChannelAdmin@@$R47BM@PPPPPPPM@M@AE_NAAVomniCallHandle@@@Z
?_dispatch@_impl_StructuredProxyPushSupplier@CosNotifyChannelAdmin@@UAE_NAAVomniCallHandle@@@Z
?_dispatch@_impl_StructuredPullConsumer@CosNotifyComm@@$4PPPPPPPM@A@AE_NAAVomniCallHandle@@@Z
?_dispatch@_impl_StructuredPullConsumer@CosNotifyComm@@$R47M@PPPPPPPM@M@AE_NAAVomniCallHandle@@@Z
?_dispatch@_impl_StructuredPullConsumer@CosNotifyComm@@UAE_NAAVomniCallHandle@@@Z
?_dispatch@_impl_StructuredPullSupplier@CosNotifyComm@@$4PPPPPPPM@A@AE_NAAVomniCallHandle@@@Z
?_dispatch@_impl_StructuredPullSupplier@CosNotifyComm@@$R47M@PPPPPPPM@M@AE_NAAVomniCallHandle@@@Z
?_dispatch@_impl_StructuredPullSupplier@CosNotifyComm@@UAE_NAAVomniCallHandle@@@Z
?_dispatch@_impl_StructuredPushConsumer@CosNotifyComm@@$4PPPPPPPM@A@AE_NAAVomniCallHandle@@@Z
?_dispatch@_impl_StructuredPushConsumer@CosNotifyComm@@$R47M@PPPPPPPM@M@AE_NAAVomniCallHandle@@@Z
?_dispatch@_impl_StructuredPushConsumer@CosNotifyComm@@UAE_NAAVomniCallHandle@@@Z
?_dispatch@_impl_StructuredPushSupplier@CosNotifyComm@@$4PPPPPPPM@A@AE_NAAVomniCallHandle@@@Z
?_dispatch@_impl_StructuredPushSupplier@CosNotifyComm@@$R47M@PPPPPPPM@M@AE_NAAVomniCallHandle@@@Z
?_dispatch@_impl_StructuredPushSupplier@CosNotifyComm@@UAE_NAAVomniCallHandle@@@Z
?_dispatch@_impl_SupplierAdmin@CosEventChannelAdmin@@$4PPPPPPPM@A@AE_NAAVomniCallHandle@@@Z
?_dispatch@_impl_SupplierAdmin@CosEventChannelAdmin@@$R477PPPPPPPM@M@AE_NAAVomniCallHandle@@@Z
?_dispatch@_impl_SupplierAdmin@CosEventChannelAdmin@@UAE_NAAVomniCallHandle@@@Z
?_dispatch@_impl_SupplierAdmin@CosNotifyChannelAdmin@@$4PPPPPPPM@A@AE_NAAVomniCallHandle@@@Z
?_dispatch@_impl_SupplierAdmin@CosNotifyChannelAdmin@@$R47BI@PPPPPPPM@M@AE_NAAVomniCallHandle@@@Z
?_dispatch@_impl_SupplierAdmin@CosNotifyChannelAdmin@@UAE_NAAVomniCallHandle@@@Z
?_dispatch@_impl_TIO@CosTime@@$4PPPPPPPM@A@AE_NAAVomniCallHandle@@@Z
?_dispatch@_impl_TIO@CosTime@@$R477PPPPPPPM@M@AE_NAAVomniCallHandle@@@Z
?_dispatch@_impl_TIO@CosTime@@UAE_NAAVomniCallHandle@@@Z
?_dispatch@_impl_TimeService@CosTime@@$4PPPPPPPM@A@AE_NAAVomniCallHandle@@@Z
?_dispatch@_impl_TimeService@CosTime@@$R477PPPPPPPM@M@AE_NAAVomniCallHandle@@@Z
?_dispatch@_impl_TimeService@CosTime@@UAE_NAAVomniCallHandle@@@Z
?_dispatch@_impl_UTO@CosTime@@$4PPPPPPPM@A@AE_NAAVomniCallHandle@@@Z
?_dispatch@_impl_UTO@CosTime@@$R477PPPPPPPM@M@AE_NAAVomniCallHandle@@@Z
?_dispatch@_impl_UTO@CosTime@@UAE_NAAVomniCallHandle@@@Z
?_do_get_interface@ServantBase@PortableServer@@$R07BA@PPPPPPPM@BA@AEPAVomniObjRef@@XZ
?_do_get_interface@ServantBase@PortableServer@@$R07BE@PPPPPPPM@BA@AEPAVomniObjRef@@XZ
?_do_get_interface@ServantBase@PortableServer@@$R07BI@PPPPPPPM@BA@AEPAVomniObjRef@@XZ
?_do_get_interface@ServantBase@PortableServer@@$R07BM@PPPPPPPM@BA@AEPAVomniObjRef@@XZ
?_do_get_interface@ServantBase@PortableServer@@$R07CA@PPPPPPPM@BA@AEPAVomniObjRef@@XZ
?_do_get_interface@ServantBase@PortableServer@@$R07CE@PPPPPPPM@BA@AEPAVomniObjRef@@XZ
?_do_get_interface@ServantBase@PortableServer@@$R07M@PPPPPPPM@BA@AEPAVomniObjRef@@XZ
?_downcast@AdminLimitExceeded@CosNotifyChannelAdmin@@SAPAV12@PAVException@CORBA@@@Z
?_downcast@AdminLimitExceeded@CosNotifyChannelAdmin@@SAPBV12@PBVException@CORBA@@@Z
?_downcast@AdminNotFound@CosNotifyChannelAdmin@@SAPAV12@PAVException@CORBA@@@Z
?_downcast@AdminNotFound@CosNotifyChannelAdmin@@SAPBV12@PBVException@CORBA@@@Z
?_downcast@AlreadyConnected@CosEventChannelAdmin@@SAPAV12@PAVException@CORBA@@@Z
?_downcast@AlreadyConnected@CosEventChannelAdmin@@SAPBV12@PBVException@CORBA@@@Z
?_downcast@CallbackNotFound@CosNotifyFilter@@SAPAV12@PAVException@CORBA@@@Z
?_downcast@CallbackNotFound@CosNotifyFilter@@SAPBV12@PBVException@CORBA@@@Z
?_downcast@CannotMeetCriteria@CosLifeCycle@@SAPAV12@PAVException@CORBA@@@Z
?_downcast@CannotMeetCriteria@CosLifeCycle@@SAPBV12@PBVException@CORBA@@@Z
?_downcast@ChannelNotFound@CosNotifyChannelAdmin@@SAPAV12@PAVException@CORBA@@@Z
?_downcast@ChannelNotFound@CosNotifyChannelAdmin@@SAPBV12@PBVException@CORBA@@@Z
?_downcast@ConnectionAlreadyActive@CosNotifyChannelAdmin@@SAPAV12@PAVException@CORBA@@@Z
?_downcast@ConnectionAlreadyActive@CosNotifyChannelAdmin@@SAPBV12@PBVException@CORBA@@@Z
?_downcast@ConnectionAlreadyInactive@CosNotifyChannelAdmin@@SAPAV12@PAVException@CORBA@@@Z
?_downcast@ConnectionAlreadyInactive@CosNotifyChannelAdmin@@SAPBV12@PBVException@CORBA@@@Z
?_downcast@ConstraintNotFound@CosNotifyFilter@@SAPAV12@PAVException@CORBA@@@Z
?_downcast@ConstraintNotFound@CosNotifyFilter@@SAPBV12@PBVException@CORBA@@@Z
?_downcast@Disconnected@CosEventComm@@SAPAV12@PAVException@CORBA@@@Z
?_downcast@Disconnected@CosEventComm@@SAPBV12@PBVException@CORBA@@@Z
?_downcast@DuplicateConstraintID@CosNotifyFilter@@SAPAV12@PAVException@CORBA@@@Z
?_downcast@DuplicateConstraintID@CosNotifyFilter@@SAPBV12@PBVException@CORBA@@@Z
?_downcast@FilterNotFound@CosNotifyFilter@@SAPAV12@PAVException@CORBA@@@Z
?_downcast@FilterNotFound@CosNotifyFilter@@SAPBV12@PBVException@CORBA@@@Z
?_downcast@InvalidConstraint@CosNotifyFilter@@SAPAV12@PAVException@CORBA@@@Z
?_downcast@InvalidConstraint@CosNotifyFilter@@SAPBV12@PBVException@CORBA@@@Z
?_downcast@InvalidCriteria@CosLifeCycle@@SAPAV12@PAVException@CORBA@@@Z
?_downcast@InvalidCriteria@CosLifeCycle@@SAPBV12@PBVException@CORBA@@@Z
?_downcast@InvalidEventType@CosNotifyComm@@SAPAV12@PAVException@CORBA@@@Z
?_downcast@InvalidEventType@CosNotifyComm@@SAPBV12@PBVException@CORBA@@@Z
?_downcast@InvalidGrammar@CosNotifyFilter@@SAPAV12@PAVException@CORBA@@@Z
?_downcast@InvalidGrammar@CosNotifyFilter@@SAPBV12@PBVException@CORBA@@@Z
?_downcast@InvalidValue@CosNotifyFilter@@SAPAV12@PAVException@CORBA@@@Z
?_downcast@InvalidValue@CosNotifyFilter@@SAPBV12@PBVException@CORBA@@@Z
?_downcast@NoFactory@CosLifeCycle@@SAPAV12@PAVException@CORBA@@@Z
?_downcast@NoFactory@CosLifeCycle@@SAPBV12@PBVException@CORBA@@@Z
?_downcast@NotConnected@CosNotifyChannelAdmin@@SAPAV12@PAVException@CORBA@@@Z
?_downcast@NotConnected@CosNotifyChannelAdmin@@SAPBV12@PBVException@CORBA@@@Z
?_downcast@NotCopyable@CosLifeCycle@@SAPAV12@PAVException@CORBA@@@Z
?_downcast@NotCopyable@CosLifeCycle@@SAPBV12@PBVException@CORBA@@@Z
?_downcast@NotMovable@CosLifeCycle@@SAPAV12@PAVException@CORBA@@@Z
?_downcast@NotMovable@CosLifeCycle@@SAPBV12@PBVException@CORBA@@@Z
?_downcast@NotRemovable@CosLifeCycle@@SAPAV12@PAVException@CORBA@@@Z
?_downcast@NotRemovable@CosLifeCycle@@SAPBV12@PBVException@CORBA@@@Z
?_downcast@ProxyNotFound@CosNotifyChannelAdmin@@SAPAV12@PAVException@CORBA@@@Z
?_downcast@ProxyNotFound@CosNotifyChannelAdmin@@SAPBV12@PBVException@CORBA@@@Z
?_downcast@ServantBase@PortableServer@@$R07BA@PPPPPPPM@BA@AEPAXXZ
?_downcast@ServantBase@PortableServer@@$R07BE@PPPPPPPM@BA@AEPAXXZ
?_downcast@ServantBase@PortableServer@@$R07BI@PPPPPPPM@BA@AEPAXXZ
?_downcast@ServantBase@PortableServer@@$R07BM@PPPPPPPM@BA@AEPAXXZ
?_downcast@ServantBase@PortableServer@@$R07CA@PPPPPPPM@BA@AEPAXXZ
?_downcast@ServantBase@PortableServer@@$R07CE@PPPPPPPM@BA@AEPAXXZ
?_downcast@ServantBase@PortableServer@@$R07M@PPPPPPPM@BA@AEPAXXZ
?_downcast@TimeUnavailable@CosTime@@SAPAV12@PAVException@CORBA@@@Z
?_downcast@TimeUnavailable@CosTime@@SAPBV12@PBVException@CORBA@@@Z
?_downcast@TypeError@CosEventChannelAdmin@@SAPAV12@PAVException@CORBA@@@Z
?_downcast@TypeError@CosEventChannelAdmin@@SAPBV12@PBVException@CORBA@@@Z
?_downcast@UnsupportedAdmin@CosNotification@@SAPAV12@PAVException@CORBA@@@Z
?_downcast@UnsupportedAdmin@CosNotification@@SAPBV12@PBVException@CORBA@@@Z
?_downcast@UnsupportedFilterableData@CosNotifyFilter@@SAPAV12@PAVException@CORBA@@@Z
?_downcast@UnsupportedFilterableData@CosNotifyFilter@@SAPBV12@PBVException@CORBA@@@Z
?_downcast@UnsupportedQoS@CosNotification@@SAPAV12@PAVException@CORBA@@@Z
?_downcast@UnsupportedQoS@CosNotification@@SAPBV12@PBVException@CORBA@@@Z
?_duplicate@AdminPropertiesAdmin@CosNotification@@SAPAV_objref_AdminPropertiesAdmin@2@PAV32@@Z
?_duplicate@ConsumerAdmin@CosEventChannelAdmin@@SAPAV_objref_ConsumerAdmin@2@PAV32@@Z
?_duplicate@ConsumerAdmin@CosNotifyChannelAdmin@@SAPAV_objref_ConsumerAdmin@2@PAV32@@Z
?_duplicate@EventChannel@CosEventChannelAdmin@@SAPAV_objref_EventChannel@2@PAV32@@Z
?_duplicate@EventChannel@CosNotifyChannelAdmin@@SAPAV_objref_EventChannel@2@PAV32@@Z
?_duplicate@EventChannelFactory@CosNotifyChannelAdmin@@SAPAV_objref_EventChannelFactory@2@PAV32@@Z
?_duplicate@FactoryFinder@CosLifeCycle@@SAPAV_objref_FactoryFinder@2@PAV32@@Z
?_duplicate@Filter@CosNotifyFilter@@SAPAV_objref_Filter@2@PAV32@@Z
?_duplicate@FilterAdmin@CosNotifyFilter@@SAPAV_objref_FilterAdmin@2@PAV32@@Z
?_duplicate@FilterFactory@CosNotifyFilter@@SAPAV_objref_FilterFactory@2@PAV32@@Z
?_duplicate@GenericFactory@CosLifeCycle@@SAPAV_objref_GenericFactory@2@PAV32@@Z
?_duplicate@LifeCycleObject@CosLifeCycle@@SAPAV_objref_LifeCycleObject@2@PAV32@@Z
?_duplicate@MappingFilter@CosNotifyFilter@@SAPAV_objref_MappingFilter@2@PAV32@@Z
?_duplicate@NotifyPublish@CosNotifyComm@@SAPAV_objref_NotifyPublish@2@PAV32@@Z
?_duplicate@NotifySubscribe@CosNotifyComm@@SAPAV_objref_NotifySubscribe@2@PAV32@@Z
?_duplicate@ProxyConsumer@CosNotifyChannelAdmin@@SAPAV_objref_ProxyConsumer@2@PAV32@@Z
?_duplicate@ProxyPullConsumer@CosEventChannelAdmin@@SAPAV_objref_ProxyPullConsumer@2@PAV32@@Z
?_duplicate@ProxyPullConsumer@CosNotifyChannelAdmin@@SAPAV_objref_ProxyPullConsumer@2@PAV32@@Z
?_duplicate@ProxyPullSupplier@CosEventChannelAdmin@@SAPAV_objref_ProxyPullSupplier@2@PAV32@@Z
?_duplicate@ProxyPullSupplier@CosNotifyChannelAdmin@@SAPAV_objref_ProxyPullSupplier@2@PAV32@@Z
?_duplicate@ProxyPushConsumer@CosEventChannelAdmin@@SAPAV_objref_ProxyPushConsumer@2@PAV32@@Z
?_duplicate@ProxyPushConsumer@CosNotifyChannelAdmin@@SAPAV_objref_ProxyPushConsumer@2@PAV32@@Z
?_duplicate@ProxyPushSupplier@CosEventChannelAdmin@@SAPAV_objref_ProxyPushSupplier@2@PAV32@@Z
?_duplicate@ProxyPushSupplier@CosNotifyChannelAdmin@@SAPAV_objref_ProxyPushSupplier@2@PAV32@@Z
?_duplicate@ProxySupplier@CosNotifyChannelAdmin@@SAPAV_objref_ProxySupplier@2@PAV32@@Z
?_duplicate@PullConsumer@CosEventComm@@SAPAV_objref_PullConsumer@2@PAV32@@Z
?_duplicate@PullConsumer@CosNotifyComm@@SAPAV_objref_PullConsumer@2@PAV32@@Z
?_duplicate@PullSupplier@CosEventComm@@SAPAV_objref_PullSupplier@2@PAV32@@Z
?_duplicate@PullSupplier@CosNotifyComm@@SAPAV_objref_PullSupplier@2@PAV32@@Z
?_duplicate@PushConsumer@CosEventComm@@SAPAV_objref_PushConsumer@2@PAV32@@Z
?_duplicate@PushConsumer@CosNotifyComm@@SAPAV_objref_PushConsumer@2@PAV32@@Z
?_duplicate@PushSupplier@CosEventComm@@SAPAV_objref_PushSupplier@2@PAV32@@Z
?_duplicate@PushSupplier@CosNotifyComm@@SAPAV_objref_PushSupplier@2@PAV32@@Z
?_duplicate@QoSAdmin@CosNotification@@SAPAV_objref_QoSAdmin@2@PAV32@@Z
?_duplicate@SequenceProxyPullConsumer@CosNotifyChannelAdmin@@SAPAV_objref_SequenceProxyPullConsumer@2@PAV32@@Z
?_duplicate@SequenceProxyPullSupplier@CosNotifyChannelAdmin@@SAPAV_objref_SequenceProxyPullSupplier@2@PAV32@@Z
?_duplicate@SequenceProxyPushConsumer@CosNotifyChannelAdmin@@SAPAV_objref_SequenceProxyPushConsumer@2@PAV32@@Z
?_duplicate@SequenceProxyPushSupplier@CosNotifyChannelAdmin@@SAPAV_objref_SequenceProxyPushSupplier@2@PAV32@@Z
?_duplicate@SequencePullConsumer@CosNotifyComm@@SAPAV_objref_SequencePullConsumer@2@PAV32@@Z
?_duplicate@SequencePullSupplier@CosNotifyComm@@SAPAV_objref_SequencePullSupplier@2@PAV32@@Z
?_duplicate@SequencePushConsumer@CosNotifyComm@@SAPAV_objref_SequencePushConsumer@2@PAV32@@Z
?_duplicate@SequencePushSupplier@CosNotifyComm@@SAPAV_objref_SequencePushSupplier@2@PAV32@@Z
?_duplicate@StructuredProxyPullConsumer@CosNotifyChannelAdmin@@SAPAV_objref_StructuredProxyPullConsumer@2@PAV32@@Z
?_duplicate@StructuredProxyPullSupplier@CosNotifyChannelAdmin@@SAPAV_objref_StructuredProxyPullSupplier@2@PAV32@@Z
?_duplicate@StructuredProxyPushConsumer@CosNotifyChannelAdmin@@SAPAV_objref_StructuredProxyPushConsumer@2@PAV32@@Z
?_duplicate@StructuredProxyPushSupplier@CosNotifyChannelAdmin@@SAPAV_objref_StructuredProxyPushSupplier@2@PAV32@@Z
?_duplicate@StructuredPullConsumer@CosNotifyComm@@SAPAV_objref_StructuredPullConsumer@2@PAV32@@Z
?_duplicate@StructuredPullSupplier@CosNotifyComm@@SAPAV_objref_StructuredPullSupplier@2@PAV32@@Z
?_duplicate@StructuredPushConsumer@CosNotifyComm@@SAPAV_objref_StructuredPushConsumer@2@PAV32@@Z
?_duplicate@StructuredPushSupplier@CosNotifyComm@@SAPAV_objref_StructuredPushSupplier@2@PAV32@@Z
?_duplicate@SupplierAdmin@CosEventChannelAdmin@@SAPAV_objref_SupplierAdmin@2@PAV32@@Z
?_duplicate@SupplierAdmin@CosNotifyChannelAdmin@@SAPAV_objref_SupplierAdmin@2@PAV32@@Z
?_duplicate@TIO@CosTime@@SAPAV_objref_TIO@2@PAV32@@Z
?_duplicate@TimeService@CosTime@@SAPAV_objref_TimeService@2@PAV32@@Z
?_duplicate@UTO@CosTime@@SAPAV_objref_UTO@2@PAV32@@Z
?_marshalObjRef@AdminPropertiesAdmin@CosNotification@@SAXPAV_objref_AdminPropertiesAdmin@2@AAVcdrStream@@@Z
?_marshalObjRef@ConsumerAdmin@CosEventChannelAdmin@@SAXPAV_objref_ConsumerAdmin@2@AAVcdrStream@@@Z
?_marshalObjRef@ConsumerAdmin@CosNotifyChannelAdmin@@SAXPAV_objref_ConsumerAdmin@2@AAVcdrStream@@@Z
?_marshalObjRef@EventChannel@CosEventChannelAdmin@@SAXPAV_objref_EventChannel@2@AAVcdrStream@@@Z
?_marshalObjRef@EventChannel@CosNotifyChannelAdmin@@SAXPAV_objref_EventChannel@2@AAVcdrStream@@@Z
?_marshalObjRef@EventChannelFactory@CosNotifyChannelAdmin@@SAXPAV_objref_EventChannelFactory@2@AAVcdrStream@@@Z
?_marshalObjRef@FactoryFinder@CosLifeCycle@@SAXPAV_objref_FactoryFinder@2@AAVcdrStream@@@Z
?_marshalObjRef@Filter@CosNotifyFilter@@SAXPAV_objref_Filter@2@AAVcdrStream@@@Z
?_marshalObjRef@FilterAdmin@CosNotifyFilter@@SAXPAV_objref_FilterAdmin@2@AAVcdrStream@@@Z
?_marshalObjRef@FilterFactory@CosNotifyFilter@@SAXPAV_objref_FilterFactory@2@AAVcdrStream@@@Z
?_marshalObjRef@GenericFactory@CosLifeCycle@@SAXPAV_objref_GenericFactory@2@AAVcdrStream@@@Z
?_marshalObjRef@LifeCycleObject@CosLifeCycle@@SAXPAV_objref_LifeCycleObject@2@AAVcdrStream@@@Z
?_marshalObjRef@MappingFilter@CosNotifyFilter@@SAXPAV_objref_MappingFilter@2@AAVcdrStream@@@Z
?_marshalObjRef@NotifyPublish@CosNotifyComm@@SAXPAV_objref_NotifyPublish@2@AAVcdrStream@@@Z
?_marshalObjRef@NotifySubscribe@CosNotifyComm@@SAXPAV_objref_NotifySubscribe@2@AAVcdrStream@@@Z
?_marshalObjRef@ProxyConsumer@CosNotifyChannelAdmin@@SAXPAV_objref_ProxyConsumer@2@AAVcdrStream@@@Z
?_marshalObjRef@ProxyPullConsumer@CosEventChannelAdmin@@SAXPAV_objref_ProxyPullConsumer@2@AAVcdrStream@@@Z
?_marshalObjRef@ProxyPullConsumer@CosNotifyChannelAdmin@@SAXPAV_objref_ProxyPullConsumer@2@AAVcdrStream@@@Z
?_marshalObjRef@ProxyPullSupplier@CosEventChannelAdmin@@SAXPAV_objref_ProxyPullSupplier@2@AAVcdrStream@@@Z
?_marshalObjRef@ProxyPullSupplier@CosNotifyChannelAdmin@@SAXPAV_objref_ProxyPullSupplier@2@AAVcdrStream@@@Z
?_marshalObjRef@ProxyPushConsumer@CosEventChannelAdmin@@SAXPAV_objref_ProxyPushConsumer@2@AAVcdrStream@@@Z
?_marshalObjRef@ProxyPushConsumer@CosNotifyChannelAdmin@@SAXPAV_objref_ProxyPushConsumer@2@AAVcdrStream@@@Z
?_marshalObjRef@ProxyPushSupplier@CosEventChannelAdmin@@SAXPAV_objref_ProxyPushSupplier@2@AAVcdrStream@@@Z
?_marshalObjRef@ProxyPushSupplier@CosNotifyChannelAdmin@@SAXPAV_objref_ProxyPushSupplier@2@AAVcdrStream@@@Z
?_marshalObjRef@ProxySupplier@CosNotifyChannelAdmin@@SAXPAV_objref_ProxySupplier@2@AAVcdrStream@@@Z
?_marshalObjRef@PullConsumer@CosEventComm@@SAXPAV_objref_PullConsumer@2@AAVcdrStream@@@Z
?_marshalObjRef@PullConsumer@CosNotifyComm@@SAXPAV_objref_PullConsumer@2@AAVcdrStream@@@Z
?_marshalObjRef@PullSupplier@CosEventComm@@SAXPAV_objref_PullSupplier@2@AAVcdrStream@@@Z
?_marshalObjRef@PullSupplier@CosNotifyComm@@SAXPAV_objref_PullSupplier@2@AAVcdrStream@@@Z
?_marshalObjRef@PushConsumer@CosEventComm@@SAXPAV_objref_PushConsumer@2@AAVcdrStream@@@Z
?_marshalObjRef@PushConsumer@CosNotifyComm@@SAXPAV_objref_PushConsumer@2@AAVcdrStream@@@Z
?_marshalObjRef@PushSupplier@CosEventComm@@SAXPAV_objref_PushSupplier@2@AAVcdrStream@@@Z
?_marshalObjRef@PushSupplier@CosNotifyComm@@SAXPAV_objref_PushSupplier@2@AAVcdrStream@@@Z
?_marshalObjRef@QoSAdmin@CosNotification@@SAXPAV_objref_QoSAdmin@2@AAVcdrStream@@@Z
?_marshalObjRef@SequenceProxyPullConsumer@CosNotifyChannelAdmin@@SAXPAV_objref_SequenceProxyPullConsumer@2@AAVcdrStream@@@Z
?_marshalObjRef@SequenceProxyPullSupplier@CosNotifyChannelAdmin@@SAXPAV_objref_SequenceProxyPullSupplier@2@AAVcdrStream@@@Z
?_marshalObjRef@SequenceProxyPushConsumer@CosNotifyChannelAdmin@@SAXPAV_objref_SequenceProxyPushConsumer@2@AAVcdrStream@@@Z
?_marshalObjRef@SequenceProxyPushSupplier@CosNotifyChannelAdmin@@SAXPAV_objref_SequenceProxyPushSupplier@2@AAVcdrStream@@@Z
?_marshalObjRef@SequencePullConsumer@CosNotifyComm@@SAXPAV_objref_SequencePullConsumer@2@AAVcdrStream@@@Z
?_marshalObjRef@SequencePullSupplier@CosNotifyComm@@SAXPAV_objref_SequencePullSupplier@2@AAVcdrStream@@@Z
?_marshalObjRef@SequencePushConsumer@CosNotifyComm@@SAXPAV_objref_SequencePushConsumer@2@AAVcdrStream@@@Z
?_marshalObjRef@SequencePushSupplier@CosNotifyComm@@SAXPAV_objref_SequencePushSupplier@2@AAVcdrStream@@@Z
?_marshalObjRef@StructuredProxyPullConsumer@CosNotifyChannelAdmin@@SAXPAV_objref_StructuredProxyPullConsumer@2@AAVcdrStream@@@Z
?_marshalObjRef@StructuredProxyPullSupplier@CosNotifyChannelAdmin@@SAXPAV_objref_StructuredProxyPullSupplier@2@AAVcdrStream@@@Z
?_marshalObjRef@StructuredProxyPushConsumer@CosNotifyChannelAdmin@@SAXPAV_objref_StructuredProxyPushConsumer@2@AAVcdrStream@@@Z
?_marshalObjRef@StructuredProxyPushSupplier@CosNotifyChannelAdmin@@SAXPAV_objref_StructuredProxyPushSupplier@2@AAVcdrStream@@@Z
?_marshalObjRef@StructuredPullConsumer@CosNotifyComm@@SAXPAV_objref_StructuredPullConsumer@2@AAVcdrStream@@@Z
?_marshalObjRef@StructuredPullSupplier@CosNotifyComm@@SAXPAV_objref_StructuredPullSupplier@2@AAVcdrStream@@@Z
?_marshalObjRef@StructuredPushConsumer@CosNotifyComm@@SAXPAV_objref_StructuredPushConsumer@2@AAVcdrStream@@@Z
?_marshalObjRef@StructuredPushSupplier@CosNotifyComm@@SAXPAV_objref_StructuredPushSupplier@2@AAVcdrStream@@@Z
?_marshalObjRef@SupplierAdmin@CosEventChannelAdmin@@SAXPAV_objref_SupplierAdmin@2@AAVcdrStream@@@Z
?_marshalObjRef@SupplierAdmin@CosNotifyChannelAdmin@@SAXPAV_objref_SupplierAdmin@2@AAVcdrStream@@@Z
?_marshalObjRef@TIO@CosTime@@SAXPAV_objref_TIO@2@AAVcdrStream@@@Z
?_marshalObjRef@TimeService@CosTime@@SAXPAV_objref_TimeService@2@AAVcdrStream@@@Z
?_marshalObjRef@UTO@CosTime@@SAXPAV_objref_UTO@2@AAVcdrStream@@@Z
?_mostDerivedRepoId@_impl_AdminPropertiesAdmin@CosNotification@@$0PPPPPPPM@A@AEPBDXZ
?_mostDerivedRepoId@_impl_AdminPropertiesAdmin@CosNotification@@$R077PPPPPPPM@M@AEPBDXZ
?_mostDerivedRepoId@_impl_AdminPropertiesAdmin@CosNotification@@EAEPBDXZ
?_mostDerivedRepoId@_impl_ConsumerAdmin@CosEventChannelAdmin@@$0PPPPPPPM@A@AEPBDXZ
?_mostDerivedRepoId@_impl_ConsumerAdmin@CosEventChannelAdmin@@$R077PPPPPPPM@M@AEPBDXZ
?_mostDerivedRepoId@_impl_ConsumerAdmin@CosEventChannelAdmin@@EAEPBDXZ
?_mostDerivedRepoId@_impl_ConsumerAdmin@CosNotifyChannelAdmin@@$0PPPPPPPM@A@AEPBDXZ
?_mostDerivedRepoId@_impl_ConsumerAdmin@CosNotifyChannelAdmin@@$R07BI@PPPPPPPM@M@AEPBDXZ
?_mostDerivedRepoId@_impl_ConsumerAdmin@CosNotifyChannelAdmin@@EAEPBDXZ
?_mostDerivedRepoId@_impl_EventChannel@CosEventChannelAdmin@@$0PPPPPPPM@A@AEPBDXZ
?_mostDerivedRepoId@_impl_EventChannel@CosEventChannelAdmin@@$R077PPPPPPPM@M@AEPBDXZ
?_mostDerivedRepoId@_impl_EventChannel@CosEventChannelAdmin@@EAEPBDXZ
?_mostDerivedRepoId@_impl_EventChannel@CosNotifyChannelAdmin@@$0PPPPPPPM@A@AEPBDXZ
?_mostDerivedRepoId@_impl_EventChannel@CosNotifyChannelAdmin@@$R07BE@PPPPPPPM@M@AEPBDXZ
?_mostDerivedRepoId@_impl_EventChannel@CosNotifyChannelAdmin@@EAEPBDXZ
?_mostDerivedRepoId@_impl_EventChannelFactory@CosNotifyChannelAdmin@@$0PPPPPPPM@A@AEPBDXZ
?_mostDerivedRepoId@_impl_EventChannelFactory@CosNotifyChannelAdmin@@$R077PPPPPPPM@M@AEPBDXZ
?_mostDerivedRepoId@_impl_EventChannelFactory@CosNotifyChannelAdmin@@EAEPBDXZ
?_mostDerivedRepoId@_impl_FactoryFinder@CosLifeCycle@@$0PPPPPPPM@A@AEPBDXZ
?_mostDerivedRepoId@_impl_FactoryFinder@CosLifeCycle@@$R077PPPPPPPM@M@AEPBDXZ
?_mostDerivedRepoId@_impl_FactoryFinder@CosLifeCycle@@EAEPBDXZ
?_mostDerivedRepoId@_impl_Filter@CosNotifyFilter@@$0PPPPPPPM@A@AEPBDXZ
?_mostDerivedRepoId@_impl_Filter@CosNotifyFilter@@$R077PPPPPPPM@M@AEPBDXZ
?_mostDerivedRepoId@_impl_Filter@CosNotifyFilter@@EAEPBDXZ
?_mostDerivedRepoId@_impl_FilterAdmin@CosNotifyFilter@@$0PPPPPPPM@A@AEPBDXZ
?_mostDerivedRepoId@_impl_FilterAdmin@CosNotifyFilter@@$R077PPPPPPPM@M@AEPBDXZ
?_mostDerivedRepoId@_impl_FilterAdmin@CosNotifyFilter@@EAEPBDXZ
?_mostDerivedRepoId@_impl_FilterFactory@CosNotifyFilter@@$0PPPPPPPM@A@AEPBDXZ
?_mostDerivedRepoId@_impl_FilterFactory@CosNotifyFilter@@$R077PPPPPPPM@M@AEPBDXZ
?_mostDerivedRepoId@_impl_FilterFactory@CosNotifyFilter@@EAEPBDXZ
?_mostDerivedRepoId@_impl_GenericFactory@CosLifeCycle@@$0PPPPPPPM@A@AEPBDXZ
?_mostDerivedRepoId@_impl_GenericFactory@CosLifeCycle@@$R077PPPPPPPM@M@AEPBDXZ
?_mostDerivedRepoId@_impl_GenericFactory@CosLifeCycle@@EAEPBDXZ
?_mostDerivedRepoId@_impl_LifeCycleObject@CosLifeCycle@@$0PPPPPPPM@A@AEPBDXZ
?_mostDerivedRepoId@_impl_LifeCycleObject@CosLifeCycle@@$R077PPPPPPPM@M@AEPBDXZ
?_mostDerivedRepoId@_impl_LifeCycleObject@CosLifeCycle@@EAEPBDXZ
?_mostDerivedRepoId@_impl_MappingFilter@CosNotifyFilter@@$0PPPPPPPM@A@AEPBDXZ
?_mostDerivedRepoId@_impl_MappingFilter@CosNotifyFilter@@$R077PPPPPPPM@M@AEPBDXZ
?_mostDerivedRepoId@_impl_MappingFilter@CosNotifyFilter@@EAEPBDXZ
?_mostDerivedRepoId@_impl_NotifyPublish@CosNotifyComm@@$0PPPPPPPM@A@AEPBDXZ
?_mostDerivedRepoId@_impl_NotifyPublish@CosNotifyComm@@$R077PPPPPPPM@M@AEPBDXZ
?_mostDerivedRepoId@_impl_NotifyPublish@CosNotifyComm@@EAEPBDXZ
?_mostDerivedRepoId@_impl_NotifySubscribe@CosNotifyComm@@$0PPPPPPPM@A@AEPBDXZ
?_mostDerivedRepoId@_impl_NotifySubscribe@CosNotifyComm@@$R077PPPPPPPM@M@AEPBDXZ
?_mostDerivedRepoId@_impl_NotifySubscribe@CosNotifyComm@@EAEPBDXZ
?_mostDerivedRepoId@_impl_ProxyConsumer@CosNotifyChannelAdmin@@$0PPPPPPPM@A@AEPBDXZ
?_mostDerivedRepoId@_impl_ProxyConsumer@CosNotifyChannelAdmin@@$R07BA@PPPPPPPM@M@AEPBDXZ
?_mostDerivedRepoId@_impl_ProxyConsumer@CosNotifyChannelAdmin@@EAEPBDXZ
?_mostDerivedRepoId@_impl_ProxyPullConsumer@CosEventChannelAdmin@@$0PPPPPPPM@A@AEPBDXZ
?_mostDerivedRepoId@_impl_ProxyPullConsumer@CosEventChannelAdmin@@$R07M@PPPPPPPM@M@AEPBDXZ
?_mostDerivedRepoId@_impl_ProxyPullConsumer@CosEventChannelAdmin@@EAEPBDXZ
?_mostDerivedRepoId@_impl_ProxyPullConsumer@CosNotifyChannelAdmin@@$0PPPPPPPM@A@AEPBDXZ
?_mostDerivedRepoId@_impl_ProxyPullConsumer@CosNotifyChannelAdmin@@$R07CA@PPPPPPPM@M@AEPBDXZ
?_mostDerivedRepoId@_impl_ProxyPullConsumer@CosNotifyChannelAdmin@@EAEPBDXZ
?_mostDerivedRepoId@_impl_ProxyPullSupplier@CosEventChannelAdmin@@$0PPPPPPPM@A@AEPBDXZ
?_mostDerivedRepoId@_impl_ProxyPullSupplier@CosEventChannelAdmin@@$R07M@PPPPPPPM@M@AEPBDXZ
?_mostDerivedRepoId@_impl_ProxyPullSupplier@CosEventChannelAdmin@@EAEPBDXZ
?_mostDerivedRepoId@_impl_ProxyPullSupplier@CosNotifyChannelAdmin@@$0PPPPPPPM@A@AEPBDXZ
?_mostDerivedRepoId@_impl_ProxyPullSupplier@CosNotifyChannelAdmin@@$R07CA@PPPPPPPM@M@AEPBDXZ
?_mostDerivedRepoId@_impl_ProxyPullSupplier@CosNotifyChannelAdmin@@EAEPBDXZ
?_mostDerivedRepoId@_impl_ProxyPushConsumer@CosEventChannelAdmin@@$0PPPPPPPM@A@AEPBDXZ
?_mostDerivedRepoId@_impl_ProxyPushConsumer@CosEventChannelAdmin@@$R07M@PPPPPPPM@M@AEPBDXZ
?_mostDerivedRepoId@_impl_ProxyPushConsumer@CosEventChannelAdmin@@EAEPBDXZ
?_mostDerivedRepoId@_impl_ProxyPushConsumer@CosNotifyChannelAdmin@@$0PPPPPPPM@A@AEPBDXZ
?_mostDerivedRepoId@_impl_ProxyPushConsumer@CosNotifyChannelAdmin@@$R07CA@PPPPPPPM@M@AEPBDXZ
?_mostDerivedRepoId@_impl_ProxyPushConsumer@CosNotifyChannelAdmin@@EAEPBDXZ
?_mostDerivedRepoId@_impl_ProxyPushSupplier@CosEventChannelAdmin@@$0PPPPPPPM@A@AEPBDXZ
?_mostDerivedRepoId@_impl_ProxyPushSupplier@CosEventChannelAdmin@@$R07M@PPPPPPPM@M@AEPBDXZ
?_mostDerivedRepoId@_impl_ProxyPushSupplier@CosEventChannelAdmin@@EAEPBDXZ
?_mostDerivedRepoId@_impl_ProxyPushSupplier@CosNotifyChannelAdmin@@$0PPPPPPPM@A@AEPBDXZ
?_mostDerivedRepoId@_impl_ProxyPushSupplier@CosNotifyChannelAdmin@@$R07CA@PPPPPPPM@M@AEPBDXZ
?_mostDerivedRepoId@_impl_ProxyPushSupplier@CosNotifyChannelAdmin@@EAEPBDXZ
?_mostDerivedRepoId@_impl_ProxySupplier@CosNotifyChannelAdmin@@$0PPPPPPPM@A@AEPBDXZ
?_mostDerivedRepoId@_impl_ProxySupplier@CosNotifyChannelAdmin@@$R07BA@PPPPPPPM@M@AEPBDXZ
?_mostDerivedRepoId@_impl_ProxySupplier@CosNotifyChannelAdmin@@EAEPBDXZ
?_mostDerivedRepoId@_impl_PullConsumer@CosEventComm@@$0PPPPPPPM@A@AEPBDXZ
?_mostDerivedRepoId@_impl_PullConsumer@CosEventComm@@$R077PPPPPPPM@M@AEPBDXZ
?_mostDerivedRepoId@_impl_PullConsumer@CosEventComm@@EAEPBDXZ
?_mostDerivedRepoId@_impl_PullConsumer@CosNotifyComm@@$0PPPPPPPM@A@AEPBDXZ
?_mostDerivedRepoId@_impl_PullConsumer@CosNotifyComm@@$R07BA@PPPPPPPM@7AEPBDXZ
?_mostDerivedRepoId@_impl_PullConsumer@CosNotifyComm@@EAEPBDXZ
?_mostDerivedRepoId@_impl_PullSupplier@CosEventComm@@$0PPPPPPPM@A@AEPBDXZ
?_mostDerivedRepoId@_impl_PullSupplier@CosEventComm@@$R077PPPPPPPM@M@AEPBDXZ
?_mostDerivedRepoId@_impl_PullSupplier@CosEventComm@@EAEPBDXZ
?_mostDerivedRepoId@_impl_PullSupplier@CosNotifyComm@@$0PPPPPPPM@A@AEPBDXZ
?_mostDerivedRepoId@_impl_PullSupplier@CosNotifyComm@@$R07BA@PPPPPPPM@7AEPBDXZ
?_mostDerivedRepoId@_impl_PullSupplier@CosNotifyComm@@EAEPBDXZ
?_mostDerivedRepoId@_impl_PushConsumer@CosEventComm@@$0PPPPPPPM@A@AEPBDXZ
?_mostDerivedRepoId@_impl_PushConsumer@CosEventComm@@$R077PPPPPPPM@M@AEPBDXZ
?_mostDerivedRepoId@_impl_PushConsumer@CosEventComm@@EAEPBDXZ
?_mostDerivedRepoId@_impl_PushConsumer@CosNotifyComm@@$0PPPPPPPM@A@AEPBDXZ
?_mostDerivedRepoId@_impl_PushConsumer@CosNotifyComm@@$R07BA@PPPPPPPM@7AEPBDXZ
?_mostDerivedRepoId@_impl_PushConsumer@CosNotifyComm@@EAEPBDXZ
?_mostDerivedRepoId@_impl_PushSupplier@CosEventComm@@$0PPPPPPPM@A@AEPBDXZ
?_mostDerivedRepoId@_impl_PushSupplier@CosEventComm@@$R077PPPPPPPM@M@AEPBDXZ
?_mostDerivedRepoId@_impl_PushSupplier@CosEventComm@@EAEPBDXZ
?_mostDerivedRepoId@_impl_PushSupplier@CosNotifyComm@@$0PPPPPPPM@A@AEPBDXZ
?_mostDerivedRepoId@_impl_PushSupplier@CosNotifyComm@@$R07BA@PPPPPPPM@7AEPBDXZ
?_mostDerivedRepoId@_impl_PushSupplier@CosNotifyComm@@EAEPBDXZ
?_mostDerivedRepoId@_impl_QoSAdmin@CosNotification@@$0PPPPPPPM@A@AEPBDXZ
?_mostDerivedRepoId@_impl_QoSAdmin@CosNotification@@$R077PPPPPPPM@M@AEPBDXZ
?_mostDerivedRepoId@_impl_QoSAdmin@CosNotification@@EAEPBDXZ
?_mostDerivedRepoId@_impl_SequenceProxyPullConsumer@CosNotifyChannelAdmin@@$0PPPPPPPM@A@AEPBDXZ
?_mostDerivedRepoId@_impl_SequenceProxyPullConsumer@CosNotifyChannelAdmin@@$R07BM@PPPPPPPM@M@AEPBDXZ
?_mostDerivedRepoId@_impl_SequenceProxyPullConsumer@CosNotifyChannelAdmin@@EAEPBDXZ
?_mostDerivedRepoId@_impl_SequenceProxyPullSupplier@CosNotifyChannelAdmin@@$0PPPPPPPM@A@AEPBDXZ
?_mostDerivedRepoId@_impl_SequenceProxyPullSupplier@CosNotifyChannelAdmin@@$R07BM@PPPPPPPM@M@AEPBDXZ
?_mostDerivedRepoId@_impl_SequenceProxyPullSupplier@CosNotifyChannelAdmin@@EAEPBDXZ
?_mostDerivedRepoId@_impl_SequenceProxyPushConsumer@CosNotifyChannelAdmin@@$0PPPPPPPM@A@AEPBDXZ
?_mostDerivedRepoId@_impl_SequenceProxyPushConsumer@CosNotifyChannelAdmin@@$R07BM@PPPPPPPM@M@AEPBDXZ
?_mostDerivedRepoId@_impl_SequenceProxyPushConsumer@CosNotifyChannelAdmin@@EAEPBDXZ
?_mostDerivedRepoId@_impl_SequenceProxyPushSupplier@CosNotifyChannelAdmin@@$0PPPPPPPM@A@AEPBDXZ
?_mostDerivedRepoId@_impl_SequenceProxyPushSupplier@CosNotifyChannelAdmin@@$R07BM@PPPPPPPM@M@AEPBDXZ
?_mostDerivedRepoId@_impl_SequenceProxyPushSupplier@CosNotifyChannelAdmin@@EAEPBDXZ
?_mostDerivedRepoId@_impl_SequencePullConsumer@CosNotifyComm@@$0PPPPPPPM@A@AEPBDXZ
?_mostDerivedRepoId@_impl_SequencePullConsumer@CosNotifyComm@@$R07M@PPPPPPPM@M@AEPBDXZ
?_mostDerivedRepoId@_impl_SequencePullConsumer@CosNotifyComm@@EAEPBDXZ
?_mostDerivedRepoId@_impl_SequencePullSupplier@CosNotifyComm@@$0PPPPPPPM@A@AEPBDXZ
?_mostDerivedRepoId@_impl_SequencePullSupplier@CosNotifyComm@@$R07M@PPPPPPPM@M@AEPBDXZ
?_mostDerivedRepoId@_impl_SequencePullSupplier@CosNotifyComm@@EAEPBDXZ
?_mostDerivedRepoId@_impl_SequencePushConsumer@CosNotifyComm@@$0PPPPPPPM@A@AEPBDXZ
?_mostDerivedRepoId@_impl_SequencePushConsumer@CosNotifyComm@@$R07M@PPPPPPPM@M@AEPBDXZ
?_mostDerivedRepoId@_impl_SequencePushConsumer@CosNotifyComm@@EAEPBDXZ
?_mostDerivedRepoId@_impl_SequencePushSupplier@CosNotifyComm@@$0PPPPPPPM@A@AEPBDXZ
?_mostDerivedRepoId@_impl_SequencePushSupplier@CosNotifyComm@@$R07M@PPPPPPPM@M@AEPBDXZ
?_mostDerivedRepoId@_impl_SequencePushSupplier@CosNotifyComm@@EAEPBDXZ
?_mostDerivedRepoId@_impl_StructuredProxyPullConsumer@CosNotifyChannelAdmin@@$0PPPPPPPM@A@AEPBDXZ
?_mostDerivedRepoId@_impl_StructuredProxyPullConsumer@CosNotifyChannelAdmin@@$R07BM@PPPPPPPM@M@AEPBDXZ
?_mostDerivedRepoId@_impl_StructuredProxyPullConsumer@CosNotifyChannelAdmin@@EAEPBDXZ
?_mostDerivedRepoId@_impl_StructuredProxyPullSupplier@CosNotifyChannelAdmin@@$0PPPPPPPM@A@AEPBDXZ
?_mostDerivedRepoId@_impl_StructuredProxyPullSupplier@CosNotifyChannelAdmin@@$R07BM@PPPPPPPM@M@AEPBDXZ
?_mostDerivedRepoId@_impl_StructuredProxyPullSupplier@CosNotifyChannelAdmin@@EAEPBDXZ
?_mostDerivedRepoId@_impl_StructuredProxyPushConsumer@CosNotifyChannelAdmin@@$0PPPPPPPM@A@AEPBDXZ
?_mostDerivedRepoId@_impl_StructuredProxyPushConsumer@CosNotifyChannelAdmin@@$R07BM@PPPPPPPM@M@AEPBDXZ
?_mostDerivedRepoId@_impl_StructuredProxyPushConsumer@CosNotifyChannelAdmin@@EAEPBDXZ
?_mostDerivedRepoId@_impl_StructuredProxyPushSupplier@CosNotifyChannelAdmin@@$0PPPPPPPM@A@AEPBDXZ
?_mostDerivedRepoId@_impl_StructuredProxyPushSupplier@CosNotifyChannelAdmin@@$R07BM@PPPPPPPM@M@AEPBDXZ
?_mostDerivedRepoId@_impl_StructuredProxyPushSupplier@CosNotifyChannelAdmin@@EAEPBDXZ
?_mostDerivedRepoId@_impl_StructuredPullConsumer@CosNotifyComm@@$0PPPPPPPM@A@AEPBDXZ
?_mostDerivedRepoId@_impl_StructuredPullConsumer@CosNotifyComm@@$R07M@PPPPPPPM@M@AEPBDXZ
?_mostDerivedRepoId@_impl_StructuredPullConsumer@CosNotifyComm@@EAEPBDXZ
?_mostDerivedRepoId@_impl_StructuredPullSupplier@CosNotifyComm@@$0PPPPPPPM@A@AEPBDXZ
?_mostDerivedRepoId@_impl_StructuredPullSupplier@CosNotifyComm@@$R07M@PPPPPPPM@M@AEPBDXZ
?_mostDerivedRepoId@_impl_StructuredPullSupplier@CosNotifyComm@@EAEPBDXZ
?_mostDerivedRepoId@_impl_StructuredPushConsumer@CosNotifyComm@@$0PPPPPPPM@A@AEPBDXZ
?_mostDerivedRepoId@_impl_StructuredPushConsumer@CosNotifyComm@@$R07M@PPPPPPPM@M@AEPBDXZ
?_mostDerivedRepoId@_impl_StructuredPushConsumer@CosNotifyComm@@EAEPBDXZ
?_mostDerivedRepoId@_impl_StructuredPushSupplier@CosNotifyComm@@$0PPPPPPPM@A@AEPBDXZ
?_mostDerivedRepoId@_impl_StructuredPushSupplier@CosNotifyComm@@$R07M@PPPPPPPM@M@AEPBDXZ
?_mostDerivedRepoId@_impl_StructuredPushSupplier@CosNotifyComm@@EAEPBDXZ
?_mostDerivedRepoId@_impl_SupplierAdmin@CosEventChannelAdmin@@$0PPPPPPPM@A@AEPBDXZ
?_mostDerivedRepoId@_impl_SupplierAdmin@CosEventChannelAdmin@@$R077PPPPPPPM@M@AEPBDXZ
?_mostDerivedRepoId@_impl_SupplierAdmin@CosEventChannelAdmin@@EAEPBDXZ
?_mostDerivedRepoId@_impl_SupplierAdmin@CosNotifyChannelAdmin@@$0PPPPPPPM@A@AEPBDXZ
?_mostDerivedRepoId@_impl_SupplierAdmin@CosNotifyChannelAdmin@@$R07BI@PPPPPPPM@M@AEPBDXZ
?_mostDerivedRepoId@_impl_SupplierAdmin@CosNotifyChannelAdmin@@EAEPBDXZ
?_mostDerivedRepoId@_impl_TIO@CosTime@@$0PPPPPPPM@A@AEPBDXZ
?_mostDerivedRepoId@_impl_TIO@CosTime@@$R077PPPPPPPM@M@AEPBDXZ
?_mostDerivedRepoId@_impl_TIO@CosTime@@EAEPBDXZ
?_mostDerivedRepoId@_impl_TimeService@CosTime@@$0PPPPPPPM@A@AEPBDXZ
?_mostDerivedRepoId@_impl_TimeService@CosTime@@$R077PPPPPPPM@M@AEPBDXZ
?_mostDerivedRepoId@_impl_TimeService@CosTime@@EAEPBDXZ
?_mostDerivedRepoId@_impl_UTO@CosTime@@$0PPPPPPPM@A@AEPBDXZ
?_mostDerivedRepoId@_impl_UTO@CosTime@@$R077PPPPPPPM@M@AEPBDXZ
?_mostDerivedRepoId@_impl_UTO@CosTime@@EAEPBDXZ
?_narrow@AdminPropertiesAdmin@CosNotification@@SAPAV_objref_AdminPropertiesAdmin@2@PAVObject@CORBA@@@Z
?_narrow@ConsumerAdmin@CosEventChannelAdmin@@SAPAV_objref_ConsumerAdmin@2@PAVObject@CORBA@@@Z
?_narrow@ConsumerAdmin@CosNotifyChannelAdmin@@SAPAV_objref_ConsumerAdmin@2@PAVObject@CORBA@@@Z
?_narrow@EventChannel@CosEventChannelAdmin@@SAPAV_objref_EventChannel@2@PAVObject@CORBA@@@Z
?_narrow@EventChannel@CosNotifyChannelAdmin@@SAPAV_objref_EventChannel@2@PAVObject@CORBA@@@Z
?_narrow@EventChannelFactory@CosNotifyChannelAdmin@@SAPAV_objref_EventChannelFactory@2@PAVObject@CORBA@@@Z
?_narrow@FactoryFinder@CosLifeCycle@@SAPAV_objref_FactoryFinder@2@PAVObject@CORBA@@@Z
?_narrow@Filter@CosNotifyFilter@@SAPAV_objref_Filter@2@PAVObject@CORBA@@@Z
?_narrow@FilterAdmin@CosNotifyFilter@@SAPAV_objref_FilterAdmin@2@PAVObject@CORBA@@@Z
?_narrow@FilterFactory@CosNotifyFilter@@SAPAV_objref_FilterFactory@2@PAVObject@CORBA@@@Z
?_narrow@GenericFactory@CosLifeCycle@@SAPAV_objref_GenericFactory@2@PAVObject@CORBA@@@Z
?_narrow@LifeCycleObject@CosLifeCycle@@SAPAV_objref_LifeCycleObject@2@PAVObject@CORBA@@@Z
?_narrow@MappingFilter@CosNotifyFilter@@SAPAV_objref_MappingFilter@2@PAVObject@CORBA@@@Z
?_narrow@NotifyPublish@CosNotifyComm@@SAPAV_objref_NotifyPublish@2@PAVObject@CORBA@@@Z
?_narrow@NotifySubscribe@CosNotifyComm@@SAPAV_objref_NotifySubscribe@2@PAVObject@CORBA@@@Z
?_narrow@ProxyConsumer@CosNotifyChannelAdmin@@SAPAV_objref_ProxyConsumer@2@PAVObject@CORBA@@@Z
?_narrow@ProxyPullConsumer@CosEventChannelAdmin@@SAPAV_objref_ProxyPullConsumer@2@PAVObject@CORBA@@@Z
?_narrow@ProxyPullConsumer@CosNotifyChannelAdmin@@SAPAV_objref_ProxyPullConsumer@2@PAVObject@CORBA@@@Z
?_narrow@ProxyPullSupplier@CosEventChannelAdmin@@SAPAV_objref_ProxyPullSupplier@2@PAVObject@CORBA@@@Z
?_narrow@ProxyPullSupplier@CosNotifyChannelAdmin@@SAPAV_objref_ProxyPullSupplier@2@PAVObject@CORBA@@@Z
?_narrow@ProxyPushConsumer@CosEventChannelAdmin@@SAPAV_objref_ProxyPushConsumer@2@PAVObject@CORBA@@@Z
?_narrow@ProxyPushConsumer@CosNotifyChannelAdmin@@SAPAV_objref_ProxyPushConsumer@2@PAVObject@CORBA@@@Z
?_narrow@ProxyPushSupplier@CosEventChannelAdmin@@SAPAV_objref_ProxyPushSupplier@2@PAVObject@CORBA@@@Z
?_narrow@ProxyPushSupplier@CosNotifyChannelAdmin@@SAPAV_objref_ProxyPushSupplier@2@PAVObject@CORBA@@@Z
?_narrow@ProxySupplier@CosNotifyChannelAdmin@@SAPAV_objref_ProxySupplier@2@PAVObject@CORBA@@@Z
?_narrow@PullConsumer@CosEventComm@@SAPAV_objref_PullConsumer@2@PAVObject@CORBA@@@Z
?_narrow@PullConsumer@CosNotifyComm@@SAPAV_objref_PullConsumer@2@PAVObject@CORBA@@@Z
?_narrow@PullSupplier@CosEventComm@@SAPAV_objref_PullSupplier@2@PAVObject@CORBA@@@Z
?_narrow@PullSupplier@CosNotifyComm@@SAPAV_objref_PullSupplier@2@PAVObject@CORBA@@@Z
?_narrow@PushConsumer@CosEventComm@@SAPAV_objref_PushConsumer@2@PAVObject@CORBA@@@Z
?_narrow@PushConsumer@CosNotifyComm@@SAPAV_objref_PushConsumer@2@PAVObject@CORBA@@@Z
?_narrow@PushSupplier@CosEventComm@@SAPAV_objref_PushSupplier@2@PAVObject@CORBA@@@Z
?_narrow@PushSupplier@CosNotifyComm@@SAPAV_objref_PushSupplier@2@PAVObject@CORBA@@@Z
?_narrow@QoSAdmin@CosNotification@@SAPAV_objref_QoSAdmin@2@PAVObject@CORBA@@@Z
?_narrow@SequenceProxyPullConsumer@CosNotifyChannelAdmin@@SAPAV_objref_SequenceProxyPullConsumer@2@PAVObject@CORBA@@@Z
?_narrow@SequenceProxyPullSupplier@CosNotifyChannelAdmin@@SAPAV_objref_SequenceProxyPullSupplier@2@PAVObject@CORBA@@@Z
?_narrow@SequenceProxyPushConsumer@CosNotifyChannelAdmin@@SAPAV_objref_SequenceProxyPushConsumer@2@PAVObject@CORBA@@@Z
?_narrow@SequenceProxyPushSupplier@CosNotifyChannelAdmin@@SAPAV_objref_SequenceProxyPushSupplier@2@PAVObject@CORBA@@@Z
?_narrow@SequencePullConsumer@CosNotifyComm@@SAPAV_objref_SequencePullConsumer@2@PAVObject@CORBA@@@Z
?_narrow@SequencePullSupplier@CosNotifyComm@@SAPAV_objref_SequencePullSupplier@2@PAVObject@CORBA@@@Z
?_narrow@SequencePushConsumer@CosNotifyComm@@SAPAV_objref_SequencePushConsumer@2@PAVObject@CORBA@@@Z
?_narrow@SequencePushSupplier@CosNotifyComm@@SAPAV_objref_SequencePushSupplier@2@PAVObject@CORBA@@@Z
?_narrow@StructuredProxyPullConsumer@CosNotifyChannelAdmin@@SAPAV_objref_StructuredProxyPullConsumer@2@PAVObject@CORBA@@@Z
?_narrow@StructuredProxyPullSupplier@CosNotifyChannelAdmin@@SAPAV_objref_StructuredProxyPullSupplier@2@PAVObject@CORBA@@@Z
?_narrow@StructuredProxyPushConsumer@CosNotifyChannelAdmin@@SAPAV_objref_StructuredProxyPushConsumer@2@PAVObject@CORBA@@@Z
?_narrow@StructuredProxyPushSupplier@CosNotifyChannelAdmin@@SAPAV_objref_StructuredProxyPushSupplier@2@PAVObject@CORBA@@@Z
?_narrow@StructuredPullConsumer@CosNotifyComm@@SAPAV_objref_StructuredPullConsumer@2@PAVObject@CORBA@@@Z
?_narrow@StructuredPullSupplier@CosNotifyComm@@SAPAV_objref_StructuredPullSupplier@2@PAVObject@CORBA@@@Z
?_narrow@StructuredPushConsumer@CosNotifyComm@@SAPAV_objref_StructuredPushConsumer@2@PAVObject@CORBA@@@Z
?_narrow@StructuredPushSupplier@CosNotifyComm@@SAPAV_objref_StructuredPushSupplier@2@PAVObject@CORBA@@@Z
?_narrow@SupplierAdmin@CosEventChannelAdmin@@SAPAV_objref_SupplierAdmin@2@PAVObject@CORBA@@@Z
?_narrow@SupplierAdmin@CosNotifyChannelAdmin@@SAPAV_objref_SupplierAdmin@2@PAVObject@CORBA@@@Z
?_narrow@TIO@CosTime@@SAPAV_objref_TIO@2@PAVObject@CORBA@@@Z
?_narrow@TimeService@CosTime@@SAPAV_objref_TimeService@2@PAVObject@CORBA@@@Z
?_narrow@UTO@CosTime@@SAPAV_objref_UTO@2@PAVObject@CORBA@@@Z
?_nil@AdminPropertiesAdmin@CosNotification@@SAPAV_objref_AdminPropertiesAdmin@2@XZ
?_nil@AdminPropertiesAdmin_Helper@CosNotification@@SAPAV_objref_AdminPropertiesAdmin@2@XZ
?_nil@ConsumerAdmin@CosEventChannelAdmin@@SAPAV_objref_ConsumerAdmin@2@XZ
?_nil@ConsumerAdmin@CosNotifyChannelAdmin@@SAPAV_objref_ConsumerAdmin@2@XZ
?_nil@ConsumerAdmin_Helper@CosEventChannelAdmin@@SAPAV_objref_ConsumerAdmin@2@XZ
?_nil@ConsumerAdmin_Helper@CosNotifyChannelAdmin@@SAPAV_objref_ConsumerAdmin@2@XZ
?_nil@EventChannel@CosEventChannelAdmin@@SAPAV_objref_EventChannel@2@XZ
?_nil@EventChannel@CosNotifyChannelAdmin@@SAPAV_objref_EventChannel@2@XZ
?_nil@EventChannelFactory@CosNotifyChannelAdmin@@SAPAV_objref_EventChannelFactory@2@XZ
?_nil@EventChannelFactory_Helper@CosNotifyChannelAdmin@@SAPAV_objref_EventChannelFactory@2@XZ
?_nil@EventChannel_Helper@CosEventChannelAdmin@@SAPAV_objref_EventChannel@2@XZ
?_nil@EventChannel_Helper@CosNotifyChannelAdmin@@SAPAV_objref_EventChannel@2@XZ
?_nil@FactoryFinder@CosLifeCycle@@SAPAV_objref_FactoryFinder@2@XZ
?_nil@FactoryFinder_Helper@CosLifeCycle@@SAPAV_objref_FactoryFinder@2@XZ
?_nil@Filter@CosNotifyFilter@@SAPAV_objref_Filter@2@XZ
?_nil@FilterAdmin@CosNotifyFilter@@SAPAV_objref_FilterAdmin@2@XZ
?_nil@FilterAdmin_Helper@CosNotifyFilter@@SAPAV_objref_FilterAdmin@2@XZ
?_nil@FilterFactory@CosNotifyFilter@@SAPAV_objref_FilterFactory@2@XZ
?_nil@FilterFactory_Helper@CosNotifyFilter@@SAPAV_objref_FilterFactory@2@XZ
?_nil@Filter_Helper@CosNotifyFilter@@SAPAV_objref_Filter@2@XZ
?_nil@GenericFactory@CosLifeCycle@@SAPAV_objref_GenericFactory@2@XZ
?_nil@GenericFactory_Helper@CosLifeCycle@@SAPAV_objref_GenericFactory@2@XZ
?_nil@LifeCycleObject@CosLifeCycle@@SAPAV_objref_LifeCycleObject@2@XZ
?_nil@LifeCycleObject_Helper@CosLifeCycle@@SAPAV_objref_LifeCycleObject@2@XZ
?_nil@MappingFilter@CosNotifyFilter@@SAPAV_objref_MappingFilter@2@XZ
?_nil@MappingFilter_Helper@CosNotifyFilter@@SAPAV_objref_MappingFilter@2@XZ
?_nil@NotifyPublish@CosNotifyComm@@SAPAV_objref_NotifyPublish@2@XZ
?_nil@NotifyPublish_Helper@CosNotifyComm@@SAPAV_objref_NotifyPublish@2@XZ
?_nil@NotifySubscribe@CosNotifyComm@@SAPAV_objref_NotifySubscribe@2@XZ
?_nil@NotifySubscribe_Helper@CosNotifyComm@@SAPAV_objref_NotifySubscribe@2@XZ
?_nil@ProxyConsumer@CosNotifyChannelAdmin@@SAPAV_objref_ProxyConsumer@2@XZ
?_nil@ProxyConsumer_Helper@CosNotifyChannelAdmin@@SAPAV_objref_ProxyConsumer@2@XZ
?_nil@ProxyPullConsumer@CosEventChannelAdmin@@SAPAV_objref_ProxyPullConsumer@2@XZ
?_nil@ProxyPullConsumer@CosNotifyChannelAdmin@@SAPAV_objref_ProxyPullConsumer@2@XZ
?_nil@ProxyPullConsumer_Helper@CosEventChannelAdmin@@SAPAV_objref_ProxyPullConsumer@2@XZ
?_nil@ProxyPullConsumer_Helper@CosNotifyChannelAdmin@@SAPAV_objref_ProxyPullConsumer@2@XZ
?_nil@ProxyPullSupplier@CosEventChannelAdmin@@SAPAV_objref_ProxyPullSupplier@2@XZ
?_nil@ProxyPullSupplier@CosNotifyChannelAdmin@@SAPAV_objref_ProxyPullSupplier@2@XZ
?_nil@ProxyPullSupplier_Helper@CosEventChannelAdmin@@SAPAV_objref_ProxyPullSupplier@2@XZ
?_nil@ProxyPullSupplier_Helper@CosNotifyChannelAdmin@@SAPAV_objref_ProxyPullSupplier@2@XZ
?_nil@ProxyPushConsumer@CosEventChannelAdmin@@SAPAV_objref_ProxyPushConsumer@2@XZ
?_nil@ProxyPushConsumer@CosNotifyChannelAdmin@@SAPAV_objref_ProxyPushConsumer@2@XZ
?_nil@ProxyPushConsumer_Helper@CosEventChannelAdmin@@SAPAV_objref_ProxyPushConsumer@2@XZ
?_nil@ProxyPushConsumer_Helper@CosNotifyChannelAdmin@@SAPAV_objref_ProxyPushConsumer@2@XZ
?_nil@ProxyPushSupplier@CosEventChannelAdmin@@SAPAV_objref_ProxyPushSupplier@2@XZ
?_nil@ProxyPushSupplier@CosNotifyChannelAdmin@@SAPAV_objref_ProxyPushSupplier@2@XZ
?_nil@ProxyPushSupplier_Helper@CosEventChannelAdmin@@SAPAV_objref_ProxyPushSupplier@2@XZ
?_nil@ProxyPushSupplier_Helper@CosNotifyChannelAdmin@@SAPAV_objref_ProxyPushSupplier@2@XZ
?_nil@ProxySupplier@CosNotifyChannelAdmin@@SAPAV_objref_ProxySupplier@2@XZ
?_nil@ProxySupplier_Helper@CosNotifyChannelAdmin@@SAPAV_objref_ProxySupplier@2@XZ
?_nil@PullConsumer@CosEventComm@@SAPAV_objref_PullConsumer@2@XZ
?_nil@PullConsumer@CosNotifyComm@@SAPAV_objref_PullConsumer@2@XZ
?_nil@PullConsumer_Helper@CosEventComm@@SAPAV_objref_PullConsumer@2@XZ
?_nil@PullConsumer_Helper@CosNotifyComm@@SAPAV_objref_PullConsumer@2@XZ
?_nil@PullSupplier@CosEventComm@@SAPAV_objref_PullSupplier@2@XZ
?_nil@PullSupplier@CosNotifyComm@@SAPAV_objref_PullSupplier@2@XZ
?_nil@PullSupplier_Helper@CosEventComm@@SAPAV_objref_PullSupplier@2@XZ
?_nil@PullSupplier_Helper@CosNotifyComm@@SAPAV_objref_PullSupplier@2@XZ
?_nil@PushConsumer@CosEventComm@@SAPAV_objref_PushConsumer@2@XZ
?_nil@PushConsumer@CosNotifyComm@@SAPAV_objref_PushConsumer@2@XZ
?_nil@PushConsumer_Helper@CosEventComm@@SAPAV_objref_PushConsumer@2@XZ
?_nil@PushConsumer_Helper@CosNotifyComm@@SAPAV_objref_PushConsumer@2@XZ
?_nil@PushSupplier@CosEventComm@@SAPAV_objref_PushSupplier@2@XZ
?_nil@PushSupplier@CosNotifyComm@@SAPAV_objref_PushSupplier@2@XZ
?_nil@PushSupplier_Helper@CosEventComm@@SAPAV_objref_PushSupplier@2@XZ
?_nil@PushSupplier_Helper@CosNotifyComm@@SAPAV_objref_PushSupplier@2@XZ
?_nil@QoSAdmin@CosNotification@@SAPAV_objref_QoSAdmin@2@XZ
?_nil@QoSAdmin_Helper@CosNotification@@SAPAV_objref_QoSAdmin@2@XZ
?_nil@SequenceProxyPullConsumer@CosNotifyChannelAdmin@@SAPAV_objref_SequenceProxyPullConsumer@2@XZ
?_nil@SequenceProxyPullConsumer_Helper@CosNotifyChannelAdmin@@SAPAV_objref_SequenceProxyPullConsumer@2@XZ
?_nil@SequenceProxyPullSupplier@CosNotifyChannelAdmin@@SAPAV_objref_SequenceProxyPullSupplier@2@XZ
?_nil@SequenceProxyPullSupplier_Helper@CosNotifyChannelAdmin@@SAPAV_objref_SequenceProxyPullSupplier@2@XZ
?_nil@SequenceProxyPushConsumer@CosNotifyChannelAdmin@@SAPAV_objref_SequenceProxyPushConsumer@2@XZ
?_nil@SequenceProxyPushConsumer_Helper@CosNotifyChannelAdmin@@SAPAV_objref_SequenceProxyPushConsumer@2@XZ
?_nil@SequenceProxyPushSupplier@CosNotifyChannelAdmin@@SAPAV_objref_SequenceProxyPushSupplier@2@XZ
?_nil@SequenceProxyPushSupplier_Helper@CosNotifyChannelAdmin@@SAPAV_objref_SequenceProxyPushSupplier@2@XZ
?_nil@SequencePullConsumer@CosNotifyComm@@SAPAV_objref_SequencePullConsumer@2@XZ
?_nil@SequencePullConsumer_Helper@CosNotifyComm@@SAPAV_objref_SequencePullConsumer@2@XZ
?_nil@SequencePullSupplier@CosNotifyComm@@SAPAV_objref_SequencePullSupplier@2@XZ
?_nil@SequencePullSupplier_Helper@CosNotifyComm@@SAPAV_objref_SequencePullSupplier@2@XZ
?_nil@SequencePushConsumer@CosNotifyComm@@SAPAV_objref_SequencePushConsumer@2@XZ
?_nil@SequencePushConsumer_Helper@CosNotifyComm@@SAPAV_objref_SequencePushConsumer@2@XZ
?_nil@SequencePushSupplier@CosNotifyComm@@SAPAV_objref_SequencePushSupplier@2@XZ
?_nil@SequencePushSupplier_Helper@CosNotifyComm@@SAPAV_objref_SequencePushSupplier@2@XZ
?_nil@StructuredProxyPullConsumer@CosNotifyChannelAdmin@@SAPAV_objref_StructuredProxyPullConsumer@2@XZ
?_nil@StructuredProxyPullConsumer_Helper@CosNotifyChannelAdmin@@SAPAV_objref_StructuredProxyPullConsumer@2@XZ
?_nil@StructuredProxyPullSupplier@CosNotifyChannelAdmin@@SAPAV_objref_StructuredProxyPullSupplier@2@XZ
?_nil@StructuredProxyPullSupplier_Helper@CosNotifyChannelAdmin@@SAPAV_objref_StructuredProxyPullSupplier@2@XZ
?_nil@StructuredProxyPushConsumer@CosNotifyChannelAdmin@@SAPAV_objref_StructuredProxyPushConsumer@2@XZ
?_nil@StructuredProxyPushConsumer_Helper@CosNotifyChannelAdmin@@SAPAV_objref_StructuredProxyPushConsumer@2@XZ
?_nil@StructuredProxyPushSupplier@CosNotifyChannelAdmin@@SAPAV_objref_StructuredProxyPushSupplier@2@XZ
?_nil@StructuredProxyPushSupplier_Helper@CosNotifyChannelAdmin@@SAPAV_objref_StructuredProxyPushSupplier@2@XZ
?_nil@StructuredPullConsumer@CosNotifyComm@@SAPAV_objref_StructuredPullConsumer@2@XZ
?_nil@StructuredPullConsumer_Helper@CosNotifyComm@@SAPAV_objref_StructuredPullConsumer@2@XZ
?_nil@StructuredPullSupplier@CosNotifyComm@@SAPAV_objref_StructuredPullSupplier@2@XZ
?_nil@StructuredPullSupplier_Helper@CosNotifyComm@@SAPAV_objref_StructuredPullSupplier@2@XZ
?_nil@StructuredPushConsumer@CosNotifyComm@@SAPAV_objref_StructuredPushConsumer@2@XZ
?_nil@StructuredPushConsumer_Helper@CosNotifyComm@@SAPAV_objref_StructuredPushConsumer@2@XZ
?_nil@StructuredPushSupplier@CosNotifyComm@@SAPAV_objref_StructuredPushSupplier@2@XZ
?_nil@StructuredPushSupplier_Helper@CosNotifyComm@@SAPAV_objref_StructuredPushSupplier@2@XZ
?_nil@SupplierAdmin@CosEventChannelAdmin@@SAPAV_objref_SupplierAdmin@2@XZ
?_nil@SupplierAdmin@CosNotifyChannelAdmin@@SAPAV_objref_SupplierAdmin@2@XZ
?_nil@SupplierAdmin_Helper@CosEventChannelAdmin@@SAPAV_objref_SupplierAdmin@2@XZ
?_nil@SupplierAdmin_Helper@CosNotifyChannelAdmin@@SAPAV_objref_SupplierAdmin@2@XZ
?_nil@TIO@CosTime@@SAPAV_objref_TIO@2@XZ
?_nil@TIO_Helper@CosTime@@SAPAV_objref_TIO@2@XZ
?_nil@TimeService@CosTime@@SAPAV_objref_TimeService@2@XZ
?_nil@TimeService_Helper@CosTime@@SAPAV_objref_TimeService@2@XZ
?_nil@UTO@CosTime@@SAPAV_objref_UTO@2@XZ
?_nil@UTO_Helper@CosTime@@SAPAV_objref_UTO@2@XZ
?_ptrToInterface@_impl_AdminPropertiesAdmin@CosNotification@@$0PPPPPPPM@A@AEPAXPBD@Z
?_ptrToInterface@_impl_AdminPropertiesAdmin@CosNotification@@$R077PPPPPPPM@M@AEPAXPBD@Z
?_ptrToInterface@_impl_AdminPropertiesAdmin@CosNotification@@EAEPAXPBD@Z
?_ptrToInterface@_impl_ConsumerAdmin@CosEventChannelAdmin@@$0PPPPPPPM@A@AEPAXPBD@Z
?_ptrToInterface@_impl_ConsumerAdmin@CosEventChannelAdmin@@$R077PPPPPPPM@M@AEPAXPBD@Z
?_ptrToInterface@_impl_ConsumerAdmin@CosEventChannelAdmin@@EAEPAXPBD@Z
?_ptrToInterface@_impl_ConsumerAdmin@CosNotifyChannelAdmin@@$0PPPPPPPM@A@AEPAXPBD@Z
?_ptrToInterface@_impl_ConsumerAdmin@CosNotifyChannelAdmin@@$R07BI@PPPPPPPM@M@AEPAXPBD@Z
?_ptrToInterface@_impl_ConsumerAdmin@CosNotifyChannelAdmin@@EAEPAXPBD@Z
?_ptrToInterface@_impl_EventChannel@CosEventChannelAdmin@@$0PPPPPPPM@A@AEPAXPBD@Z
?_ptrToInterface@_impl_EventChannel@CosEventChannelAdmin@@$R077PPPPPPPM@M@AEPAXPBD@Z
?_ptrToInterface@_impl_EventChannel@CosEventChannelAdmin@@EAEPAXPBD@Z
?_ptrToInterface@_impl_EventChannel@CosNotifyChannelAdmin@@$0PPPPPPPM@A@AEPAXPBD@Z
?_ptrToInterface@_impl_EventChannel@CosNotifyChannelAdmin@@$R07BE@PPPPPPPM@M@AEPAXPBD@Z
?_ptrToInterface@_impl_EventChannel@CosNotifyChannelAdmin@@EAEPAXPBD@Z
?_ptrToInterface@_impl_EventChannelFactory@CosNotifyChannelAdmin@@$0PPPPPPPM@A@AEPAXPBD@Z
?_ptrToInterface@_impl_EventChannelFactory@CosNotifyChannelAdmin@@$R077PPPPPPPM@M@AEPAXPBD@Z
?_ptrToInterface@_impl_EventChannelFactory@CosNotifyChannelAdmin@@EAEPAXPBD@Z
?_ptrToInterface@_impl_FactoryFinder@CosLifeCycle@@$0PPPPPPPM@A@AEPAXPBD@Z
?_ptrToInterface@_impl_FactoryFinder@CosLifeCycle@@$R077PPPPPPPM@M@AEPAXPBD@Z
?_ptrToInterface@_impl_FactoryFinder@CosLifeCycle@@EAEPAXPBD@Z
?_ptrToInterface@_impl_Filter@CosNotifyFilter@@$0PPPPPPPM@A@AEPAXPBD@Z
?_ptrToInterface@_impl_Filter@CosNotifyFilter@@$R077PPPPPPPM@M@AEPAXPBD@Z
?_ptrToInterface@_impl_Filter@CosNotifyFilter@@EAEPAXPBD@Z
?_ptrToInterface@_impl_FilterAdmin@CosNotifyFilter@@$0PPPPPPPM@A@AEPAXPBD@Z
?_ptrToInterface@_impl_FilterAdmin@CosNotifyFilter@@$R077PPPPPPPM@M@AEPAXPBD@Z
?_ptrToInterface@_impl_FilterAdmin@CosNotifyFilter@@EAEPAXPBD@Z
?_ptrToInterface@_impl_FilterFactory@CosNotifyFilter@@$0PPPPPPPM@A@AEPAXPBD@Z
?_ptrToInterface@_impl_FilterFactory@CosNotifyFilter@@$R077PPPPPPPM@M@AEPAXPBD@Z
?_ptrToInterface@_impl_FilterFactory@CosNotifyFilter@@EAEPAXPBD@Z
?_ptrToInterface@_impl_GenericFactory@CosLifeCycle@@$0PPPPPPPM@A@AEPAXPBD@Z
?_ptrToInterface@_impl_GenericFactory@CosLifeCycle@@$R077PPPPPPPM@M@AEPAXPBD@Z
?_ptrToInterface@_impl_GenericFactory@CosLifeCycle@@EAEPAXPBD@Z
?_ptrToInterface@_impl_LifeCycleObject@CosLifeCycle@@$0PPPPPPPM@A@AEPAXPBD@Z
?_ptrToInterface@_impl_LifeCycleObject@CosLifeCycle@@$R077PPPPPPPM@M@AEPAXPBD@Z
?_ptrToInterface@_impl_LifeCycleObject@CosLifeCycle@@EAEPAXPBD@Z
?_ptrToInterface@_impl_MappingFilter@CosNotifyFilter@@$0PPPPPPPM@A@AEPAXPBD@Z
?_ptrToInterface@_impl_MappingFilter@CosNotifyFilter@@$R077PPPPPPPM@M@AEPAXPBD@Z
?_ptrToInterface@_impl_MappingFilter@CosNotifyFilter@@EAEPAXPBD@Z
?_ptrToInterface@_impl_NotifyPublish@CosNotifyComm@@$0PPPPPPPM@A@AEPAXPBD@Z
?_ptrToInterface@_impl_NotifyPublish@CosNotifyComm@@$R077PPPPPPPM@M@AEPAXPBD@Z
?_ptrToInterface@_impl_NotifyPublish@CosNotifyComm@@EAEPAXPBD@Z
?_ptrToInterface@_impl_NotifySubscribe@CosNotifyComm@@$0PPPPPPPM@A@AEPAXPBD@Z
?_ptrToInterface@_impl_NotifySubscribe@CosNotifyComm@@$R077PPPPPPPM@M@AEPAXPBD@Z
?_ptrToInterface@_impl_NotifySubscribe@CosNotifyComm@@EAEPAXPBD@Z
?_ptrToInterface@_impl_ProxyConsumer@CosNotifyChannelAdmin@@$0PPPPPPPM@A@AEPAXPBD@Z
?_ptrToInterface@_impl_ProxyConsumer@CosNotifyChannelAdmin@@$R07BA@PPPPPPPM@M@AEPAXPBD@Z
?_ptrToInterface@_impl_ProxyConsumer@CosNotifyChannelAdmin@@EAEPAXPBD@Z
?_ptrToInterface@_impl_ProxyPullConsumer@CosEventChannelAdmin@@$0PPPPPPPM@A@AEPAXPBD@Z
?_ptrToInterface@_impl_ProxyPullConsumer@CosEventChannelAdmin@@$R07M@PPPPPPPM@M@AEPAXPBD@Z
?_ptrToInterface@_impl_ProxyPullConsumer@CosEventChannelAdmin@@EAEPAXPBD@Z
?_ptrToInterface@_impl_ProxyPullConsumer@CosNotifyChannelAdmin@@$0PPPPPPPM@A@AEPAXPBD@Z
?_ptrToInterface@_impl_ProxyPullConsumer@CosNotifyChannelAdmin@@$R07CA@PPPPPPPM@M@AEPAXPBD@Z
?_ptrToInterface@_impl_ProxyPullConsumer@CosNotifyChannelAdmin@@EAEPAXPBD@Z
?_ptrToInterface@_impl_ProxyPullSupplier@CosEventChannelAdmin@@$0PPPPPPPM@A@AEPAXPBD@Z
?_ptrToInterface@_impl_ProxyPullSupplier@CosEventChannelAdmin@@$R07M@PPPPPPPM@M@AEPAXPBD@Z
?_ptrToInterface@_impl_ProxyPullSupplier@CosEventChannelAdmin@@EAEPAXPBD@Z
?_ptrToInterface@_impl_ProxyPullSupplier@CosNotifyChannelAdmin@@$0PPPPPPPM@A@AEPAXPBD@Z
?_ptrToInterface@_impl_ProxyPullSupplier@CosNotifyChannelAdmin@@$R07CA@PPPPPPPM@M@AEPAXPBD@Z
?_ptrToInterface@_impl_ProxyPullSupplier@CosNotifyChannelAdmin@@EAEPAXPBD@Z
?_ptrToInterface@_impl_ProxyPushConsumer@CosEventChannelAdmin@@$0PPPPPPPM@A@AEPAXPBD@Z
?_ptrToInterface@_impl_ProxyPushConsumer@CosEventChannelAdmin@@$R07M@PPPPPPPM@M@AEPAXPBD@Z
?_ptrToInterface@_impl_ProxyPushConsumer@CosEventChannelAdmin@@EAEPAXPBD@Z
?_ptrToInterface@_impl_ProxyPushConsumer@CosNotifyChannelAdmin@@$0PPPPPPPM@A@AEPAXPBD@Z
?_ptrToInterface@_impl_ProxyPushConsumer@CosNotifyChannelAdmin@@$R07CA@PPPPPPPM@M@AEPAXPBD@Z
?_ptrToInterface@_impl_ProxyPushConsumer@CosNotifyChannelAdmin@@EAEPAXPBD@Z
?_ptrToInterface@_impl_ProxyPushSupplier@CosEventChannelAdmin@@$0PPPPPPPM@A@AEPAXPBD@Z
?_ptrToInterface@_impl_ProxyPushSupplier@CosEventChannelAdmin@@$R07M@PPPPPPPM@M@AEPAXPBD@Z
?_ptrToInterface@_impl_ProxyPushSupplier@CosEventChannelAdmin@@EAEPAXPBD@Z
?_ptrToInterface@_impl_ProxyPushSupplier@CosNotifyChannelAdmin@@$0PPPPPPPM@A@AEPAXPBD@Z
?_ptrToInterface@_impl_ProxyPushSupplier@CosNotifyChannelAdmin@@$R07CA@PPPPPPPM@M@AEPAXPBD@Z
?_ptrToInterface@_impl_ProxyPushSupplier@CosNotifyChannelAdmin@@EAEPAXPBD@Z
?_ptrToInterface@_impl_ProxySupplier@CosNotifyChannelAdmin@@$0PPPPPPPM@A@AEPAXPBD@Z
?_ptrToInterface@_impl_ProxySupplier@CosNotifyChannelAdmin@@$R07BA@PPPPPPPM@M@AEPAXPBD@Z
?_ptrToInterface@_impl_ProxySupplier@CosNotifyChannelAdmin@@EAEPAXPBD@Z
?_ptrToInterface@_impl_PullConsumer@CosEventComm@@$0PPPPPPPM@A@AEPAXPBD@Z
?_ptrToInterface@_impl_PullConsumer@CosEventComm@@$R077PPPPPPPM@M@AEPAXPBD@Z
?_ptrToInterface@_impl_PullConsumer@CosEventComm@@EAEPAXPBD@Z
?_ptrToInterface@_impl_PullConsumer@CosNotifyComm@@$0PPPPPPPM@A@AEPAXPBD@Z
?_ptrToInterface@_impl_PullConsumer@CosNotifyComm@@$R07BA@PPPPPPPM@7AEPAXPBD@Z
?_ptrToInterface@_impl_PullConsumer@CosNotifyComm@@EAEPAXPBD@Z
?_ptrToInterface@_impl_PullSupplier@CosEventComm@@$0PPPPPPPM@A@AEPAXPBD@Z
?_ptrToInterface@_impl_PullSupplier@CosEventComm@@$R077PPPPPPPM@M@AEPAXPBD@Z
?_ptrToInterface@_impl_PullSupplier@CosEventComm@@EAEPAXPBD@Z
?_ptrToInterface@_impl_PullSupplier@CosNotifyComm@@$0PPPPPPPM@A@AEPAXPBD@Z
?_ptrToInterface@_impl_PullSupplier@CosNotifyComm@@$R07BA@PPPPPPPM@7AEPAXPBD@Z
?_ptrToInterface@_impl_PullSupplier@CosNotifyComm@@EAEPAXPBD@Z
?_ptrToInterface@_impl_PushConsumer@CosEventComm@@$0PPPPPPPM@A@AEPAXPBD@Z
?_ptrToInterface@_impl_PushConsumer@CosEventComm@@$R077PPPPPPPM@M@AEPAXPBD@Z
?_ptrToInterface@_impl_PushConsumer@CosEventComm@@EAEPAXPBD@Z
?_ptrToInterface@_impl_PushConsumer@CosNotifyComm@@$0PPPPPPPM@A@AEPAXPBD@Z
?_ptrToInterface@_impl_PushConsumer@CosNotifyComm@@$R07BA@PPPPPPPM@7AEPAXPBD@Z
?_ptrToInterface@_impl_PushConsumer@CosNotifyComm@@EAEPAXPBD@Z
?_ptrToInterface@_impl_PushSupplier@CosEventComm@@$0PPPPPPPM@A@AEPAXPBD@Z
?_ptrToInterface@_impl_PushSupplier@CosEventComm@@$R077PPPPPPPM@M@AEPAXPBD@Z
?_ptrToInterface@_impl_PushSupplier@CosEventComm@@EAEPAXPBD@Z
?_ptrToInterface@_impl_PushSupplier@CosNotifyComm@@$0PPPPPPPM@A@AEPAXPBD@Z
?_ptrToInterface@_impl_PushSupplier@CosNotifyComm@@$R07BA@PPPPPPPM@7AEPAXPBD@Z
?_ptrToInterface@_impl_PushSupplier@CosNotifyComm@@EAEPAXPBD@Z
?_ptrToInterface@_impl_QoSAdmin@CosNotification@@$0PPPPPPPM@A@AEPAXPBD@Z
?_ptrToInterface@_impl_QoSAdmin@CosNotification@@$R077PPPPPPPM@M@AEPAXPBD@Z
?_ptrToInterface@_impl_QoSAdmin@CosNotification@@EAEPAXPBD@Z
?_ptrToInterface@_impl_SequenceProxyPullConsumer@CosNotifyChannelAdmin@@$0PPPPPPPM@A@AEPAXPBD@Z
?_ptrToInterface@_impl_SequenceProxyPullConsumer@CosNotifyChannelAdmin@@$R07BM@PPPPPPPM@M@AEPAXPBD@Z
?_ptrToInterface@_impl_SequenceProxyPullConsumer@CosNotifyChannelAdmin@@EAEPAXPBD@Z
?_ptrToInterface@_impl_SequenceProxyPullSupplier@CosNotifyChannelAdmin@@$0PPPPPPPM@A@AEPAXPBD@Z
?_ptrToInterface@_impl_SequenceProxyPullSupplier@CosNotifyChannelAdmin@@$R07BM@PPPPPPPM@M@AEPAXPBD@Z
?_ptrToInterface@_impl_SequenceProxyPullSupplier@CosNotifyChannelAdmin@@EAEPAXPBD@Z
?_ptrToInterface@_impl_SequenceProxyPushConsumer@CosNotifyChannelAdmin@@$0PPPPPPPM@A@AEPAXPBD@Z
?_ptrToInterface@_impl_SequenceProxyPushConsumer@CosNotifyChannelAdmin@@$R07BM@PPPPPPPM@M@AEPAXPBD@Z
?_ptrToInterface@_impl_SequenceProxyPushConsumer@CosNotifyChannelAdmin@@EAEPAXPBD@Z
?_ptrToInterface@_impl_SequenceProxyPushSupplier@CosNotifyChannelAdmin@@$0PPPPPPPM@A@AEPAXPBD@Z
?_ptrToInterface@_impl_SequenceProxyPushSupplier@CosNotifyChannelAdmin@@$R07BM@PPPPPPPM@M@AEPAXPBD@Z
?_ptrToInterface@_impl_SequenceProxyPushSupplier@CosNotifyChannelAdmin@@EAEPAXPBD@Z
?_ptrToInterface@_impl_SequencePullConsumer@CosNotifyComm@@$0PPPPPPPM@A@AEPAXPBD@Z
?_ptrToInterface@_impl_SequencePullConsumer@CosNotifyComm@@$R07M@PPPPPPPM@M@AEPAXPBD@Z
?_ptrToInterface@_impl_SequencePullConsumer@CosNotifyComm@@EAEPAXPBD@Z
?_ptrToInterface@_impl_SequencePullSupplier@CosNotifyComm@@$0PPPPPPPM@A@AEPAXPBD@Z
?_ptrToInterface@_impl_SequencePullSupplier@CosNotifyComm@@$R07M@PPPPPPPM@M@AEPAXPBD@Z
?_ptrToInterface@_impl_SequencePullSupplier@CosNotifyComm@@EAEPAXPBD@Z
?_ptrToInterface@_impl_SequencePushConsumer@CosNotifyComm@@$0PPPPPPPM@A@AEPAXPBD@Z
?_ptrToInterface@_impl_SequencePushConsumer@CosNotifyComm@@$R07M@PPPPPPPM@M@AEPAXPBD@Z
?_ptrToInterface@_impl_SequencePushConsumer@CosNotifyComm@@EAEPAXPBD@Z
?_ptrToInterface@_impl_SequencePushSupplier@CosNotifyComm@@$0PPPPPPPM@A@AEPAXPBD@Z
?_ptrToInterface@_impl_SequencePushSupplier@CosNotifyComm@@$R07M@PPPPPPPM@M@AEPAXPBD@Z
?_ptrToInterface@_impl_SequencePushSupplier@CosNotifyComm@@EAEPAXPBD@Z
?_ptrToInterface@_impl_StructuredProxyPullConsumer@CosNotifyChannelAdmin@@$0PPPPPPPM@A@AEPAXPBD@Z
?_ptrToInterface@_impl_StructuredProxyPullConsumer@CosNotifyChannelAdmin@@$R07BM@PPPPPPPM@M@AEPAXPBD@Z
?_ptrToInterface@_impl_StructuredProxyPullConsumer@CosNotifyChannelAdmin@@EAEPAXPBD@Z
?_ptrToInterface@_impl_StructuredProxyPullSupplier@CosNotifyChannelAdmin@@$0PPPPPPPM@A@AEPAXPBD@Z
?_ptrToInterface@_impl_StructuredProxyPullSupplier@CosNotifyChannelAdmin@@$R07BM@PPPPPPPM@M@AEPAXPBD@Z
?_ptrToInterface@_impl_StructuredProxyPullSupplier@CosNotifyChannelAdmin@@EAEPAXPBD@Z
?_ptrToInterface@_impl_StructuredProxyPushConsumer@CosNotifyChannelAdmin@@$0PPPPPPPM@A@AEPAXPBD@Z
?_ptrToInterface@_impl_StructuredProxyPushConsumer@CosNotifyChannelAdmin@@$R07BM@PPPPPPPM@M@AEPAXPBD@Z
?_ptrToInterface@_impl_StructuredProxyPushConsumer@CosNotifyChannelAdmin@@EAEPAXPBD@Z
?_ptrToInterface@_impl_StructuredProxyPushSupplier@CosNotifyChannelAdmin@@$0PPPPPPPM@A@AEPAXPBD@Z
?_ptrToInterface@_impl_StructuredProxyPushSupplier@CosNotifyChannelAdmin@@$R07BM@PPPPPPPM@M@AEPAXPBD@Z
?_ptrToInterface@_impl_StructuredProxyPushSupplier@CosNotifyChannelAdmin@@EAEPAXPBD@Z
?_ptrToInterface@_impl_StructuredPullConsumer@CosNotifyComm@@$0PPPPPPPM@A@AEPAXPBD@Z
?_ptrToInterface@_impl_StructuredPullConsumer@CosNotifyComm@@$R07M@PPPPPPPM@M@AEPAXPBD@Z
?_ptrToInterface@_impl_StructuredPullConsumer@CosNotifyComm@@EAEPAXPBD@Z
?_ptrToInterface@_impl_StructuredPullSupplier@CosNotifyComm@@$0PPPPPPPM@A@AEPAXPBD@Z
?_ptrToInterface@_impl_StructuredPullSupplier@CosNotifyComm@@$R07M@PPPPPPPM@M@AEPAXPBD@Z
?_ptrToInterface@_impl_StructuredPullSupplier@CosNotifyComm@@EAEPAXPBD@Z
?_ptrToInterface@_impl_StructuredPushConsumer@CosNotifyComm@@$0PPPPPPPM@A@AEPAXPBD@Z
?_ptrToInterface@_impl_StructuredPushConsumer@CosNotifyComm@@$R07M@PPPPPPPM@M@AEPAXPBD@Z
?_ptrToInterface@_impl_StructuredPushConsumer@CosNotifyComm@@EAEPAXPBD@Z
?_ptrToInterface@_impl_StructuredPushSupplier@CosNotifyComm@@$0PPPPPPPM@A@AEPAXPBD@Z
?_ptrToInterface@_impl_StructuredPushSupplier@CosNotifyComm@@$R07M@PPPPPPPM@M@AEPAXPBD@Z
?_ptrToInterface@_impl_StructuredPushSupplier@CosNotifyComm@@EAEPAXPBD@Z
?_ptrToInterface@_impl_SupplierAdmin@CosEventChannelAdmin@@$0PPPPPPPM@A@AEPAXPBD@Z
?_ptrToInterface@_impl_SupplierAdmin@CosEventChannelAdmin@@$R077PPPPPPPM@M@AEPAXPBD@Z
?_ptrToInterface@_impl_SupplierAdmin@CosEventChannelAdmin@@EAEPAXPBD@Z
?_ptrToInterface@_impl_SupplierAdmin@CosNotifyChannelAdmin@@$0PPPPPPPM@A@AEPAXPBD@Z
?_ptrToInterface@_impl_SupplierAdmin@CosNotifyChannelAdmin@@$R07BI@PPPPPPPM@M@AEPAXPBD@Z
?_ptrToInterface@_impl_SupplierAdmin@CosNotifyChannelAdmin@@EAEPAXPBD@Z
?_ptrToInterface@_impl_TIO@CosTime@@$0PPPPPPPM@A@AEPAXPBD@Z
?_ptrToInterface@_impl_TIO@CosTime@@$R077PPPPPPPM@M@AEPAXPBD@Z
?_ptrToInterface@_impl_TIO@CosTime@@EAEPAXPBD@Z
?_ptrToInterface@_impl_TimeService@CosTime@@$0PPPPPPPM@A@AEPAXPBD@Z
?_ptrToInterface@_impl_TimeService@CosTime@@$R077PPPPPPPM@M@AEPAXPBD@Z
?_ptrToInterface@_impl_TimeService@CosTime@@EAEPAXPBD@Z
?_ptrToInterface@_impl_UTO@CosTime@@$0PPPPPPPM@A@AEPAXPBD@Z
?_ptrToInterface@_impl_UTO@CosTime@@$R077PPPPPPPM@M@AEPAXPBD@Z
?_ptrToInterface@_impl_UTO@CosTime@@EAEPAXPBD@Z
?_ptrToObjRef@_objref_AdminPropertiesAdmin@CosNotification@@$0PPPPPPPM@A@AEPAXPBD@Z
?_ptrToObjRef@_objref_AdminPropertiesAdmin@CosNotification@@$0PPPPPPPM@BA@AEPAXPBD@Z
?_ptrToObjRef@_objref_AdminPropertiesAdmin@CosNotification@@EAEPAXPBD@Z
?_ptrToObjRef@_objref_ConsumerAdmin@CosEventChannelAdmin@@$0PPPPPPPM@A@AEPAXPBD@Z
?_ptrToObjRef@_objref_ConsumerAdmin@CosEventChannelAdmin@@$0PPPPPPPM@BA@AEPAXPBD@Z
?_ptrToObjRef@_objref_ConsumerAdmin@CosEventChannelAdmin@@EAEPAXPBD@Z
?_ptrToObjRef@_objref_ConsumerAdmin@CosNotifyChannelAdmin@@$0PPPPPPPM@A@AEPAXPBD@Z
?_ptrToObjRef@_objref_ConsumerAdmin@CosNotifyChannelAdmin@@$0PPPPPPPM@BA@AEPAXPBD@Z
?_ptrToObjRef@_objref_ConsumerAdmin@CosNotifyChannelAdmin@@EAEPAXPBD@Z
?_ptrToObjRef@_objref_EventChannel@CosEventChannelAdmin@@$0PPPPPPPM@A@AEPAXPBD@Z
?_ptrToObjRef@_objref_EventChannel@CosEventChannelAdmin@@$0PPPPPPPM@BA@AEPAXPBD@Z
?_ptrToObjRef@_objref_EventChannel@CosEventChannelAdmin@@EAEPAXPBD@Z
?_ptrToObjRef@_objref_EventChannel@CosNotifyChannelAdmin@@$0PPPPPPPM@A@AEPAXPBD@Z
?_ptrToObjRef@_objref_EventChannel@CosNotifyChannelAdmin@@$0PPPPPPPM@BA@AEPAXPBD@Z
?_ptrToObjRef@_objref_EventChannel@CosNotifyChannelAdmin@@EAEPAXPBD@Z
?_ptrToObjRef@_objref_EventChannelFactory@CosNotifyChannelAdmin@@$0PPPPPPPM@A@AEPAXPBD@Z
?_ptrToObjRef@_objref_EventChannelFactory@CosNotifyChannelAdmin@@$0PPPPPPPM@BA@AEPAXPBD@Z
?_ptrToObjRef@_objref_EventChannelFactory@CosNotifyChannelAdmin@@EAEPAXPBD@Z
?_ptrToObjRef@_objref_FactoryFinder@CosLifeCycle@@$0PPPPPPPM@A@AEPAXPBD@Z
?_ptrToObjRef@_objref_FactoryFinder@CosLifeCycle@@$0PPPPPPPM@BA@AEPAXPBD@Z
?_ptrToObjRef@_objref_FactoryFinder@CosLifeCycle@@EAEPAXPBD@Z
?_ptrToObjRef@_objref_Filter@CosNotifyFilter@@$0PPPPPPPM@A@AEPAXPBD@Z
?_ptrToObjRef@_objref_Filter@CosNotifyFilter@@$0PPPPPPPM@BA@AEPAXPBD@Z
?_ptrToObjRef@_objref_Filter@CosNotifyFilter@@EAEPAXPBD@Z
?_ptrToObjRef@_objref_FilterAdmin@CosNotifyFilter@@$0PPPPPPPM@A@AEPAXPBD@Z
?_ptrToObjRef@_objref_FilterAdmin@CosNotifyFilter@@$0PPPPPPPM@BA@AEPAXPBD@Z
?_ptrToObjRef@_objref_FilterAdmin@CosNotifyFilter@@EAEPAXPBD@Z
?_ptrToObjRef@_objref_FilterFactory@CosNotifyFilter@@$0PPPPPPPM@A@AEPAXPBD@Z
?_ptrToObjRef@_objref_FilterFactory@CosNotifyFilter@@$0PPPPPPPM@BA@AEPAXPBD@Z
?_ptrToObjRef@_objref_FilterFactory@CosNotifyFilter@@EAEPAXPBD@Z
?_ptrToObjRef@_objref_GenericFactory@CosLifeCycle@@$0PPPPPPPM@A@AEPAXPBD@Z
?_ptrToObjRef@_objref_GenericFactory@CosLifeCycle@@$0PPPPPPPM@BA@AEPAXPBD@Z
?_ptrToObjRef@_objref_GenericFactory@CosLifeCycle@@EAEPAXPBD@Z
?_ptrToObjRef@_objref_LifeCycleObject@CosLifeCycle@@$0PPPPPPPM@A@AEPAXPBD@Z
?_ptrToObjRef@_objref_LifeCycleObject@CosLifeCycle@@$0PPPPPPPM@BA@AEPAXPBD@Z
?_ptrToObjRef@_objref_LifeCycleObject@CosLifeCycle@@EAEPAXPBD@Z
?_ptrToObjRef@_objref_MappingFilter@CosNotifyFilter@@$0PPPPPPPM@A@AEPAXPBD@Z
?_ptrToObjRef@_objref_MappingFilter@CosNotifyFilter@@$0PPPPPPPM@BA@AEPAXPBD@Z
?_ptrToObjRef@_objref_MappingFilter@CosNotifyFilter@@EAEPAXPBD@Z
?_ptrToObjRef@_objref_NotifyPublish@CosNotifyComm@@$0PPPPPPPM@A@AEPAXPBD@Z
?_ptrToObjRef@_objref_NotifyPublish@CosNotifyComm@@$0PPPPPPPM@BA@AEPAXPBD@Z
?_ptrToObjRef@_objref_NotifyPublish@CosNotifyComm@@EAEPAXPBD@Z
?_ptrToObjRef@_objref_NotifySubscribe@CosNotifyComm@@$0PPPPPPPM@A@AEPAXPBD@Z
?_ptrToObjRef@_objref_NotifySubscribe@CosNotifyComm@@$0PPPPPPPM@BA@AEPAXPBD@Z
?_ptrToObjRef@_objref_NotifySubscribe@CosNotifyComm@@EAEPAXPBD@Z
?_ptrToObjRef@_objref_ProxyConsumer@CosNotifyChannelAdmin@@$0PPPPPPPM@A@AEPAXPBD@Z
?_ptrToObjRef@_objref_ProxyConsumer@CosNotifyChannelAdmin@@$0PPPPPPPM@BA@AEPAXPBD@Z
?_ptrToObjRef@_objref_ProxyConsumer@CosNotifyChannelAdmin@@EAEPAXPBD@Z
?_ptrToObjRef@_objref_ProxyPullConsumer@CosEventChannelAdmin@@$0PPPPPPPM@A@AEPAXPBD@Z
?_ptrToObjRef@_objref_ProxyPullConsumer@CosEventChannelAdmin@@$0PPPPPPPM@BA@AEPAXPBD@Z
?_ptrToObjRef@_objref_ProxyPullConsumer@CosEventChannelAdmin@@EAEPAXPBD@Z
?_ptrToObjRef@_objref_ProxyPullConsumer@CosNotifyChannelAdmin@@$0PPPPPPPM@A@AEPAXPBD@Z
?_ptrToObjRef@_objref_ProxyPullConsumer@CosNotifyChannelAdmin@@$0PPPPPPPM@BA@AEPAXPBD@Z
?_ptrToObjRef@_objref_ProxyPullConsumer@CosNotifyChannelAdmin@@EAEPAXPBD@Z
?_ptrToObjRef@_objref_ProxyPullSupplier@CosEventChannelAdmin@@$0PPPPPPPM@A@AEPAXPBD@Z
?_ptrToObjRef@_objref_ProxyPullSupplier@CosEventChannelAdmin@@$0PPPPPPPM@BA@AEPAXPBD@Z
?_ptrToObjRef@_objref_ProxyPullSupplier@CosEventChannelAdmin@@EAEPAXPBD@Z
?_ptrToObjRef@_objref_ProxyPullSupplier@CosNotifyChannelAdmin@@$0PPPPPPPM@A@AEPAXPBD@Z
?_ptrToObjRef@_objref_ProxyPullSupplier@CosNotifyChannelAdmin@@$0PPPPPPPM@BA@AEPAXPBD@Z
?_ptrToObjRef@_objref_ProxyPullSupplier@CosNotifyChannelAdmin@@EAEPAXPBD@Z
?_ptrToObjRef@_objref_ProxyPushConsumer@CosEventChannelAdmin@@$0PPPPPPPM@A@AEPAXPBD@Z
?_ptrToObjRef@_objref_ProxyPushConsumer@CosEventChannelAdmin@@$0PPPPPPPM@BA@AEPAXPBD@Z
?_ptrToObjRef@_objref_ProxyPushConsumer@CosEventChannelAdmin@@EAEPAXPBD@Z
?_ptrToObjRef@_objref_ProxyPushConsumer@CosNotifyChannelAdmin@@$0PPPPPPPM@A@AEPAXPBD@Z
?_ptrToObjRef@_objref_ProxyPushConsumer@CosNotifyChannelAdmin@@$0PPPPPPPM@BA@AEPAXPBD@Z
?_ptrToObjRef@_objref_ProxyPushConsumer@CosNotifyChannelAdmin@@EAEPAXPBD@Z
?_ptrToObjRef@_objref_ProxyPushSupplier@CosEventChannelAdmin@@$0PPPPPPPM@A@AEPAXPBD@Z
?_ptrToObjRef@_objref_ProxyPushSupplier@CosEventChannelAdmin@@$0PPPPPPPM@BA@AEPAXPBD@Z
?_ptrToObjRef@_objref_ProxyPushSupplier@CosEventChannelAdmin@@EAEPAXPBD@Z
?_ptrToObjRef@_objref_ProxyPushSupplier@CosNotifyChannelAdmin@@$0PPPPPPPM@A@AEPAXPBD@Z
?_ptrToObjRef@_objref_ProxyPushSupplier@CosNotifyChannelAdmin@@$0PPPPPPPM@BA@AEPAXPBD@Z
?_ptrToObjRef@_objref_ProxyPushSupplier@CosNotifyChannelAdmin@@EAEPAXPBD@Z
?_ptrToObjRef@_objref_ProxySupplier@CosNotifyChannelAdmin@@$0PPPPPPPM@A@AEPAXPBD@Z
?_ptrToObjRef@_objref_ProxySupplier@CosNotifyChannelAdmin@@$0PPPPPPPM@BA@AEPAXPBD@Z
?_ptrToObjRef@_objref_ProxySupplier@CosNotifyChannelAdmin@@EAEPAXPBD@Z
?_ptrToObjRef@_objref_PullConsumer@CosEventComm@@$0PPPPPPPM@A@AEPAXPBD@Z
?_ptrToObjRef@_objref_PullConsumer@CosEventComm@@$0PPPPPPPM@BA@AEPAXPBD@Z
?_ptrToObjRef@_objref_PullConsumer@CosEventComm@@EAEPAXPBD@Z
?_ptrToObjRef@_objref_PullConsumer@CosNotifyComm@@$0PPPPPPPM@A@AEPAXPBD@Z
?_ptrToObjRef@_objref_PullConsumer@CosNotifyComm@@$0PPPPPPPM@BA@AEPAXPBD@Z
?_ptrToObjRef@_objref_PullConsumer@CosNotifyComm@@EAEPAXPBD@Z
?_ptrToObjRef@_objref_PullSupplier@CosEventComm@@$0PPPPPPPM@A@AEPAXPBD@Z
?_ptrToObjRef@_objref_PullSupplier@CosEventComm@@$0PPPPPPPM@BA@AEPAXPBD@Z
?_ptrToObjRef@_objref_PullSupplier@CosEventComm@@EAEPAXPBD@Z
?_ptrToObjRef@_objref_PullSupplier@CosNotifyComm@@$0PPPPPPPM@A@AEPAXPBD@Z
?_ptrToObjRef@_objref_PullSupplier@CosNotifyComm@@$0PPPPPPPM@BA@AEPAXPBD@Z
?_ptrToObjRef@_objref_PullSupplier@CosNotifyComm@@EAEPAXPBD@Z
?_ptrToObjRef@_objref_PushConsumer@CosEventComm@@$0PPPPPPPM@A@AEPAXPBD@Z
?_ptrToObjRef@_objref_PushConsumer@CosEventComm@@$0PPPPPPPM@BA@AEPAXPBD@Z
?_ptrToObjRef@_objref_PushConsumer@CosEventComm@@EAEPAXPBD@Z
?_ptrToObjRef@_objref_PushConsumer@CosNotifyComm@@$0PPPPPPPM@A@AEPAXPBD@Z
?_ptrToObjRef@_objref_PushConsumer@CosNotifyComm@@$0PPPPPPPM@BA@AEPAXPBD@Z
?_ptrToObjRef@_objref_PushConsumer@CosNotifyComm@@EAEPAXPBD@Z
?_ptrToObjRef@_objref_PushSupplier@CosEventComm@@$0PPPPPPPM@A@AEPAXPBD@Z
?_ptrToObjRef@_objref_PushSupplier@CosEventComm@@$0PPPPPPPM@BA@AEPAXPBD@Z
?_ptrToObjRef@_objref_PushSupplier@CosEventComm@@EAEPAXPBD@Z
?_ptrToObjRef@_objref_PushSupplier@CosNotifyComm@@$0PPPPPPPM@A@AEPAXPBD@Z
?_ptrToObjRef@_objref_PushSupplier@CosNotifyComm@@$0PPPPPPPM@BA@AEPAXPBD@Z
?_ptrToObjRef@_objref_PushSupplier@CosNotifyComm@@EAEPAXPBD@Z
?_ptrToObjRef@_objref_QoSAdmin@CosNotification@@$0PPPPPPPM@A@AEPAXPBD@Z
?_ptrToObjRef@_objref_QoSAdmin@CosNotification@@$0PPPPPPPM@BA@AEPAXPBD@Z
?_ptrToObjRef@_objref_QoSAdmin@CosNotification@@EAEPAXPBD@Z
?_ptrToObjRef@_objref_SequenceProxyPullConsumer@CosNotifyChannelAdmin@@$0PPPPPPPM@A@AEPAXPBD@Z
?_ptrToObjRef@_objref_SequenceProxyPullConsumer@CosNotifyChannelAdmin@@$0PPPPPPPM@BA@AEPAXPBD@Z
?_ptrToObjRef@_objref_SequenceProxyPullConsumer@CosNotifyChannelAdmin@@EAEPAXPBD@Z
?_ptrToObjRef@_objref_SequenceProxyPullSupplier@CosNotifyChannelAdmin@@$0PPPPPPPM@A@AEPAXPBD@Z
?_ptrToObjRef@_objref_SequenceProxyPullSupplier@CosNotifyChannelAdmin@@$0PPPPPPPM@BA@AEPAXPBD@Z
?_ptrToObjRef@_objref_SequenceProxyPullSupplier@CosNotifyChannelAdmin@@EAEPAXPBD@Z
?_ptrToObjRef@_objref_SequenceProxyPushConsumer@CosNotifyChannelAdmin@@$0PPPPPPPM@A@AEPAXPBD@Z
?_ptrToObjRef@_objref_SequenceProxyPushConsumer@CosNotifyChannelAdmin@@$0PPPPPPPM@BA@AEPAXPBD@Z
?_ptrToObjRef@_objref_SequenceProxyPushConsumer@CosNotifyChannelAdmin@@EAEPAXPBD@Z
?_ptrToObjRef@_objref_SequenceProxyPushSupplier@CosNotifyChannelAdmin@@$0PPPPPPPM@A@AEPAXPBD@Z
?_ptrToObjRef@_objref_SequenceProxyPushSupplier@CosNotifyChannelAdmin@@$0PPPPPPPM@BA@AEPAXPBD@Z
?_ptrToObjRef@_objref_SequenceProxyPushSupplier@CosNotifyChannelAdmin@@EAEPAXPBD@Z
?_ptrToObjRef@_objref_SequencePullConsumer@CosNotifyComm@@$0PPPPPPPM@A@AEPAXPBD@Z
?_ptrToObjRef@_objref_SequencePullConsumer@CosNotifyComm@@$0PPPPPPPM@BA@AEPAXPBD@Z
?_ptrToObjRef@_objref_SequencePullConsumer@CosNotifyComm@@EAEPAXPBD@Z
?_ptrToObjRef@_objref_SequencePullSupplier@CosNotifyComm@@$0PPPPPPPM@A@AEPAXPBD@Z
?_ptrToObjRef@_objref_SequencePullSupplier@CosNotifyComm@@$0PPPPPPPM@BA@AEPAXPBD@Z
?_ptrToObjRef@_objref_SequencePullSupplier@CosNotifyComm@@EAEPAXPBD@Z
?_ptrToObjRef@_objref_SequencePushConsumer@CosNotifyComm@@$0PPPPPPPM@A@AEPAXPBD@Z
?_ptrToObjRef@_objref_SequencePushConsumer@CosNotifyComm@@$0PPPPPPPM@BA@AEPAXPBD@Z
?_ptrToObjRef@_objref_SequencePushConsumer@CosNotifyComm@@EAEPAXPBD@Z
?_ptrToObjRef@_objref_SequencePushSupplier@CosNotifyComm@@$0PPPPPPPM@A@AEPAXPBD@Z
?_ptrToObjRef@_objref_SequencePushSupplier@CosNotifyComm@@$0PPPPPPPM@BA@AEPAXPBD@Z
?_ptrToObjRef@_objref_SequencePushSupplier@CosNotifyComm@@EAEPAXPBD@Z
?_ptrToObjRef@_objref_StructuredProxyPullConsumer@CosNotifyChannelAdmin@@$0PPPPPPPM@A@AEPAXPBD@Z
?_ptrToObjRef@_objref_StructuredProxyPullConsumer@CosNotifyChannelAdmin@@$0PPPPPPPM@BA@AEPAXPBD@Z
?_ptrToObjRef@_objref_StructuredProxyPullConsumer@CosNotifyChannelAdmin@@EAEPAXPBD@Z
?_ptrToObjRef@_objref_StructuredProxyPullSupplier@CosNotifyChannelAdmin@@$0PPPPPPPM@A@AEPAXPBD@Z
?_ptrToObjRef@_objref_StructuredProxyPullSupplier@CosNotifyChannelAdmin@@$0PPPPPPPM@BA@AEPAXPBD@Z
?_ptrToObjRef@_objref_StructuredProxyPullSupplier@CosNotifyChannelAdmin@@EAEPAXPBD@Z
?_ptrToObjRef@_objref_StructuredProxyPushConsumer@CosNotifyChannelAdmin@@$0PPPPPPPM@A@AEPAXPBD@Z
?_ptrToObjRef@_objref_StructuredProxyPushConsumer@CosNotifyChannelAdmin@@$0PPPPPPPM@BA@AEPAXPBD@Z
?_ptrToObjRef@_objref_StructuredProxyPushConsumer@CosNotifyChannelAdmin@@EAEPAXPBD@Z
?_ptrToObjRef@_objref_StructuredProxyPushSupplier@CosNotifyChannelAdmin@@$0PPPPPPPM@A@AEPAXPBD@Z
?_ptrToObjRef@_objref_StructuredProxyPushSupplier@CosNotifyChannelAdmin@@$0PPPPPPPM@BA@AEPAXPBD@Z
?_ptrToObjRef@_objref_StructuredProxyPushSupplier@CosNotifyChannelAdmin@@EAEPAXPBD@Z
?_ptrToObjRef@_objref_StructuredPullConsumer@CosNotifyComm@@$0PPPPPPPM@A@AEPAXPBD@Z
?_ptrToObjRef@_objref_StructuredPullConsumer@CosNotifyComm@@$0PPPPPPPM@BA@AEPAXPBD@Z
?_ptrToObjRef@_objref_StructuredPullConsumer@CosNotifyComm@@EAEPAXPBD@Z
?_ptrToObjRef@_objref_StructuredPullSupplier@CosNotifyComm@@$0PPPPPPPM@A@AEPAXPBD@Z
?_ptrToObjRef@_objref_StructuredPullSupplier@CosNotifyComm@@$0PPPPPPPM@BA@AEPAXPBD@Z
?_ptrToObjRef@_objref_StructuredPullSupplier@CosNotifyComm@@EAEPAXPBD@Z
?_ptrToObjRef@_objref_StructuredPushConsumer@CosNotifyComm@@$0PPPPPPPM@A@AEPAXPBD@Z
?_ptrToObjRef@_objref_StructuredPushConsumer@CosNotifyComm@@$0PPPPPPPM@BA@AEPAXPBD@Z
?_ptrToObjRef@_objref_StructuredPushConsumer@CosNotifyComm@@EAEPAXPBD@Z
?_ptrToObjRef@_objref_StructuredPushSupplier@CosNotifyComm@@$0PPPPPPPM@A@AEPAXPBD@Z
?_ptrToObjRef@_objref_StructuredPushSupplier@CosNotifyComm@@$0PPPPPPPM@BA@AEPAXPBD@Z
?_ptrToObjRef@_objref_StructuredPushSupplier@CosNotifyComm@@EAEPAXPBD@Z
?_ptrToObjRef@_objref_SupplierAdmin@CosEventChannelAdmin@@$0PPPPPPPM@A@AEPAXPBD@Z
?_ptrToObjRef@_objref_SupplierAdmin@CosEventChannelAdmin@@$0PPPPPPPM@BA@AEPAXPBD@Z
?_ptrToObjRef@_objref_SupplierAdmin@CosEventChannelAdmin@@EAEPAXPBD@Z
?_ptrToObjRef@_objref_SupplierAdmin@CosNotifyChannelAdmin@@$0PPPPPPPM@A@AEPAXPBD@Z
?_ptrToObjRef@_objref_SupplierAdmin@CosNotifyChannelAdmin@@$0PPPPPPPM@BA@AEPAXPBD@Z
?_ptrToObjRef@_objref_SupplierAdmin@CosNotifyChannelAdmin@@EAEPAXPBD@Z
?_ptrToObjRef@_objref_TIO@CosTime@@$0PPPPPPPM@A@AEPAXPBD@Z
?_ptrToObjRef@_objref_TIO@CosTime@@$0PPPPPPPM@BA@AEPAXPBD@Z
?_ptrToObjRef@_objref_TIO@CosTime@@EAEPAXPBD@Z
?_ptrToObjRef@_objref_TimeService@CosTime@@$0PPPPPPPM@A@AEPAXPBD@Z
?_ptrToObjRef@_objref_TimeService@CosTime@@$0PPPPPPPM@BA@AEPAXPBD@Z
?_ptrToObjRef@_objref_TimeService@CosTime@@EAEPAXPBD@Z
?_ptrToObjRef@_objref_UTO@CosTime@@$0PPPPPPPM@A@AEPAXPBD@Z
?_ptrToObjRef@_objref_UTO@CosTime@@$0PPPPPPPM@BA@AEPAXPBD@Z
?_ptrToObjRef@_objref_UTO@CosTime@@EAEPAXPBD@Z
?_raise@AdminLimitExceeded@CosNotifyChannelAdmin@@UBEXXZ
?_raise@AdminNotFound@CosNotifyChannelAdmin@@UBEXXZ
?_raise@AlreadyConnected@CosEventChannelAdmin@@UBEXXZ
?_raise@CallbackNotFound@CosNotifyFilter@@UBEXXZ
?_raise@CannotMeetCriteria@CosLifeCycle@@UBEXXZ
?_raise@ChannelNotFound@CosNotifyChannelAdmin@@UBEXXZ
?_raise@ConnectionAlreadyActive@CosNotifyChannelAdmin@@UBEXXZ
?_raise@ConnectionAlreadyInactive@CosNotifyChannelAdmin@@UBEXXZ
?_raise@ConstraintNotFound@CosNotifyFilter@@UBEXXZ
?_raise@Disconnected@CosEventComm@@UBEXXZ
?_raise@DuplicateConstraintID@CosNotifyFilter@@UBEXXZ
?_raise@FilterNotFound@CosNotifyFilter@@UBEXXZ
?_raise@InvalidConstraint@CosNotifyFilter@@UBEXXZ
?_raise@InvalidCriteria@CosLifeCycle@@UBEXXZ
?_raise@InvalidEventType@CosNotifyComm@@UBEXXZ
?_raise@InvalidGrammar@CosNotifyFilter@@UBEXXZ
?_raise@InvalidValue@CosNotifyFilter@@UBEXXZ
?_raise@NoFactory@CosLifeCycle@@UBEXXZ
?_raise@NotConnected@CosNotifyChannelAdmin@@UBEXXZ
?_raise@NotCopyable@CosLifeCycle@@UBEXXZ
?_raise@NotMovable@CosLifeCycle@@UBEXXZ
?_raise@NotRemovable@CosLifeCycle@@UBEXXZ
?_raise@ProxyNotFound@CosNotifyChannelAdmin@@UBEXXZ
?_raise@TimeUnavailable@CosTime@@UBEXXZ
?_raise@TypeError@CosEventChannelAdmin@@UBEXXZ
?_raise@UnsupportedAdmin@CosNotification@@UBEXXZ
?_raise@UnsupportedFilterableData@CosNotifyFilter@@UBEXXZ
?_raise@UnsupportedQoS@CosNotification@@UBEXXZ
?_remove_ref@ServantBase@PortableServer@@$R47BA@PPPPPPPM@BA@AEXXZ
?_remove_ref@ServantBase@PortableServer@@$R47BE@PPPPPPPM@BA@AEXXZ
?_remove_ref@ServantBase@PortableServer@@$R47BI@PPPPPPPM@BA@AEXXZ
?_remove_ref@ServantBase@PortableServer@@$R47BM@PPPPPPPM@BA@AEXXZ
?_remove_ref@ServantBase@PortableServer@@$R47CA@PPPPPPPM@BA@AEXXZ
?_remove_ref@ServantBase@PortableServer@@$R47CE@PPPPPPPM@BA@AEXXZ
?_remove_ref@ServantBase@PortableServer@@$R47M@PPPPPPPM@BA@AEXXZ
?_retn@?$_CORBA_ConstrType_Variable_Var@UStructuredEvent@CosNotification@@@@QAEPAUStructuredEvent@CosNotification@@XZ
?_retn@?$_CORBA_ObjRef_Var@V_objref_ConsumerAdmin@CosEventChannelAdmin@@VConsumerAdmin_Helper@2@@@QAEPAV_objref_ConsumerAdmin@CosEventChannelAdmin@@XZ
?_retn@?$_CORBA_ObjRef_Var@V_objref_ConsumerAdmin@CosNotifyChannelAdmin@@VConsumerAdmin_Helper@2@@@QAEPAV_objref_ConsumerAdmin@CosNotifyChannelAdmin@@XZ
?_retn@?$_CORBA_ObjRef_Var@V_objref_EventChannel@CosNotifyChannelAdmin@@VEventChannel_Helper@2@@@QAEPAV_objref_EventChannel@CosNotifyChannelAdmin@@XZ
?_retn@?$_CORBA_ObjRef_Var@V_objref_EventChannelFactory@CosNotifyChannelAdmin@@VEventChannelFactory_Helper@2@@@QAEPAV_objref_EventChannelFactory@CosNotifyChannelAdmin@@XZ
?_retn@?$_CORBA_ObjRef_Var@V_objref_Filter@CosNotifyFilter@@VFilter_Helper@2@@@QAEPAV_objref_Filter@CosNotifyFilter@@XZ
?_retn@?$_CORBA_ObjRef_Var@V_objref_FilterFactory@CosNotifyFilter@@VFilterFactory_Helper@2@@@QAEPAV_objref_FilterFactory@CosNotifyFilter@@XZ
?_retn@?$_CORBA_ObjRef_Var@V_objref_LifeCycleObject@CosLifeCycle@@VLifeCycleObject_Helper@2@@@QAEPAV_objref_LifeCycleObject@CosLifeCycle@@XZ
?_retn@?$_CORBA_ObjRef_Var@V_objref_MappingFilter@CosNotifyFilter@@VMappingFilter_Helper@2@@@QAEPAV_objref_MappingFilter@CosNotifyFilter@@XZ
?_retn@?$_CORBA_ObjRef_Var@V_objref_ProxyConsumer@CosNotifyChannelAdmin@@VProxyConsumer_Helper@2@@@QAEPAV_objref_ProxyConsumer@CosNotifyChannelAdmin@@XZ
?_retn@?$_CORBA_ObjRef_Var@V_objref_ProxyPullConsumer@CosEventChannelAdmin@@VProxyPullConsumer_Helper@2@@@QAEPAV_objref_ProxyPullConsumer@CosEventChannelAdmin@@XZ
?_retn@?$_CORBA_ObjRef_Var@V_objref_ProxyPullSupplier@CosEventChannelAdmin@@VProxyPullSupplier_Helper@2@@@QAEPAV_objref_ProxyPullSupplier@CosEventChannelAdmin@@XZ
?_retn@?$_CORBA_ObjRef_Var@V_objref_ProxyPushConsumer@CosEventChannelAdmin@@VProxyPushConsumer_Helper@2@@@QAEPAV_objref_ProxyPushConsumer@CosEventChannelAdmin@@XZ
?_retn@?$_CORBA_ObjRef_Var@V_objref_ProxyPushSupplier@CosEventChannelAdmin@@VProxyPushSupplier_Helper@2@@@QAEPAV_objref_ProxyPushSupplier@CosEventChannelAdmin@@XZ
?_retn@?$_CORBA_ObjRef_Var@V_objref_ProxySupplier@CosNotifyChannelAdmin@@VProxySupplier_Helper@2@@@QAEPAV_objref_ProxySupplier@CosNotifyChannelAdmin@@XZ
?_retn@?$_CORBA_ObjRef_Var@V_objref_SupplierAdmin@CosEventChannelAdmin@@VSupplierAdmin_Helper@2@@@QAEPAV_objref_SupplierAdmin@CosEventChannelAdmin@@XZ
?_retn@?$_CORBA_ObjRef_Var@V_objref_SupplierAdmin@CosNotifyChannelAdmin@@VSupplierAdmin_Helper@2@@@QAEPAV_objref_SupplierAdmin@CosNotifyChannelAdmin@@XZ
?_retn@?$_CORBA_ObjRef_Var@V_objref_TIO@CosTime@@VTIO_Helper@2@@@QAEPAV_objref_TIO@CosTime@@XZ
?_retn@?$_CORBA_ObjRef_Var@V_objref_UTO@CosTime@@VUTO_Helper@2@@@QAEPAV_objref_UTO@CosTime@@XZ
?_retn@AdminIDSeq_var@CosNotifyChannelAdmin@@QAEPAVAdminIDSeq@2@XZ
?_retn@Any_var@CORBA@@QAEPAVAny@2@XZ
?_retn@CallbackIDSeq_var@CosNotifyFilter@@QAEPAVCallbackIDSeq@2@XZ
?_retn@ChannelIDSeq_var@CosNotifyChannelAdmin@@QAEPAVChannelIDSeq@2@XZ
?_retn@ConstraintInfoSeq_var@CosNotifyFilter@@QAEPAVConstraintInfoSeq@2@XZ
?_retn@EventBatch_var@CosNotification@@QAEPAVEventBatch@2@XZ
?_retn@EventTypeSeq_var@CosNotification@@QAEPAVEventTypeSeq@2@XZ
?_retn@Factories_var@CosLifeCycle@@QAEPAVFactories@2@XZ
?_retn@FilterIDSeq_var@CosNotifyFilter@@QAEPAVFilterIDSeq@2@XZ
?_retn@MappingConstraintInfoSeq_var@CosNotifyFilter@@QAEPAVMappingConstraintInfoSeq@2@XZ
?_retn@NamedPropertyRangeSeq_var@CosNotification@@QAEPAVNamedPropertyRangeSeq@2@XZ
?_retn@Object_var@CORBA@@QAEPAVObject@2@XZ
?_retn@PropertySeq_var@CosNotification@@QAEPAVPropertySeq@2@XZ
?_retn@ProxyIDSeq_var@CosNotifyChannelAdmin@@QAEPAVProxyIDSeq@2@XZ
?_retn@TypeCode_var@CORBA@@QAEPAVTypeCode@2@XZ
?_retn@_CORBA_String_var@@QAEPADXZ
?_unchecked_narrow@AdminPropertiesAdmin@CosNotification@@SAPAV_objref_AdminPropertiesAdmin@2@PAVObject@CORBA@@@Z
?_unchecked_narrow@ConsumerAdmin@CosEventChannelAdmin@@SAPAV_objref_ConsumerAdmin@2@PAVObject@CORBA@@@Z
?_unchecked_narrow@ConsumerAdmin@CosNotifyChannelAdmin@@SAPAV_objref_ConsumerAdmin@2@PAVObject@CORBA@@@Z
?_unchecked_narrow@EventChannel@CosEventChannelAdmin@@SAPAV_objref_EventChannel@2@PAVObject@CORBA@@@Z
?_unchecked_narrow@EventChannel@CosNotifyChannelAdmin@@SAPAV_objref_EventChannel@2@PAVObject@CORBA@@@Z
?_unchecked_narrow@EventChannelFactory@CosNotifyChannelAdmin@@SAPAV_objref_EventChannelFactory@2@PAVObject@CORBA@@@Z
?_unchecked_narrow@FactoryFinder@CosLifeCycle@@SAPAV_objref_FactoryFinder@2@PAVObject@CORBA@@@Z
?_unchecked_narrow@Filter@CosNotifyFilter@@SAPAV_objref_Filter@2@PAVObject@CORBA@@@Z
?_unchecked_narrow@FilterAdmin@CosNotifyFilter@@SAPAV_objref_FilterAdmin@2@PAVObject@CORBA@@@Z
?_unchecked_narrow@FilterFactory@CosNotifyFilter@@SAPAV_objref_FilterFactory@2@PAVObject@CORBA@@@Z
?_unchecked_narrow@GenericFactory@CosLifeCycle@@SAPAV_objref_GenericFactory@2@PAVObject@CORBA@@@Z
?_unchecked_narrow@LifeCycleObject@CosLifeCycle@@SAPAV_objref_LifeCycleObject@2@PAVObject@CORBA@@@Z
?_unchecked_narrow@MappingFilter@CosNotifyFilter@@SAPAV_objref_MappingFilter@2@PAVObject@CORBA@@@Z
?_unchecked_narrow@NotifyPublish@CosNotifyComm@@SAPAV_objref_NotifyPublish@2@PAVObject@CORBA@@@Z
?_unchecked_narrow@NotifySubscribe@CosNotifyComm@@SAPAV_objref_NotifySubscribe@2@PAVObject@CORBA@@@Z
?_unchecked_narrow@ProxyConsumer@CosNotifyChannelAdmin@@SAPAV_objref_ProxyConsumer@2@PAVObject@CORBA@@@Z
?_unchecked_narrow@ProxyPullConsumer@CosEventChannelAdmin@@SAPAV_objref_ProxyPullConsumer@2@PAVObject@CORBA@@@Z
?_unchecked_narrow@ProxyPullConsumer@CosNotifyChannelAdmin@@SAPAV_objref_ProxyPullConsumer@2@PAVObject@CORBA@@@Z
?_unchecked_narrow@ProxyPullSupplier@CosEventChannelAdmin@@SAPAV_objref_ProxyPullSupplier@2@PAVObject@CORBA@@@Z
?_unchecked_narrow@ProxyPullSupplier@CosNotifyChannelAdmin@@SAPAV_objref_ProxyPullSupplier@2@PAVObject@CORBA@@@Z
?_unchecked_narrow@ProxyPushConsumer@CosEventChannelAdmin@@SAPAV_objref_ProxyPushConsumer@2@PAVObject@CORBA@@@Z
?_unchecked_narrow@ProxyPushConsumer@CosNotifyChannelAdmin@@SAPAV_objref_ProxyPushConsumer@2@PAVObject@CORBA@@@Z
?_unchecked_narrow@ProxyPushSupplier@CosEventChannelAdmin@@SAPAV_objref_ProxyPushSupplier@2@PAVObject@CORBA@@@Z
?_unchecked_narrow@ProxyPushSupplier@CosNotifyChannelAdmin@@SAPAV_objref_ProxyPushSupplier@2@PAVObject@CORBA@@@Z
?_unchecked_narrow@ProxySupplier@CosNotifyChannelAdmin@@SAPAV_objref_ProxySupplier@2@PAVObject@CORBA@@@Z
?_unchecked_narrow@PullConsumer@CosEventComm@@SAPAV_objref_PullConsumer@2@PAVObject@CORBA@@@Z
?_unchecked_narrow@PullConsumer@CosNotifyComm@@SAPAV_objref_PullConsumer@2@PAVObject@CORBA@@@Z
?_unchecked_narrow@PullSupplier@CosEventComm@@SAPAV_objref_PullSupplier@2@PAVObject@CORBA@@@Z
?_unchecked_narrow@PullSupplier@CosNotifyComm@@SAPAV_objref_PullSupplier@2@PAVObject@CORBA@@@Z
?_unchecked_narrow@PushConsumer@CosEventComm@@SAPAV_objref_PushConsumer@2@PAVObject@CORBA@@@Z
?_unchecked_narrow@PushConsumer@CosNotifyComm@@SAPAV_objref_PushConsumer@2@PAVObject@CORBA@@@Z
?_unchecked_narrow@PushSupplier@CosEventComm@@SAPAV_objref_PushSupplier@2@PAVObject@CORBA@@@Z
?_unchecked_narrow@PushSupplier@CosNotifyComm@@SAPAV_objref_PushSupplier@2@PAVObject@CORBA@@@Z
?_unchecked_narrow@QoSAdmin@CosNotification@@SAPAV_objref_QoSAdmin@2@PAVObject@CORBA@@@Z
?_unchecked_narrow@SequenceProxyPullConsumer@CosNotifyChannelAdmin@@SAPAV_objref_SequenceProxyPullConsumer@2@PAVObject@CORBA@@@Z
?_unchecked_narrow@SequenceProxyPullSupplier@CosNotifyChannelAdmin@@SAPAV_objref_SequenceProxyPullSupplier@2@PAVObject@CORBA@@@Z
?_unchecked_narrow@SequenceProxyPushConsumer@CosNotifyChannelAdmin@@SAPAV_objref_SequenceProxyPushConsumer@2@PAVObject@CORBA@@@Z
?_unchecked_narrow@SequenceProxyPushSupplier@CosNotifyChannelAdmin@@SAPAV_objref_SequenceProxyPushSupplier@2@PAVObject@CORBA@@@Z
?_unchecked_narrow@SequencePullConsumer@CosNotifyComm@@SAPAV_objref_SequencePullConsumer@2@PAVObject@CORBA@@@Z
?_unchecked_narrow@SequencePullSupplier@CosNotifyComm@@SAPAV_objref_SequencePullSupplier@2@PAVObject@CORBA@@@Z
?_unchecked_narrow@SequencePushConsumer@CosNotifyComm@@SAPAV_objref_SequencePushConsumer@2@PAVObject@CORBA@@@Z
?_unchecked_narrow@SequencePushSupplier@CosNotifyComm@@SAPAV_objref_SequencePushSupplier@2@PAVObject@CORBA@@@Z
?_unchecked_narrow@StructuredProxyPullConsumer@CosNotifyChannelAdmin@@SAPAV_objref_StructuredProxyPullConsumer@2@PAVObject@CORBA@@@Z
?_unchecked_narrow@StructuredProxyPullSupplier@CosNotifyChannelAdmin@@SAPAV_objref_StructuredProxyPullSupplier@2@PAVObject@CORBA@@@Z
?_unchecked_narrow@StructuredProxyPushConsumer@CosNotifyChannelAdmin@@SAPAV_objref_StructuredProxyPushConsumer@2@PAVObject@CORBA@@@Z
?_unchecked_narrow@StructuredProxyPushSupplier@CosNotifyChannelAdmin@@SAPAV_objref_StructuredProxyPushSupplier@2@PAVObject@CORBA@@@Z
?_unchecked_narrow@StructuredPullConsumer@CosNotifyComm@@SAPAV_objref_StructuredPullConsumer@2@PAVObject@CORBA@@@Z
?_unchecked_narrow@StructuredPullSupplier@CosNotifyComm@@SAPAV_objref_StructuredPullSupplier@2@PAVObject@CORBA@@@Z
?_unchecked_narrow@StructuredPushConsumer@CosNotifyComm@@SAPAV_objref_StructuredPushConsumer@2@PAVObject@CORBA@@@Z
?_unchecked_narrow@StructuredPushSupplier@CosNotifyComm@@SAPAV_objref_StructuredPushSupplier@2@PAVObject@CORBA@@@Z
?_unchecked_narrow@SupplierAdmin@CosEventChannelAdmin@@SAPAV_objref_SupplierAdmin@2@PAVObject@CORBA@@@Z
?_unchecked_narrow@SupplierAdmin@CosNotifyChannelAdmin@@SAPAV_objref_SupplierAdmin@2@PAVObject@CORBA@@@Z
?_unchecked_narrow@TIO@CosTime@@SAPAV_objref_TIO@2@PAVObject@CORBA@@@Z
?_unchecked_narrow@TimeService@CosTime@@SAPAV_objref_TimeService@2@PAVObject@CORBA@@@Z
?_unchecked_narrow@UTO@CosTime@@SAPAV_objref_UTO@2@PAVObject@CORBA@@@Z
?_unmarshalObjRef@AdminPropertiesAdmin@CosNotification@@SAPAV_objref_AdminPropertiesAdmin@2@AAVcdrStream@@@Z
?_unmarshalObjRef@ConsumerAdmin@CosEventChannelAdmin@@SAPAV_objref_ConsumerAdmin@2@AAVcdrStream@@@Z
?_unmarshalObjRef@ConsumerAdmin@CosNotifyChannelAdmin@@SAPAV_objref_ConsumerAdmin@2@AAVcdrStream@@@Z
?_unmarshalObjRef@EventChannel@CosEventChannelAdmin@@SAPAV_objref_EventChannel@2@AAVcdrStream@@@Z
?_unmarshalObjRef@EventChannel@CosNotifyChannelAdmin@@SAPAV_objref_EventChannel@2@AAVcdrStream@@@Z
?_unmarshalObjRef@EventChannelFactory@CosNotifyChannelAdmin@@SAPAV_objref_EventChannelFactory@2@AAVcdrStream@@@Z
?_unmarshalObjRef@FactoryFinder@CosLifeCycle@@SAPAV_objref_FactoryFinder@2@AAVcdrStream@@@Z
?_unmarshalObjRef@Filter@CosNotifyFilter@@SAPAV_objref_Filter@2@AAVcdrStream@@@Z
?_unmarshalObjRef@FilterAdmin@CosNotifyFilter@@SAPAV_objref_FilterAdmin@2@AAVcdrStream@@@Z
?_unmarshalObjRef@FilterFactory@CosNotifyFilter@@SAPAV_objref_FilterFactory@2@AAVcdrStream@@@Z
?_unmarshalObjRef@GenericFactory@CosLifeCycle@@SAPAV_objref_GenericFactory@2@AAVcdrStream@@@Z
?_unmarshalObjRef@LifeCycleObject@CosLifeCycle@@SAPAV_objref_LifeCycleObject@2@AAVcdrStream@@@Z
?_unmarshalObjRef@MappingFilter@CosNotifyFilter@@SAPAV_objref_MappingFilter@2@AAVcdrStream@@@Z
?_unmarshalObjRef@NotifyPublish@CosNotifyComm@@SAPAV_objref_NotifyPublish@2@AAVcdrStream@@@Z
?_unmarshalObjRef@NotifySubscribe@CosNotifyComm@@SAPAV_objref_NotifySubscribe@2@AAVcdrStream@@@Z
?_unmarshalObjRef@ProxyConsumer@CosNotifyChannelAdmin@@SAPAV_objref_ProxyConsumer@2@AAVcdrStream@@@Z
?_unmarshalObjRef@ProxyPullConsumer@CosEventChannelAdmin@@SAPAV_objref_ProxyPullConsumer@2@AAVcdrStream@@@Z
?_unmarshalObjRef@ProxyPullConsumer@CosNotifyChannelAdmin@@SAPAV_objref_ProxyPullConsumer@2@AAVcdrStream@@@Z
?_unmarshalObjRef@ProxyPullSupplier@CosEventChannelAdmin@@SAPAV_objref_ProxyPullSupplier@2@AAVcdrStream@@@Z
?_unmarshalObjRef@ProxyPullSupplier@CosNotifyChannelAdmin@@SAPAV_objref_ProxyPullSupplier@2@AAVcdrStream@@@Z
?_unmarshalObjRef@ProxyPushConsumer@CosEventChannelAdmin@@SAPAV_objref_ProxyPushConsumer@2@AAVcdrStream@@@Z
?_unmarshalObjRef@ProxyPushConsumer@CosNotifyChannelAdmin@@SAPAV_objref_ProxyPushConsumer@2@AAVcdrStream@@@Z
?_unmarshalObjRef@ProxyPushSupplier@CosEventChannelAdmin@@SAPAV_objref_ProxyPushSupplier@2@AAVcdrStream@@@Z
?_unmarshalObjRef@ProxyPushSupplier@CosNotifyChannelAdmin@@SAPAV_objref_ProxyPushSupplier@2@AAVcdrStream@@@Z
?_unmarshalObjRef@ProxySupplier@CosNotifyChannelAdmin@@SAPAV_objref_ProxySupplier@2@AAVcdrStream@@@Z
?_unmarshalObjRef@PullConsumer@CosEventComm@@SAPAV_objref_PullConsumer@2@AAVcdrStream@@@Z
?_unmarshalObjRef@PullConsumer@CosNotifyComm@@SAPAV_objref_PullConsumer@2@AAVcdrStream@@@Z
?_unmarshalObjRef@PullSupplier@CosEventComm@@SAPAV_objref_PullSupplier@2@AAVcdrStream@@@Z
?_unmarshalObjRef@PullSupplier@CosNotifyComm@@SAPAV_objref_PullSupplier@2@AAVcdrStream@@@Z
?_unmarshalObjRef@PushConsumer@CosEventComm@@SAPAV_objref_PushConsumer@2@AAVcdrStream@@@Z
?_unmarshalObjRef@PushConsumer@CosNotifyComm@@SAPAV_objref_PushConsumer@2@AAVcdrStream@@@Z
?_unmarshalObjRef@PushSupplier@CosEventComm@@SAPAV_objref_PushSupplier@2@AAVcdrStream@@@Z
?_unmarshalObjRef@PushSupplier@CosNotifyComm@@SAPAV_objref_PushSupplier@2@AAVcdrStream@@@Z
?_unmarshalObjRef@QoSAdmin@CosNotification@@SAPAV_objref_QoSAdmin@2@AAVcdrStream@@@Z
?_unmarshalObjRef@SequenceProxyPullConsumer@CosNotifyChannelAdmin@@SAPAV_objref_SequenceProxyPullConsumer@2@AAVcdrStream@@@Z
?_unmarshalObjRef@SequenceProxyPullSupplier@CosNotifyChannelAdmin@@SAPAV_objref_SequenceProxyPullSupplier@2@AAVcdrStream@@@Z
?_unmarshalObjRef@SequenceProxyPushConsumer@CosNotifyChannelAdmin@@SAPAV_objref_SequenceProxyPushConsumer@2@AAVcdrStream@@@Z
?_unmarshalObjRef@SequenceProxyPushSupplier@CosNotifyChannelAdmin@@SAPAV_objref_SequenceProxyPushSupplier@2@AAVcdrStream@@@Z
?_unmarshalObjRef@SequencePullConsumer@CosNotifyComm@@SAPAV_objref_SequencePullConsumer@2@AAVcdrStream@@@Z
?_unmarshalObjRef@SequencePullSupplier@CosNotifyComm@@SAPAV_objref_SequencePullSupplier@2@AAVcdrStream@@@Z
?_unmarshalObjRef@SequencePushConsumer@CosNotifyComm@@SAPAV_objref_SequencePushConsumer@2@AAVcdrStream@@@Z
?_unmarshalObjRef@SequencePushSupplier@CosNotifyComm@@SAPAV_objref_SequencePushSupplier@2@AAVcdrStream@@@Z
?_unmarshalObjRef@StructuredProxyPullConsumer@CosNotifyChannelAdmin@@SAPAV_objref_StructuredProxyPullConsumer@2@AAVcdrStream@@@Z
?_unmarshalObjRef@StructuredProxyPullSupplier@CosNotifyChannelAdmin@@SAPAV_objref_StructuredProxyPullSupplier@2@AAVcdrStream@@@Z
?_unmarshalObjRef@StructuredProxyPushConsumer@CosNotifyChannelAdmin@@SAPAV_objref_StructuredProxyPushConsumer@2@AAVcdrStream@@@Z
?_unmarshalObjRef@StructuredProxyPushSupplier@CosNotifyChannelAdmin@@SAPAV_objref_StructuredProxyPushSupplier@2@AAVcdrStream@@@Z
?_unmarshalObjRef@StructuredPullConsumer@CosNotifyComm@@SAPAV_objref_StructuredPullConsumer@2@AAVcdrStream@@@Z
?_unmarshalObjRef@StructuredPullSupplier@CosNotifyComm@@SAPAV_objref_StructuredPullSupplier@2@AAVcdrStream@@@Z
?_unmarshalObjRef@StructuredPushConsumer@CosNotifyComm@@SAPAV_objref_StructuredPushConsumer@2@AAVcdrStream@@@Z
?_unmarshalObjRef@StructuredPushSupplier@CosNotifyComm@@SAPAV_objref_StructuredPushSupplier@2@AAVcdrStream@@@Z
?_unmarshalObjRef@SupplierAdmin@CosEventChannelAdmin@@SAPAV_objref_SupplierAdmin@2@AAVcdrStream@@@Z
?_unmarshalObjRef@SupplierAdmin@CosNotifyChannelAdmin@@SAPAV_objref_SupplierAdmin@2@AAVcdrStream@@@Z
?_unmarshalObjRef@TIO@CosTime@@SAPAV_objref_TIO@2@AAVcdrStream@@@Z
?_unmarshalObjRef@TimeService@CosTime@@SAPAV_objref_TimeService@2@AAVcdrStream@@@Z
?_unmarshalObjRef@UTO@CosTime@@SAPAV_objref_UTO@2@AAVcdrStream@@@Z
?_user_exns@_0RL_cd_1fe8f330207afd15_00000000@@2QBQBDB
?_user_exns@_0RL_cd_1fe8f330207afd15_02000000@@2QBQBDB
?_user_exns@_0RL_cd_1fe8f330207afd15_03000000@@2QBQBDB
?_user_exns@_0RL_cd_1fe8f330207afd15_11000000@@2QBQBDB
?_user_exns@_0RL_cd_1fe8f330207afd15_20000000@@2QBQBDB
?_user_exns@_0RL_cd_1fe8f330207afd15_22000000@@2QBQBDB
?_user_exns@_0RL_cd_1fe8f330207afd15_23000000@@2QBQBDB
?_user_exns@_0RL_cd_1fe8f330207afd15_31000000@@2QBQBDB
?_user_exns@_0RL_cd_1fe8f330207afd15_40000000@@2QBQBDB
?_user_exns@_0RL_cd_1fe8f330207afd15_42000000@@2QBQBDB
?_user_exns@_0RL_cd_1fe8f330207afd15_43000000@@2QBQBDB
?_user_exns@_0RL_cd_1fe8f330207afd15_51000000@@2QBQBDB
?_user_exns@_0RL_cd_1fe8f330207afd15_60000000@@2QBQBDB
?_user_exns@_0RL_cd_1fe8f330207afd15_63000000@@2QBQBDB
?_user_exns@_0RL_cd_1fe8f330207afd15_71000000@@2QBQBDB
?_user_exns@_0RL_cd_1fe8f330207afd15_80000000@@2QBQBDB
?_user_exns@_0RL_cd_1fe8f330207afd15_82000000@@2QBQBDB
?_user_exns@_0RL_cd_1fe8f330207afd15_83000000@@2QBQBDB
?_user_exns@_0RL_cd_1fe8f330207afd15_a0000000@@2QBQBDB
?_user_exns@_0RL_cd_1fe8f330207afd15_a1000000@@2QBQBDB
?_user_exns@_0RL_cd_1fe8f330207afd15_a2000000@@2QBQBDB
?_user_exns@_0RL_cd_1fe8f330207afd15_c1000000@@2QBQBDB
?_user_exns@_0RL_cd_1fe8f330207afd15_c2000000@@2QBQBDB
?_user_exns@_0RL_cd_1fe8f330207afd15_d0000000@@2QBQBDB
?_user_exns@_0RL_cd_1fe8f330207afd15_e1000000@@2QBQBDB
?_user_exns@_0RL_cd_1fe8f330207afd15_e2000000@@2QBQBDB
?_user_exns@_0RL_cd_1fe8f330207afd15_f0000000@@2QBQBDB
?_user_exns@_0RL_cd_25b2b9dd5b4ad98d_00000000@@2QBQBDB
?_user_exns@_0RL_cd_25b2b9dd5b4ad98d_20000000@@2QBQBDB
?_user_exns@_0RL_cd_25b2b9dd5b4ad98d_40000000@@2QBQBDB
?_user_exns@_0RL_cd_25b2b9dd5b4ad98d_60000000@@2QBQBDB
?_user_exns@_0RL_cd_25b2b9dd5b4ad98d_80000000@@2QBQBDB
?_user_exns@_0RL_cd_25b2b9dd5b4ad98d_a0000000@@2QBQBDB
?_user_exns@_0RL_cd_4b6b86183777b6c2_00000000@@2QBQBDB
?_user_exns@_0RL_cd_4b6b86183777b6c2_21000000@@2QBQBDB
?_user_exns@_0RL_cd_4b6b86183777b6c2_30000000@@2QBQBDB
?_user_exns@_0RL_cd_4b6b86183777b6c2_41000000@@2QBQBDB
?_user_exns@_0RL_cd_4b6b86183777b6c2_50000000@@2QBQBDB
?_user_exns@_0RL_cd_4b6b86183777b6c2_80000000@@2QBQBDB
?_user_exns@_0RL_cd_4b6b86183777b6c2_a0000000@@2QBQBDB
?_user_exns@_0RL_cd_4b6b86183777b6c2_e0000000@@2QBQBDB
?_user_exns@_0RL_cd_8b6214f5b3100e7e_00000000@@2QBQBDB
?_user_exns@_0RL_cd_8b6214f5b3100e7e_20000000@@2QBQBDB
?_user_exns@_0RL_cd_8b6214f5b3100e7e_40000000@@2QBQBDB
?_user_exns@_0RL_cd_8b6214f5b3100e7e_70000000@@2QBQBDB
?_user_exns@_0RL_cd_9043e11a9721dab3_00000000@@2QBQBDB
?_user_exns@_0RL_cd_9043e11a9721dab3_06000000@@2QBQBDB
?_user_exns@_0RL_cd_9043e11a9721dab3_12000000@@2QBQBDB
?_user_exns@_0RL_cd_9043e11a9721dab3_13000000@@2QBQBDB
?_user_exns@_0RL_cd_9043e11a9721dab3_20000000@@2QBQBDB
?_user_exns@_0RL_cd_9043e11a9721dab3_25000000@@2QBQBDB
?_user_exns@_0RL_cd_9043e11a9721dab3_26000000@@2QBQBDB
?_user_exns@_0RL_cd_9043e11a9721dab3_31000000@@2QBQBDB
?_user_exns@_0RL_cd_9043e11a9721dab3_32000000@@2QBQBDB
?_user_exns@_0RL_cd_9043e11a9721dab3_34000000@@2QBQBDB
?_user_exns@_0RL_cd_9043e11a9721dab3_40000000@@2QBQBDB
?_user_exns@_0RL_cd_9043e11a9721dab3_45000000@@2QBQBDB
?_user_exns@_0RL_cd_9043e11a9721dab3_46000000@@2QBQBDB
?_user_exns@_0RL_cd_9043e11a9721dab3_51000000@@2QBQBDB
?_user_exns@_0RL_cd_9043e11a9721dab3_52000000@@2QBQBDB
?_user_exns@_0RL_cd_9043e11a9721dab3_53000000@@2QBQBDB
?_user_exns@_0RL_cd_9043e11a9721dab3_60000000@@2QBQBDB
?_user_exns@_0RL_cd_9043e11a9721dab3_64000000@@2QBQBDB
?_user_exns@_0RL_cd_9043e11a9721dab3_66000000@@2QBQBDB
?_user_exns@_0RL_cd_9043e11a9721dab3_71000000@@2QBQBDB
?_user_exns@_0RL_cd_9043e11a9721dab3_84000000@@2QBQBDB
?_user_exns@_0RL_cd_9043e11a9721dab3_85000000@@2QBQBDB
?_user_exns@_0RL_cd_9043e11a9721dab3_90000000@@2QBQBDB
?_user_exns@_0RL_cd_9043e11a9721dab3_91000000@@2QBQBDB
?_user_exns@_0RL_cd_9043e11a9721dab3_92000000@@2QBQBDB
?_user_exns@_0RL_cd_9043e11a9721dab3_93000000@@2QBQBDB
?_user_exns@_0RL_cd_9043e11a9721dab3_96000000@@2QBQBDB
?_user_exns@_0RL_cd_9043e11a9721dab3_b0000000@@2QBQBDB
?_user_exns@_0RL_cd_9043e11a9721dab3_b1000000@@2QBQBDB
?_user_exns@_0RL_cd_9043e11a9721dab3_b3000000@@2QBQBDB
?_user_exns@_0RL_cd_9043e11a9721dab3_b4000000@@2QBQBDB
?_user_exns@_0RL_cd_9043e11a9721dab3_b6000000@@2QBQBDB
?_user_exns@_0RL_cd_9043e11a9721dab3_c5000000@@2QBQBDB
?_user_exns@_0RL_cd_9043e11a9721dab3_d0000000@@2QBQBDB
?_user_exns@_0RL_cd_9043e11a9721dab3_d1000000@@2QBQBDB
?_user_exns@_0RL_cd_9043e11a9721dab3_d2000000@@2QBQBDB
?_user_exns@_0RL_cd_9043e11a9721dab3_d3000000@@2QBQBDB
?_user_exns@_0RL_cd_9043e11a9721dab3_d6000000@@2QBQBDB
?_user_exns@_0RL_cd_9043e11a9721dab3_e5000000@@2QBQBDB
?_user_exns@_0RL_cd_9043e11a9721dab3_f1000000@@2QBQBDB
?_user_exns@_0RL_cd_99dff546ea0f9974_00000000@@2QBQBDB
?_user_exns@_0RL_cd_99dff546ea0f9974_11000000@@2QBQBDB
?_user_exns@_0RL_cd_99dff546ea0f9974_30000000@@2QBQBDB
?_user_exns@_0RL_cd_99dff546ea0f9974_31000000@@2QBQBDB
?_user_exns@_0RL_cd_99dff546ea0f9974_50000000@@2QBQBDB
?_user_exns@_0RL_cd_99dff546ea0f9974_61000000@@2QBQBDB
?_user_exns@_0RL_cd_99dff546ea0f9974_70000000@@2QBQBDB
?_user_exns@_0RL_cd_99dff546ea0f9974_90000000@@2QBQBDB
?_user_exns@_0RL_cd_99dff546ea0f9974_91000000@@2QBQBDB
?_user_exns@_0RL_cd_99dff546ea0f9974_b0000000@@2QBQBDB
?_user_exns@_0RL_cd_99dff546ea0f9974_b1000000@@2QBQBDB
?_user_exns@_0RL_cd_99dff546ea0f9974_d0000000@@2QBQBDB
?_user_exns@_0RL_cd_99dff546ea0f9974_d1000000@@2QBQBDB
?_user_exns@_0RL_cd_99dff546ea0f9974_f0000000@@2QBQBDB
?_user_exns@_0RL_cd_bd959cc57b2e138f_00000000@@2QBQBDB
?_user_exns@_0RL_cd_bd959cc57b2e138f_20000000@@2QBQBDB
?_user_exns@_0RL_cd_bd959cc57b2e138f_50000000@@2QBQBDB
?_user_exns@_0RL_cd_bd959cc57b2e138f_70000000@@2QBQBDB
?_user_exns@_0RL_cd_f894c8374a428e70_00000000@@2QBQBDB
?_user_exns@_0RL_cd_f894c8374a428e70_01000000@@2QBQBDB
?_user_exns@_0RL_cd_f894c8374a428e70_20000000@@2QBQBDB
?_user_exns@_0RL_cd_f894c8374a428e70_21000000@@2QBQBDB
?_user_exns@_0RL_cd_f894c8374a428e70_40000000@@2QBQBDB
?_user_exns@_0RL_cd_f894c8374a428e70_41000000@@2QBQBDB
?_user_exns@_0RL_cd_f894c8374a428e70_60000000@@2QBQBDB
?_user_exns@_0RL_cd_f894c8374a428e70_80000000@@2QBQBDB
?_user_exns@_0RL_cd_f894c8374a428e70_a0000000@@2QBQBDB
?_user_exns@_0RL_cd_f894c8374a428e70_c0000000@@2QBQBDB
?_user_exns@_0RL_cd_f894c8374a428e70_e0000000@@2QBQBDB
?absolute_time@_objref_UTO@CosTime@@QAEPAV12@XZ
?add_constraints@_objref_Filter@CosNotifyFilter@@QAEPAVConstraintInfoSeq@2@ABVConstraintExpSeq@2@@Z
?add_filter@_objref_FilterAdmin@CosNotifyFilter@@QAEJPAV_objref_Filter@2@@Z
?add_mapping_constraints@_objref_MappingFilter@CosNotifyFilter@@QAEPAVMappingConstraintInfoSeq@2@ABVMappingConstraintPairSeq@2@@Z
?align_to@omni@@YAKKW4alignment_t@1@@Z
?alloc@_CORBA_String_helper@@SAPADH@Z
?allocbuf@?$_CORBA_Sequence@J@@SAPAJK@Z
?allocbuf@?$_CORBA_Sequence@UConstraintExp@CosNotifyFilter@@@@SAPAUConstraintExp@CosNotifyFilter@@K@Z
?allocbuf@?$_CORBA_Sequence@UConstraintInfo@CosNotifyFilter@@@@SAPAUConstraintInfo@CosNotifyFilter@@K@Z
?allocbuf@?$_CORBA_Sequence@UEventType@CosNotification@@@@SAPAUEventType@CosNotification@@K@Z
?allocbuf@?$_CORBA_Sequence@UMappingConstraintInfo@CosNotifyFilter@@@@SAPAUMappingConstraintInfo@CosNotifyFilter@@K@Z
?allocbuf@?$_CORBA_Sequence@UMappingConstraintPair@CosNotifyFilter@@@@SAPAUMappingConstraintPair@CosNotifyFilter@@K@Z
?allocbuf@?$_CORBA_Sequence@UNVP@CosLifeCycle@@@@SAPAUNVP@CosLifeCycle@@K@Z
?allocbuf@?$_CORBA_Sequence@UNameComponent@CosNaming@@@@SAPAUNameComponent@CosNaming@@K@Z
?allocbuf@?$_CORBA_Sequence@UNamedPropertyRange@CosNotification@@@@SAPAUNamedPropertyRange@CosNotification@@K@Z
?allocbuf@?$_CORBA_Sequence@UProperty@CosNotification@@@@SAPAUProperty@CosNotification@@K@Z
?allocbuf@?$_CORBA_Sequence@UPropertyError@CosNotification@@@@SAPAUPropertyError@CosNotification@@K@Z
?allocbuf@?$_CORBA_Sequence@UStructuredEvent@CosNotification@@@@SAPAUStructuredEvent@CosNotification@@K@Z
?allocbuf@?$_CORBA_Sequence_ObjRef@VObject@CORBA@@VObject_Element@2@VObject_Helper@2@@@SAPAPAVObject@CORBA@@K@Z
?attach_callback@_objref_Filter@CosNotifyFilter@@QAEJPAV_objref_NotifySubscribe@CosNotifyComm@@@Z
?byteSwap@cdrStream@@SAFF@Z
?byteSwap@cdrStream@@SAGG@Z
?byteSwap@cdrStream@@SAJJ@Z
?byteSwap@cdrStream@@SAKK@Z
?byteSwap@cdrStream@@SA_K_K@Z
?compare_time@_objref_UTO@CosTime@@QAE?AW4TimeComparison@2@W4ComparisonType@2@PAV12@@Z
?connect_any_pull_consumer@_objref_ProxyPullSupplier@CosNotifyChannelAdmin@@QAEXPAV_objref_PullConsumer@CosEventComm@@@Z
?connect_any_pull_supplier@_objref_ProxyPullConsumer@CosNotifyChannelAdmin@@QAEXPAV_objref_PullSupplier@CosEventComm@@@Z
?connect_any_push_consumer@_objref_ProxyPushSupplier@CosNotifyChannelAdmin@@QAEXPAV_objref_PushConsumer@CosEventComm@@@Z
?connect_any_push_supplier@_objref_ProxyPushConsumer@CosNotifyChannelAdmin@@QAEXPAV_objref_PushSupplier@CosEventComm@@@Z
?connect_pull_consumer@_objref_ProxyPullSupplier@CosEventChannelAdmin@@QAEXPAV_objref_PullConsumer@CosEventComm@@@Z
?connect_pull_supplier@_objref_ProxyPullConsumer@CosEventChannelAdmin@@QAEXPAV_objref_PullSupplier@CosEventComm@@@Z
?connect_push_consumer@_objref_ProxyPushSupplier@CosEventChannelAdmin@@QAEXPAV_objref_PushConsumer@CosEventComm@@@Z
?connect_push_supplier@_objref_ProxyPushConsumer@CosEventChannelAdmin@@QAEXPAV_objref_PushSupplier@CosEventComm@@@Z
?connect_sequence_pull_consumer@_objref_SequenceProxyPullSupplier@CosNotifyChannelAdmin@@QAEXPAV_objref_SequencePullConsumer@CosNotifyComm@@@Z
?connect_sequence_pull_supplier@_objref_SequenceProxyPullConsumer@CosNotifyChannelAdmin@@QAEXPAV_objref_SequencePullSupplier@CosNotifyComm@@@Z
?connect_sequence_push_consumer@_objref_SequenceProxyPushSupplier@CosNotifyChannelAdmin@@QAEXPAV_objref_SequencePushConsumer@CosNotifyComm@@@Z
?connect_sequence_push_supplier@_objref_SequenceProxyPushConsumer@CosNotifyChannelAdmin@@QAEXPAV_objref_SequencePushSupplier@CosNotifyComm@@@Z
?connect_structured_pull_consumer@_objref_StructuredProxyPullSupplier@CosNotifyChannelAdmin@@QAEXPAV_objref_StructuredPullConsumer@CosNotifyComm@@@Z
?connect_structured_pull_supplier@_objref_StructuredProxyPullConsumer@CosNotifyChannelAdmin@@QAEXPAV_objref_StructuredPullSupplier@CosNotifyComm@@@Z
?connect_structured_push_consumer@_objref_StructuredProxyPushSupplier@CosNotifyChannelAdmin@@QAEXPAV_objref_StructuredPushConsumer@CosNotifyComm@@@Z
?connect_structured_push_supplier@_objref_StructuredProxyPushConsumer@CosNotifyChannelAdmin@@QAEXPAV_objref_StructuredPushSupplier@CosNotifyComm@@@Z
?constraint_grammar@_objref_Filter@CosNotifyFilter@@QAEPADXZ
?constraint_grammar@_objref_MappingFilter@CosNotifyFilter@@QAEPADXZ
?copy@_objref_LifeCycleObject@CosLifeCycle@@QAEPAV12@PAV_objref_FactoryFinder@2@ABVCriteria@2@@Z
?copybuffer@?$_CORBA_Sequence@J@@IAEXK@Z
?copybuffer@?$_CORBA_Sequence@UConstraintExp@CosNotifyFilter@@@@IAEXK@Z
?copybuffer@?$_CORBA_Sequence@UConstraintInfo@CosNotifyFilter@@@@IAEXK@Z
?copybuffer@?$_CORBA_Sequence@UEventType@CosNotification@@@@IAEXK@Z
?copybuffer@?$_CORBA_Sequence@UMappingConstraintInfo@CosNotifyFilter@@@@IAEXK@Z
?copybuffer@?$_CORBA_Sequence@UMappingConstraintPair@CosNotifyFilter@@@@IAEXK@Z
?copybuffer@?$_CORBA_Sequence@UNVP@CosLifeCycle@@@@IAEXK@Z
?copybuffer@?$_CORBA_Sequence@UNameComponent@CosNaming@@@@IAEXK@Z
?copybuffer@?$_CORBA_Sequence@UNamedPropertyRange@CosNotification@@@@IAEXK@Z
?copybuffer@?$_CORBA_Sequence@UProperty@CosNotification@@@@IAEXK@Z
?copybuffer@?$_CORBA_Sequence@UPropertyError@CosNotification@@@@IAEXK@Z
?copybuffer@?$_CORBA_Sequence@UStructuredEvent@CosNotification@@@@IAEXK@Z
?copybuffer@?$_CORBA_Sequence_ObjRef@VObject@CORBA@@VObject_Element@2@VObject_Helper@2@@@IAEXK@Z
?create_channel@_objref_EventChannelFactory@CosNotifyChannelAdmin@@QAEPAV_objref_EventChannel@2@ABVPropertySeq@CosNotification@@0AAJ@Z
?create_filter@_objref_FilterFactory@CosNotifyFilter@@QAEPAV_objref_Filter@2@PBD@Z
?create_mapping_filter@_objref_FilterFactory@CosNotifyFilter@@QAEPAV_objref_MappingFilter@2@PBDABVAny@CORBA@@@Z
?create_object@_objref_GenericFactory@CosLifeCycle@@QAEPAVObject@CORBA@@ABVName@CosNaming@@ABVCriteria@2@@Z
?dealloc@_CORBA_String_helper@@SAXPAD@Z
?default_consumer_admin@_objref_EventChannel@CosNotifyChannelAdmin@@QAEPAV_objref_ConsumerAdmin@2@XZ
?default_filter_factory@_objref_EventChannel@CosNotifyChannelAdmin@@QAEPAV_objref_FilterFactory@CosNotifyFilter@@XZ
?default_supplier_admin@_objref_EventChannel@CosNotifyChannelAdmin@@QAEPAV_objref_SupplierAdmin@2@XZ
?default_value@_objref_MappingFilter@CosNotifyFilter@@QAEPAVAny@CORBA@@XZ
?destroy@_objref_ConsumerAdmin@CosNotifyChannelAdmin@@QAEXXZ
?destroy@_objref_EventChannel@CosEventChannelAdmin@@QAEXXZ
?destroy@_objref_Filter@CosNotifyFilter@@QAEXXZ
?destroy@_objref_MappingFilter@CosNotifyFilter@@QAEXXZ
?destroy@_objref_SupplierAdmin@CosNotifyChannelAdmin@@QAEXXZ
?detach_callback@_objref_Filter@CosNotifyFilter@@QAEXJ@Z
?disconnect_pull_consumer@_objref_PullConsumer@CosEventComm@@QAEXXZ
?disconnect_pull_supplier@_objref_PullSupplier@CosEventComm@@QAEXXZ
?disconnect_push_consumer@_objref_PushConsumer@CosEventComm@@QAEXXZ
?disconnect_push_supplier@_objref_PushSupplier@CosEventComm@@QAEXXZ
?disconnect_sequence_pull_consumer@_objref_SequencePullConsumer@CosNotifyComm@@QAEXXZ
?disconnect_sequence_pull_supplier@_objref_SequencePullSupplier@CosNotifyComm@@QAEXXZ
?disconnect_sequence_push_consumer@_objref_SequencePushConsumer@CosNotifyComm@@QAEXXZ
?disconnect_sequence_push_supplier@_objref_SequencePushSupplier@CosNotifyComm@@QAEXXZ
?disconnect_structured_pull_consumer@_objref_StructuredPullConsumer@CosNotifyComm@@QAEXXZ
?disconnect_structured_pull_supplier@_objref_StructuredPullSupplier@CosNotifyComm@@QAEXXZ
?disconnect_structured_push_consumer@_objref_StructuredPushConsumer@CosNotifyComm@@QAEXXZ
?disconnect_structured_push_supplier@_objref_StructuredPushSupplier@CosNotifyComm@@QAEXXZ
?dup@_CORBA_String_helper@@SAPADPBD@Z
?duplicate@AdminPropertiesAdmin_Helper@CosNotification@@SAXPAV_objref_AdminPropertiesAdmin@2@@Z
?duplicate@ConsumerAdmin_Helper@CosEventChannelAdmin@@SAXPAV_objref_ConsumerAdmin@2@@Z
?duplicate@ConsumerAdmin_Helper@CosNotifyChannelAdmin@@SAXPAV_objref_ConsumerAdmin@2@@Z
?duplicate@EventChannelFactory_Helper@CosNotifyChannelAdmin@@SAXPAV_objref_EventChannelFactory@2@@Z
?duplicate@EventChannel_Helper@CosEventChannelAdmin@@SAXPAV_objref_EventChannel@2@@Z
?duplicate@EventChannel_Helper@CosNotifyChannelAdmin@@SAXPAV_objref_EventChannel@2@@Z
?duplicate@FactoryFinder_Helper@CosLifeCycle@@SAXPAV_objref_FactoryFinder@2@@Z
?duplicate@FilterAdmin_Helper@CosNotifyFilter@@SAXPAV_objref_FilterAdmin@2@@Z
?duplicate@FilterFactory_Helper@CosNotifyFilter@@SAXPAV_objref_FilterFactory@2@@Z
?duplicate@Filter_Helper@CosNotifyFilter@@SAXPAV_objref_Filter@2@@Z
?duplicate@GenericFactory_Helper@CosLifeCycle@@SAXPAV_objref_GenericFactory@2@@Z
?duplicate@LifeCycleObject_Helper@CosLifeCycle@@SAXPAV_objref_LifeCycleObject@2@@Z
?duplicate@MappingFilter_Helper@CosNotifyFilter@@SAXPAV_objref_MappingFilter@2@@Z
?duplicate@NotifyPublish_Helper@CosNotifyComm@@SAXPAV_objref_NotifyPublish@2@@Z
?duplicate@NotifySubscribe_Helper@CosNotifyComm@@SAXPAV_objref_NotifySubscribe@2@@Z
?duplicate@ProxyConsumer_Helper@CosNotifyChannelAdmin@@SAXPAV_objref_ProxyConsumer@2@@Z
?duplicate@ProxyPullConsumer_Helper@CosEventChannelAdmin@@SAXPAV_objref_ProxyPullConsumer@2@@Z
?duplicate@ProxyPullConsumer_Helper@CosNotifyChannelAdmin@@SAXPAV_objref_ProxyPullConsumer@2@@Z
?duplicate@ProxyPullSupplier_Helper@CosEventChannelAdmin@@SAXPAV_objref_ProxyPullSupplier@2@@Z
?duplicate@ProxyPullSupplier_Helper@CosNotifyChannelAdmin@@SAXPAV_objref_ProxyPullSupplier@2@@Z
?duplicate@ProxyPushConsumer_Helper@CosEventChannelAdmin@@SAXPAV_objref_ProxyPushConsumer@2@@Z
?duplicate@ProxyPushConsumer_Helper@CosNotifyChannelAdmin@@SAXPAV_objref_ProxyPushConsumer@2@@Z
?duplicate@ProxyPushSupplier_Helper@CosEventChannelAdmin@@SAXPAV_objref_ProxyPushSupplier@2@@Z
?duplicate@ProxyPushSupplier_Helper@CosNotifyChannelAdmin@@SAXPAV_objref_ProxyPushSupplier@2@@Z
?duplicate@ProxySupplier_Helper@CosNotifyChannelAdmin@@SAXPAV_objref_ProxySupplier@2@@Z
?duplicate@PullConsumer_Helper@CosEventComm@@SAXPAV_objref_PullConsumer@2@@Z
?duplicate@PullConsumer_Helper@CosNotifyComm@@SAXPAV_objref_PullConsumer@2@@Z
?duplicate@PullSupplier_Helper@CosEventComm@@SAXPAV_objref_PullSupplier@2@@Z
?duplicate@PullSupplier_Helper@CosNotifyComm@@SAXPAV_objref_PullSupplier@2@@Z
?duplicate@PushConsumer_Helper@CosEventComm@@SAXPAV_objref_PushConsumer@2@@Z
?duplicate@PushConsumer_Helper@CosNotifyComm@@SAXPAV_objref_PushConsumer@2@@Z
?duplicate@PushSupplier_Helper@CosEventComm@@SAXPAV_objref_PushSupplier@2@@Z
?duplicate@PushSupplier_Helper@CosNotifyComm@@SAXPAV_objref_PushSupplier@2@@Z
?duplicate@QoSAdmin_Helper@CosNotification@@SAXPAV_objref_QoSAdmin@2@@Z
?duplicate@SequenceProxyPullConsumer_Helper@CosNotifyChannelAdmin@@SAXPAV_objref_SequenceProxyPullConsumer@2@@Z
?duplicate@SequenceProxyPullSupplier_Helper@CosNotifyChannelAdmin@@SAXPAV_objref_SequenceProxyPullSupplier@2@@Z
?duplicate@SequenceProxyPushConsumer_Helper@CosNotifyChannelAdmin@@SAXPAV_objref_SequenceProxyPushConsumer@2@@Z
?duplicate@SequenceProxyPushSupplier_Helper@CosNotifyChannelAdmin@@SAXPAV_objref_SequenceProxyPushSupplier@2@@Z
?duplicate@SequencePullConsumer_Helper@CosNotifyComm@@SAXPAV_objref_SequencePullConsumer@2@@Z
?duplicate@SequencePullSupplier_Helper@CosNotifyComm@@SAXPAV_objref_SequencePullSupplier@2@@Z
?duplicate@SequencePushConsumer_Helper@CosNotifyComm@@SAXPAV_objref_SequencePushConsumer@2@@Z
?duplicate@SequencePushSupplier_Helper@CosNotifyComm@@SAXPAV_objref_SequencePushSupplier@2@@Z
?duplicate@StructuredProxyPullConsumer_Helper@CosNotifyChannelAdmin@@SAXPAV_objref_StructuredProxyPullConsumer@2@@Z
?duplicate@StructuredProxyPullSupplier_Helper@CosNotifyChannelAdmin@@SAXPAV_objref_StructuredProxyPullSupplier@2@@Z
?duplicate@StructuredProxyPushConsumer_Helper@CosNotifyChannelAdmin@@SAXPAV_objref_StructuredProxyPushConsumer@2@@Z
?duplicate@StructuredProxyPushSupplier_Helper@CosNotifyChannelAdmin@@SAXPAV_objref_StructuredProxyPushSupplier@2@@Z
?duplicate@StructuredPullConsumer_Helper@CosNotifyComm@@SAXPAV_objref_StructuredPullConsumer@2@@Z
?duplicate@StructuredPullSupplier_Helper@CosNotifyComm@@SAXPAV_objref_StructuredPullSupplier@2@@Z
?duplicate@StructuredPushConsumer_Helper@CosNotifyComm@@SAXPAV_objref_StructuredPushConsumer@2@@Z
?duplicate@StructuredPushSupplier_Helper@CosNotifyComm@@SAXPAV_objref_StructuredPushSupplier@2@@Z
?duplicate@SupplierAdmin_Helper@CosEventChannelAdmin@@SAXPAV_objref_SupplierAdmin@2@@Z
?duplicate@SupplierAdmin_Helper@CosNotifyChannelAdmin@@SAXPAV_objref_SupplierAdmin@2@@Z
?duplicate@TIO_Helper@CosTime@@SAXPAV_objref_TIO@2@@Z
?duplicate@TimeService_Helper@CosTime@@SAXPAV_objref_TimeService@2@@Z
?duplicate@UTO_Helper@CosTime@@SAXPAV_objref_UTO@2@@Z
?find_factories@_objref_FactoryFinder@CosLifeCycle@@QAEPAVFactories@2@ABVName@CosNaming@@@Z
?for_consumers@_objref_EventChannel@CosEventChannelAdmin@@QAEPAV_objref_ConsumerAdmin@2@XZ
?for_suppliers@_objref_EventChannel@CosEventChannelAdmin@@QAEPAV_objref_SupplierAdmin@2@XZ
?freebuf@?$_CORBA_Sequence@E@@SAXPAE@Z
?freebuf@?$_CORBA_Sequence@J@@SAXPAJ@Z
?freebuf@?$_CORBA_Sequence@UConstraintExp@CosNotifyFilter@@@@SAXPAUConstraintExp@CosNotifyFilter@@@Z
?freebuf@?$_CORBA_Sequence@UConstraintInfo@CosNotifyFilter@@@@SAXPAUConstraintInfo@CosNotifyFilter@@@Z
?freebuf@?$_CORBA_Sequence@UEventType@CosNotification@@@@SAXPAUEventType@CosNotification@@@Z
?freebuf@?$_CORBA_Sequence@UExceptionDescription@CORBA@@@@SAXPAUExceptionDescription@CORBA@@@Z
?freebuf@?$_CORBA_Sequence@UMappingConstraintInfo@CosNotifyFilter@@@@SAXPAUMappingConstraintInfo@CosNotifyFilter@@@Z
?freebuf@?$_CORBA_Sequence@UMappingConstraintPair@CosNotifyFilter@@@@SAXPAUMappingConstraintPair@CosNotifyFilter@@@Z
?freebuf@?$_CORBA_Sequence@UNVP@CosLifeCycle@@@@SAXPAUNVP@CosLifeCycle@@@Z
?freebuf@?$_CORBA_Sequence@UNameComponent@CosNaming@@@@SAXPAUNameComponent@CosNaming@@@Z
?freebuf@?$_CORBA_Sequence@UNamedPropertyRange@CosNotification@@@@SAXPAUNamedPropertyRange@CosNotification@@@Z
?freebuf@?$_CORBA_Sequence@UParameterDescription@CORBA@@@@SAXPAUParameterDescription@CORBA@@@Z
?freebuf@?$_CORBA_Sequence@UProperty@CosNotification@@@@SAXPAUProperty@CosNotification@@@Z
?freebuf@?$_CORBA_Sequence@UPropertyError@CosNotification@@@@SAXPAUPropertyError@CosNotification@@@Z
?freebuf@?$_CORBA_Sequence@UStructMember@CORBA@@@@SAXPAUStructMember@CORBA@@@Z
?freebuf@?$_CORBA_Sequence@UStructuredEvent@CosNotification@@@@SAXPAUStructuredEvent@CosNotification@@@Z
?freebuf@?$_CORBA_Sequence_ObjRef@VObject@CORBA@@VObject_Element@2@VObject_Helper@2@@@SAXPAPAVObject@CORBA@@@Z
?freebuf@_CORBA_Sequence_String@@SAXPAPAD@Z
?get_admin@_objref_AdminPropertiesAdmin@CosNotification@@QAEPAVPropertySeq@2@XZ
?get_all_channels@_objref_EventChannelFactory@CosNotifyChannelAdmin@@QAEPAVChannelIDSeq@2@XZ
?get_all_constraints@_objref_Filter@CosNotifyFilter@@QAEPAVConstraintInfoSeq@2@XZ
?get_all_consumeradmins@_objref_EventChannel@CosNotifyChannelAdmin@@QAEPAVAdminIDSeq@2@XZ
?get_all_filters@_objref_FilterAdmin@CosNotifyFilter@@QAEPAVFilterIDSeq@2@XZ
?get_all_mapping_constraints@_objref_MappingFilter@CosNotifyFilter@@QAEPAVMappingConstraintInfoSeq@2@XZ
?get_all_supplieradmins@_objref_EventChannel@CosNotifyChannelAdmin@@QAEPAVAdminIDSeq@2@XZ
?get_callbacks@_objref_Filter@CosNotifyFilter@@QAEPAVCallbackIDSeq@2@XZ
?get_constraints@_objref_Filter@CosNotifyFilter@@QAEPAVConstraintInfoSeq@2@ABVConstraintIDSeq@2@@Z
?get_consumeradmin@_objref_EventChannel@CosNotifyChannelAdmin@@QAEPAV_objref_ConsumerAdmin@2@J@Z
?get_event_channel@_objref_EventChannelFactory@CosNotifyChannelAdmin@@QAEPAV_objref_EventChannel@2@J@Z
?get_filter@_objref_FilterAdmin@CosNotifyFilter@@QAEPAV_objref_Filter@2@J@Z
?get_mapping_constraints@_objref_MappingFilter@CosNotifyFilter@@QAEPAVMappingConstraintInfoSeq@2@ABVConstraintIDSeq@2@@Z
?get_proxy_consumer@_objref_SupplierAdmin@CosNotifyChannelAdmin@@QAEPAV_objref_ProxyConsumer@2@J@Z
?get_proxy_supplier@_objref_ConsumerAdmin@CosNotifyChannelAdmin@@QAEPAV_objref_ProxySupplier@2@J@Z
?get_qos@_objref_QoSAdmin@CosNotification@@QAEPAVPropertySeq@2@XZ
?get_supplieradmin@_objref_EventChannel@CosNotifyChannelAdmin@@QAEPAV_objref_SupplierAdmin@2@J@Z
?in@?$_CORBA_ConstrType_Variable_Var@UStructuredEvent@CosNotification@@@@QBEABUStructuredEvent@CosNotification@@XZ
?in@?$_CORBA_ObjRef_Var@V_objref_FactoryFinder@CosLifeCycle@@VFactoryFinder_Helper@2@@@QBEPAV_objref_FactoryFinder@CosLifeCycle@@XZ
?in@?$_CORBA_ObjRef_Var@V_objref_Filter@CosNotifyFilter@@VFilter_Helper@2@@@QBEPAV_objref_Filter@CosNotifyFilter@@XZ
?in@?$_CORBA_ObjRef_Var@V_objref_MappingFilter@CosNotifyFilter@@VMappingFilter_Helper@2@@@QBEPAV_objref_MappingFilter@CosNotifyFilter@@XZ
?in@?$_CORBA_ObjRef_Var@V_objref_NotifySubscribe@CosNotifyComm@@VNotifySubscribe_Helper@2@@@QBEPAV_objref_NotifySubscribe@CosNotifyComm@@XZ
?in@?$_CORBA_ObjRef_Var@V_objref_PullConsumer@CosEventComm@@VPullConsumer_Helper@2@@@QBEPAV_objref_PullConsumer@CosEventComm@@XZ
?in@?$_CORBA_ObjRef_Var@V_objref_PullSupplier@CosEventComm@@VPullSupplier_Helper@2@@@QBEPAV_objref_PullSupplier@CosEventComm@@XZ
?in@?$_CORBA_ObjRef_Var@V_objref_PushConsumer@CosEventComm@@VPushConsumer_Helper@2@@@QBEPAV_objref_PushConsumer@CosEventComm@@XZ
?in@?$_CORBA_ObjRef_Var@V_objref_PushSupplier@CosEventComm@@VPushSupplier_Helper@2@@@QBEPAV_objref_PushSupplier@CosEventComm@@XZ
?in@?$_CORBA_ObjRef_Var@V_objref_SequencePullConsumer@CosNotifyComm@@VSequencePullConsumer_Helper@2@@@QBEPAV_objref_SequencePullConsumer@CosNotifyComm@@XZ
?in@?$_CORBA_ObjRef_Var@V_objref_SequencePullSupplier@CosNotifyComm@@VSequencePullSupplier_Helper@2@@@QBEPAV_objref_SequencePullSupplier@CosNotifyComm@@XZ
?in@?$_CORBA_ObjRef_Var@V_objref_SequencePushConsumer@CosNotifyComm@@VSequencePushConsumer_Helper@2@@@QBEPAV_objref_SequencePushConsumer@CosNotifyComm@@XZ
?in@?$_CORBA_ObjRef_Var@V_objref_SequencePushSupplier@CosNotifyComm@@VSequencePushSupplier_Helper@2@@@QBEPAV_objref_SequencePushSupplier@CosNotifyComm@@XZ
?in@?$_CORBA_ObjRef_Var@V_objref_StructuredPullConsumer@CosNotifyComm@@VStructuredPullConsumer_Helper@2@@@QBEPAV_objref_StructuredPullConsumer@CosNotifyComm@@XZ
?in@?$_CORBA_ObjRef_Var@V_objref_StructuredPullSupplier@CosNotifyComm@@VStructuredPullSupplier_Helper@2@@@QBEPAV_objref_StructuredPullSupplier@CosNotifyComm@@XZ
?in@?$_CORBA_ObjRef_Var@V_objref_StructuredPushConsumer@CosNotifyComm@@VStructuredPushConsumer_Helper@2@@@QBEPAV_objref_StructuredPushConsumer@CosNotifyComm@@XZ
?in@?$_CORBA_ObjRef_Var@V_objref_StructuredPushSupplier@CosNotifyComm@@VStructuredPushSupplier_Helper@2@@@QBEPAV_objref_StructuredPushSupplier@CosNotifyComm@@XZ
?in@?$_CORBA_ObjRef_Var@V_objref_TIO@CosTime@@VTIO_Helper@2@@@QBEPAV_objref_TIO@CosTime@@XZ
?in@?$_CORBA_ObjRef_Var@V_objref_UTO@CosTime@@VUTO_Helper@2@@@QBEPAV_objref_UTO@CosTime@@XZ
?in@Any_var@CORBA@@QBEABVAny@2@XZ
?in@ConstraintExpSeq_var@CosNotifyFilter@@QBEABVConstraintExpSeq@2@XZ
?in@ConstraintIDSeq_var@CosNotifyFilter@@QBEABVConstraintIDSeq@2@XZ
?in@ConstraintInfoSeq_var@CosNotifyFilter@@QBEABVConstraintInfoSeq@2@XZ
?in@Criteria_var@CosLifeCycle@@QBEABVCriteria@2@XZ
?in@EventBatch_var@CosNotification@@QBEABVEventBatch@2@XZ
?in@EventTypeSeq_var@CosNotification@@QBEABVEventTypeSeq@2@XZ
?in@MappingConstraintInfoSeq_var@CosNotifyFilter@@QBEABVMappingConstraintInfoSeq@2@XZ
?in@MappingConstraintPairSeq_var@CosNotifyFilter@@QBEABVMappingConstraintPairSeq@2@XZ
?in@Name_var@CosNaming@@QBEABVName@2@XZ
?in@PropertySeq_var@CosNotification@@QBEABVPropertySeq@2@XZ
?in@_CORBA_String_var@@QBEPBDXZ
?inMkr@cdrStream@@IAEKW4alignment_t@omni@@@Z
?inMkr@cdrStream@@IAEKXZ
?inaccuracy@_objref_UTO@CosTime@@QAE_KXZ
?insertToAnyFn@AdminLimitExceeded@CosNotifyChannelAdmin@@2P6AXAAVAny@CORBA@@ABVException@4@@ZA
?insertToAnyFn@AdminNotFound@CosNotifyChannelAdmin@@2P6AXAAVAny@CORBA@@ABVException@4@@ZA
?insertToAnyFn@AlreadyConnected@CosEventChannelAdmin@@2P6AXAAVAny@CORBA@@ABVException@4@@ZA
?insertToAnyFn@CallbackNotFound@CosNotifyFilter@@2P6AXAAVAny@CORBA@@ABVException@4@@ZA
?insertToAnyFn@CannotMeetCriteria@CosLifeCycle@@2P6AXAAVAny@CORBA@@ABVException@4@@ZA
?insertToAnyFn@ChannelNotFound@CosNotifyChannelAdmin@@2P6AXAAVAny@CORBA@@ABVException@4@@ZA
?insertToAnyFn@ConnectionAlreadyActive@CosNotifyChannelAdmin@@2P6AXAAVAny@CORBA@@ABVException@4@@ZA
?insertToAnyFn@ConnectionAlreadyInactive@CosNotifyChannelAdmin@@2P6AXAAVAny@CORBA@@ABVException@4@@ZA
?insertToAnyFn@ConstraintNotFound@CosNotifyFilter@@2P6AXAAVAny@CORBA@@ABVException@4@@ZA
?insertToAnyFn@Disconnected@CosEventComm@@2P6AXAAVAny@CORBA@@ABVException@4@@ZA
?insertToAnyFn@DuplicateConstraintID@CosNotifyFilter@@2P6AXAAVAny@CORBA@@ABVException@4@@ZA
?insertToAnyFn@FilterNotFound@CosNotifyFilter@@2P6AXAAVAny@CORBA@@ABVException@4@@ZA
?insertToAnyFn@InvalidConstraint@CosNotifyFilter@@2P6AXAAVAny@CORBA@@ABVException@4@@ZA
?insertToAnyFn@InvalidCriteria@CosLifeCycle@@2P6AXAAVAny@CORBA@@ABVException@4@@ZA
?insertToAnyFn@InvalidEventType@CosNotifyComm@@2P6AXAAVAny@CORBA@@ABVException@4@@ZA
?insertToAnyFn@InvalidGrammar@CosNotifyFilter@@2P6AXAAVAny@CORBA@@ABVException@4@@ZA
?insertToAnyFn@InvalidValue@CosNotifyFilter@@2P6AXAAVAny@CORBA@@ABVException@4@@ZA
?insertToAnyFn@NoFactory@CosLifeCycle@@2P6AXAAVAny@CORBA@@ABVException@4@@ZA
?insertToAnyFn@NotConnected@CosNotifyChannelAdmin@@2P6AXAAVAny@CORBA@@ABVException@4@@ZA
?insertToAnyFn@NotCopyable@CosLifeCycle@@2P6AXAAVAny@CORBA@@ABVException@4@@ZA
?insertToAnyFn@NotMovable@CosLifeCycle@@2P6AXAAVAny@CORBA@@ABVException@4@@ZA
?insertToAnyFn@NotRemovable@CosLifeCycle@@2P6AXAAVAny@CORBA@@ABVException@4@@ZA
?insertToAnyFn@ProxyNotFound@CosNotifyChannelAdmin@@2P6AXAAVAny@CORBA@@ABVException@4@@ZA
?insertToAnyFn@TimeUnavailable@CosTime@@2P6AXAAVAny@CORBA@@ABVException@4@@ZA
?insertToAnyFn@TypeError@CosEventChannelAdmin@@2P6AXAAVAny@CORBA@@ABVException@4@@ZA
?insertToAnyFn@UnsupportedAdmin@CosNotification@@2P6AXAAVAny@CORBA@@ABVException@4@@ZA
?insertToAnyFn@UnsupportedFilterableData@CosNotifyFilter@@2P6AXAAVAny@CORBA@@ABVException@4@@ZA
?insertToAnyFn@UnsupportedQoS@CosNotification@@2P6AXAAVAny@CORBA@@ABVException@4@@ZA
?insertToAnyFnNCP@AdminLimitExceeded@CosNotifyChannelAdmin@@2P6AXAAVAny@CORBA@@PBVException@4@@ZA
?insertToAnyFnNCP@AdminNotFound@CosNotifyChannelAdmin@@2P6AXAAVAny@CORBA@@PBVException@4@@ZA
?insertToAnyFnNCP@AlreadyConnected@CosEventChannelAdmin@@2P6AXAAVAny@CORBA@@PBVException@4@@ZA
?insertToAnyFnNCP@CallbackNotFound@CosNotifyFilter@@2P6AXAAVAny@CORBA@@PBVException@4@@ZA
?insertToAnyFnNCP@CannotMeetCriteria@CosLifeCycle@@2P6AXAAVAny@CORBA@@PBVException@4@@ZA
?insertToAnyFnNCP@ChannelNotFound@CosNotifyChannelAdmin@@2P6AXAAVAny@CORBA@@PBVException@4@@ZA
?insertToAnyFnNCP@ConnectionAlreadyActive@CosNotifyChannelAdmin@@2P6AXAAVAny@CORBA@@PBVException@4@@ZA
?insertToAnyFnNCP@ConnectionAlreadyInactive@CosNotifyChannelAdmin@@2P6AXAAVAny@CORBA@@PBVException@4@@ZA
?insertToAnyFnNCP@ConstraintNotFound@CosNotifyFilter@@2P6AXAAVAny@CORBA@@PBVException@4@@ZA
?insertToAnyFnNCP@Disconnected@CosEventComm@@2P6AXAAVAny@CORBA@@PBVException@4@@ZA
?insertToAnyFnNCP@DuplicateConstraintID@CosNotifyFilter@@2P6AXAAVAny@CORBA@@PBVException@4@@ZA
?insertToAnyFnNCP@FilterNotFound@CosNotifyFilter@@2P6AXAAVAny@CORBA@@PBVException@4@@ZA
?insertToAnyFnNCP@InvalidConstraint@CosNotifyFilter@@2P6AXAAVAny@CORBA@@PBVException@4@@ZA
?insertToAnyFnNCP@InvalidCriteria@CosLifeCycle@@2P6AXAAVAny@CORBA@@PBVException@4@@ZA
?insertToAnyFnNCP@InvalidEventType@CosNotifyComm@@2P6AXAAVAny@CORBA@@PBVException@4@@ZA
?insertToAnyFnNCP@InvalidGrammar@CosNotifyFilter@@2P6AXAAVAny@CORBA@@PBVException@4@@ZA
?insertToAnyFnNCP@InvalidValue@CosNotifyFilter@@2P6AXAAVAny@CORBA@@PBVException@4@@ZA
?insertToAnyFnNCP@NoFactory@CosLifeCycle@@2P6AXAAVAny@CORBA@@PBVException@4@@ZA
?insertToAnyFnNCP@NotConnected@CosNotifyChannelAdmin@@2P6AXAAVAny@CORBA@@PBVException@4@@ZA
?insertToAnyFnNCP@NotCopyable@CosLifeCycle@@2P6AXAAVAny@CORBA@@PBVException@4@@ZA
?insertToAnyFnNCP@NotMovable@CosLifeCycle@@2P6AXAAVAny@CORBA@@PBVException@4@@ZA
?insertToAnyFnNCP@NotRemovable@CosLifeCycle@@2P6AXAAVAny@CORBA@@PBVException@4@@ZA
?insertToAnyFnNCP@ProxyNotFound@CosNotifyChannelAdmin@@2P6AXAAVAny@CORBA@@PBVException@4@@ZA
?insertToAnyFnNCP@TimeUnavailable@CosTime@@2P6AXAAVAny@CORBA@@PBVException@4@@ZA
?insertToAnyFnNCP@TypeError@CosEventChannelAdmin@@2P6AXAAVAny@CORBA@@PBVException@4@@ZA
?insertToAnyFnNCP@UnsupportedAdmin@CosNotification@@2P6AXAAVAny@CORBA@@PBVException@4@@ZA
?insertToAnyFnNCP@UnsupportedFilterableData@CosNotifyFilter@@2P6AXAAVAny@CORBA@@PBVException@4@@ZA
?insertToAnyFnNCP@UnsupportedQoS@CosNotification@@2P6AXAAVAny@CORBA@@PBVException@4@@ZA
?interval@_objref_UTO@CosTime@@QAEPAV_objref_TIO@2@XZ
?is_a@_pof_AdminPropertiesAdmin@CosNotification@@UBE_NPBD@Z
?is_a@_pof_ConsumerAdmin@CosEventChannelAdmin@@UBE_NPBD@Z
?is_a@_pof_ConsumerAdmin@CosNotifyChannelAdmin@@UBE_NPBD@Z
?is_a@_pof_EventChannel@CosEventChannelAdmin@@UBE_NPBD@Z
?is_a@_pof_EventChannel@CosNotifyChannelAdmin@@UBE_NPBD@Z
?is_a@_pof_EventChannelFactory@CosNotifyChannelAdmin@@UBE_NPBD@Z
?is_a@_pof_FactoryFinder@CosLifeCycle@@UBE_NPBD@Z
?is_a@_pof_Filter@CosNotifyFilter@@UBE_NPBD@Z
?is_a@_pof_FilterAdmin@CosNotifyFilter@@UBE_NPBD@Z
?is_a@_pof_FilterFactory@CosNotifyFilter@@UBE_NPBD@Z
?is_a@_pof_GenericFactory@CosLifeCycle@@UBE_NPBD@Z
?is_a@_pof_LifeCycleObject@CosLifeCycle@@UBE_NPBD@Z
?is_a@_pof_MappingFilter@CosNotifyFilter@@UBE_NPBD@Z
?is_a@_pof_NotifyPublish@CosNotifyComm@@UBE_NPBD@Z
?is_a@_pof_NotifySubscribe@CosNotifyComm@@UBE_NPBD@Z
?is_a@_pof_ProxyConsumer@CosNotifyChannelAdmin@@UBE_NPBD@Z
?is_a@_pof_ProxyPullConsumer@CosEventChannelAdmin@@UBE_NPBD@Z
?is_a@_pof_ProxyPullConsumer@CosNotifyChannelAdmin@@UBE_NPBD@Z
?is_a@_pof_ProxyPullSupplier@CosEventChannelAdmin@@UBE_NPBD@Z
?is_a@_pof_ProxyPullSupplier@CosNotifyChannelAdmin@@UBE_NPBD@Z
?is_a@_pof_ProxyPushConsumer@CosEventChannelAdmin@@UBE_NPBD@Z
?is_a@_pof_ProxyPushConsumer@CosNotifyChannelAdmin@@UBE_NPBD@Z
?is_a@_pof_ProxyPushSupplier@CosEventChannelAdmin@@UBE_NPBD@Z
?is_a@_pof_ProxyPushSupplier@CosNotifyChannelAdmin@@UBE_NPBD@Z
?is_a@_pof_ProxySupplier@CosNotifyChannelAdmin@@UBE_NPBD@Z
?is_a@_pof_PullConsumer@CosEventComm@@UBE_NPBD@Z
?is_a@_pof_PullConsumer@CosNotifyComm@@UBE_NPBD@Z
?is_a@_pof_PullSupplier@CosEventComm@@UBE_NPBD@Z
?is_a@_pof_PullSupplier@CosNotifyComm@@UBE_NPBD@Z
?is_a@_pof_PushConsumer@CosEventComm@@UBE_NPBD@Z
?is_a@_pof_PushConsumer@CosNotifyComm@@UBE_NPBD@Z
?is_a@_pof_PushSupplier@CosEventComm@@UBE_NPBD@Z
?is_a@_pof_PushSupplier@CosNotifyComm@@UBE_NPBD@Z
?is_a@_pof_QoSAdmin@CosNotification@@UBE_NPBD@Z
?is_a@_pof_SequenceProxyPullConsumer@CosNotifyChannelAdmin@@UBE_NPBD@Z
?is_a@_pof_SequenceProxyPullSupplier@CosNotifyChannelAdmin@@UBE_NPBD@Z
?is_a@_pof_SequenceProxyPushConsumer@CosNotifyChannelAdmin@@UBE_NPBD@Z
?is_a@_pof_SequenceProxyPushSupplier@CosNotifyChannelAdmin@@UBE_NPBD@Z
?is_a@_pof_SequencePullConsumer@CosNotifyComm@@UBE_NPBD@Z
?is_a@_pof_SequencePullSupplier@CosNotifyComm@@UBE_NPBD@Z
?is_a@_pof_SequencePushConsumer@CosNotifyComm@@UBE_NPBD@Z
?is_a@_pof_SequencePushSupplier@CosNotifyComm@@UBE_NPBD@Z
?is_a@_pof_StructuredProxyPullConsumer@CosNotifyChannelAdmin@@UBE_NPBD@Z
?is_a@_pof_StructuredProxyPullSupplier@CosNotifyChannelAdmin@@UBE_NPBD@Z
?is_a@_pof_StructuredProxyPushConsumer@CosNotifyChannelAdmin@@UBE_NPBD@Z
?is_a@_pof_StructuredProxyPushSupplier@CosNotifyChannelAdmin@@UBE_NPBD@Z
?is_a@_pof_StructuredPullConsumer@CosNotifyComm@@UBE_NPBD@Z
?is_a@_pof_StructuredPullSupplier@CosNotifyComm@@UBE_NPBD@Z
?is_a@_pof_StructuredPushConsumer@CosNotifyComm@@UBE_NPBD@Z
?is_a@_pof_StructuredPushSupplier@CosNotifyComm@@UBE_NPBD@Z
?is_a@_pof_SupplierAdmin@CosEventChannelAdmin@@UBE_NPBD@Z
?is_a@_pof_SupplierAdmin@CosNotifyChannelAdmin@@UBE_NPBD@Z
?is_a@_pof_TIO@CosTime@@UBE_NPBD@Z
?is_a@_pof_TimeService@CosTime@@UBE_NPBD@Z
?is_a@_pof_UTO@CosTime@@UBE_NPBD@Z
?is_nil@AdminPropertiesAdmin_Helper@CosNotification@@SA_NPAV_objref_AdminPropertiesAdmin@2@@Z
?is_nil@CORBA@@YA_NPAVObject@1@@Z
?is_nil@ConsumerAdmin_Helper@CosEventChannelAdmin@@SA_NPAV_objref_ConsumerAdmin@2@@Z
?is_nil@ConsumerAdmin_Helper@CosNotifyChannelAdmin@@SA_NPAV_objref_ConsumerAdmin@2@@Z
?is_nil@EventChannelFactory_Helper@CosNotifyChannelAdmin@@SA_NPAV_objref_EventChannelFactory@2@@Z
?is_nil@EventChannel_Helper@CosEventChannelAdmin@@SA_NPAV_objref_EventChannel@2@@Z
?is_nil@EventChannel_Helper@CosNotifyChannelAdmin@@SA_NPAV_objref_EventChannel@2@@Z
?is_nil@FactoryFinder_Helper@CosLifeCycle@@SA_NPAV_objref_FactoryFinder@2@@Z
?is_nil@FilterAdmin_Helper@CosNotifyFilter@@SA_NPAV_objref_FilterAdmin@2@@Z
?is_nil@FilterFactory_Helper@CosNotifyFilter@@SA_NPAV_objref_FilterFactory@2@@Z
?is_nil@Filter_Helper@CosNotifyFilter@@SA_NPAV_objref_Filter@2@@Z
?is_nil@GenericFactory_Helper@CosLifeCycle@@SA_NPAV_objref_GenericFactory@2@@Z
?is_nil@LifeCycleObject_Helper@CosLifeCycle@@SA_NPAV_objref_LifeCycleObject@2@@Z
?is_nil@MappingFilter_Helper@CosNotifyFilter@@SA_NPAV_objref_MappingFilter@2@@Z
?is_nil@NotifyPublish_Helper@CosNotifyComm@@SA_NPAV_objref_NotifyPublish@2@@Z
?is_nil@NotifySubscribe_Helper@CosNotifyComm@@SA_NPAV_objref_NotifySubscribe@2@@Z
?is_nil@ProxyConsumer_Helper@CosNotifyChannelAdmin@@SA_NPAV_objref_ProxyConsumer@2@@Z
?is_nil@ProxyPullConsumer_Helper@CosEventChannelAdmin@@SA_NPAV_objref_ProxyPullConsumer@2@@Z
?is_nil@ProxyPullConsumer_Helper@CosNotifyChannelAdmin@@SA_NPAV_objref_ProxyPullConsumer@2@@Z
?is_nil@ProxyPullSupplier_Helper@CosEventChannelAdmin@@SA_NPAV_objref_ProxyPullSupplier@2@@Z
?is_nil@ProxyPullSupplier_Helper@CosNotifyChannelAdmin@@SA_NPAV_objref_ProxyPullSupplier@2@@Z
?is_nil@ProxyPushConsumer_Helper@CosEventChannelAdmin@@SA_NPAV_objref_ProxyPushConsumer@2@@Z
?is_nil@ProxyPushConsumer_Helper@CosNotifyChannelAdmin@@SA_NPAV_objref_ProxyPushConsumer@2@@Z
?is_nil@ProxyPushSupplier_Helper@CosEventChannelAdmin@@SA_NPAV_objref_ProxyPushSupplier@2@@Z
?is_nil@ProxyPushSupplier_Helper@CosNotifyChannelAdmin@@SA_NPAV_objref_ProxyPushSupplier@2@@Z
?is_nil@ProxySupplier_Helper@CosNotifyChannelAdmin@@SA_NPAV_objref_ProxySupplier@2@@Z
?is_nil@PullConsumer_Helper@CosEventComm@@SA_NPAV_objref_PullConsumer@2@@Z
?is_nil@PullConsumer_Helper@CosNotifyComm@@SA_NPAV_objref_PullConsumer@2@@Z
?is_nil@PullSupplier_Helper@CosEventComm@@SA_NPAV_objref_PullSupplier@2@@Z
?is_nil@PullSupplier_Helper@CosNotifyComm@@SA_NPAV_objref_PullSupplier@2@@Z
?is_nil@PushConsumer_Helper@CosEventComm@@SA_NPAV_objref_PushConsumer@2@@Z
?is_nil@PushConsumer_Helper@CosNotifyComm@@SA_NPAV_objref_PushConsumer@2@@Z
?is_nil@PushSupplier_Helper@CosEventComm@@SA_NPAV_objref_PushSupplier@2@@Z
?is_nil@PushSupplier_Helper@CosNotifyComm@@SA_NPAV_objref_PushSupplier@2@@Z
?is_nil@QoSAdmin_Helper@CosNotification@@SA_NPAV_objref_QoSAdmin@2@@Z
?is_nil@SequenceProxyPullConsumer_Helper@CosNotifyChannelAdmin@@SA_NPAV_objref_SequenceProxyPullConsumer@2@@Z
?is_nil@SequenceProxyPullSupplier_Helper@CosNotifyChannelAdmin@@SA_NPAV_objref_SequenceProxyPullSupplier@2@@Z
?is_nil@SequenceProxyPushConsumer_Helper@CosNotifyChannelAdmin@@SA_NPAV_objref_SequenceProxyPushConsumer@2@@Z
?is_nil@SequenceProxyPushSupplier_Helper@CosNotifyChannelAdmin@@SA_NPAV_objref_SequenceProxyPushSupplier@2@@Z
?is_nil@SequencePullConsumer_Helper@CosNotifyComm@@SA_NPAV_objref_SequencePullConsumer@2@@Z
?is_nil@SequencePullSupplier_Helper@CosNotifyComm@@SA_NPAV_objref_SequencePullSupplier@2@@Z
?is_nil@SequencePushConsumer_Helper@CosNotifyComm@@SA_NPAV_objref_SequencePushConsumer@2@@Z
?is_nil@SequencePushSupplier_Helper@CosNotifyComm@@SA_NPAV_objref_SequencePushSupplier@2@@Z
?is_nil@StructuredProxyPullConsumer_Helper@CosNotifyChannelAdmin@@SA_NPAV_objref_StructuredProxyPullConsumer@2@@Z
?is_nil@StructuredProxyPullSupplier_Helper@CosNotifyChannelAdmin@@SA_NPAV_objref_StructuredProxyPullSupplier@2@@Z
?is_nil@StructuredProxyPushConsumer_Helper@CosNotifyChannelAdmin@@SA_NPAV_objref_StructuredProxyPushConsumer@2@@Z
?is_nil@StructuredProxyPushSupplier_Helper@CosNotifyChannelAdmin@@SA_NPAV_objref_StructuredProxyPushSupplier@2@@Z
?is_nil@StructuredPullConsumer_Helper@CosNotifyComm@@SA_NPAV_objref_StructuredPullConsumer@2@@Z
?is_nil@StructuredPullSupplier_Helper@CosNotifyComm@@SA_NPAV_objref_StructuredPullSupplier@2@@Z
?is_nil@StructuredPushConsumer_Helper@CosNotifyComm@@SA_NPAV_objref_StructuredPushConsumer@2@@Z
?is_nil@StructuredPushSupplier_Helper@CosNotifyComm@@SA_NPAV_objref_StructuredPushSupplier@2@@Z
?is_nil@SupplierAdmin_Helper@CosEventChannelAdmin@@SA_NPAV_objref_SupplierAdmin@2@@Z
?is_nil@SupplierAdmin_Helper@CosNotifyChannelAdmin@@SA_NPAV_objref_SupplierAdmin@2@@Z
?is_nil@TIO_Helper@CosTime@@SA_NPAV_objref_TIO@2@@Z
?is_nil@TimeService_Helper@CosTime@@SA_NPAV_objref_TimeService@2@@Z
?is_nil@UTO_Helper@CosTime@@SA_NPAV_objref_UTO@2@@Z
?length@?$_CORBA_Sequence@J@@QAEXK@Z
?length@?$_CORBA_Sequence@J@@QBEKXZ
?length@?$_CORBA_Sequence@UConstraintExp@CosNotifyFilter@@@@QAEXK@Z
?length@?$_CORBA_Sequence@UConstraintInfo@CosNotifyFilter@@@@QAEXK@Z
?length@?$_CORBA_Sequence@UEventType@CosNotification@@@@QAEXK@Z
?length@?$_CORBA_Sequence@UMappingConstraintInfo@CosNotifyFilter@@@@QAEXK@Z
?length@?$_CORBA_Sequence@UMappingConstraintPair@CosNotifyFilter@@@@QAEXK@Z
?length@?$_CORBA_Sequence@UNVP@CosLifeCycle@@@@QAEXK@Z
?length@?$_CORBA_Sequence@UNameComponent@CosNaming@@@@QAEXK@Z
?length@?$_CORBA_Sequence@UNamedPropertyRange@CosNotification@@@@QAEXK@Z
?length@?$_CORBA_Sequence@UProperty@CosNotification@@@@QAEXK@Z
?length@?$_CORBA_Sequence@UPropertyError@CosNotification@@@@QAEXK@Z
?length@?$_CORBA_Sequence@UStructuredEvent@CosNotification@@@@QAEXK@Z
?length@?$_CORBA_Sequence_ObjRef@VObject@CORBA@@VObject_Element@2@VObject_Helper@2@@@QAEXK@Z
?lifetime_filter@_objref_ConsumerAdmin@CosNotifyChannelAdmin@@QAEPAV_objref_MappingFilter@CosNotifyFilter@@XZ
?lifetime_filter@_objref_ConsumerAdmin@CosNotifyChannelAdmin@@QAEXPAV_objref_MappingFilter@CosNotifyFilter@@@Z
?lifetime_filter@_objref_ProxySupplier@CosNotifyChannelAdmin@@QAEPAV_objref_MappingFilter@CosNotifyFilter@@XZ
?lifetime_filter@_objref_ProxySupplier@CosNotifyChannelAdmin@@QAEXPAV_objref_MappingFilter@CosNotifyFilter@@@Z
?lock@omni_mutex@@QAEXXZ
?marshalArguments@_0RL_cd_1fe8f330207afd15_02000000@@UAEXAAVcdrStream@@@Z
?marshalArguments@_0RL_cd_1fe8f330207afd15_03000000@@UAEXAAVcdrStream@@@Z
?marshalArguments@_0RL_cd_1fe8f330207afd15_11000000@@UAEXAAVcdrStream@@@Z
?marshalArguments@_0RL_cd_1fe8f330207afd15_20000000@@UAEXAAVcdrStream@@@Z
?marshalArguments@_0RL_cd_1fe8f330207afd15_22000000@@UAEXAAVcdrStream@@@Z
?marshalArguments@_0RL_cd_1fe8f330207afd15_23000000@@UAEXAAVcdrStream@@@Z
?marshalArguments@_0RL_cd_1fe8f330207afd15_31000000@@UAEXAAVcdrStream@@@Z
?marshalArguments@_0RL_cd_1fe8f330207afd15_40000000@@UAEXAAVcdrStream@@@Z
?marshalArguments@_0RL_cd_1fe8f330207afd15_43000000@@UAEXAAVcdrStream@@@Z
?marshalArguments@_0RL_cd_1fe8f330207afd15_51000000@@UAEXAAVcdrStream@@@Z
?marshalArguments@_0RL_cd_1fe8f330207afd15_60000000@@UAEXAAVcdrStream@@@Z
?marshalArguments@_0RL_cd_1fe8f330207afd15_63000000@@UAEXAAVcdrStream@@@Z
?marshalArguments@_0RL_cd_1fe8f330207afd15_82000000@@UAEXAAVcdrStream@@@Z
?marshalArguments@_0RL_cd_1fe8f330207afd15_a2000000@@UAEXAAVcdrStream@@@Z
?marshalArguments@_0RL_cd_1fe8f330207afd15_c2000000@@UAEXAAVcdrStream@@@Z
?marshalArguments@_0RL_cd_1fe8f330207afd15_d0000000@@UAEXAAVcdrStream@@@Z
?marshalArguments@_0RL_cd_1fe8f330207afd15_e1000000@@UAEXAAVcdrStream@@@Z
?marshalArguments@_0RL_cd_1fe8f330207afd15_e2000000@@UAEXAAVcdrStream@@@Z
?marshalArguments@_0RL_cd_1fe8f330207afd15_f0000000@@UAEXAAVcdrStream@@@Z
?marshalArguments@_0RL_cd_25b2b9dd5b4ad98d_00000000@@UAEXAAVcdrStream@@@Z
?marshalArguments@_0RL_cd_25b2b9dd5b4ad98d_20000000@@UAEXAAVcdrStream@@@Z
?marshalArguments@_0RL_cd_25b2b9dd5b4ad98d_40000000@@UAEXAAVcdrStream@@@Z
?marshalArguments@_0RL_cd_25b2b9dd5b4ad98d_80000000@@UAEXAAVcdrStream@@@Z
?marshalArguments@_0RL_cd_25b2b9dd5b4ad98d_a0000000@@UAEXAAVcdrStream@@@Z
?marshalArguments@_0RL_cd_4b6b86183777b6c2_00000000@@UAEXAAVcdrStream@@@Z
?marshalArguments@_0RL_cd_4b6b86183777b6c2_21000000@@UAEXAAVcdrStream@@@Z
?marshalArguments@_0RL_cd_4b6b86183777b6c2_30000000@@UAEXAAVcdrStream@@@Z
?marshalArguments@_0RL_cd_4b6b86183777b6c2_41000000@@UAEXAAVcdrStream@@@Z
?marshalArguments@_0RL_cd_4b6b86183777b6c2_e0000000@@UAEXAAVcdrStream@@@Z
?marshalArguments@_0RL_cd_8b6214f5b3100e7e_20000000@@UAEXAAVcdrStream@@@Z
?marshalArguments@_0RL_cd_8b6214f5b3100e7e_40000000@@UAEXAAVcdrStream@@@Z
?marshalArguments@_0RL_cd_8b6214f5b3100e7e_70000000@@UAEXAAVcdrStream@@@Z
?marshalArguments@_0RL_cd_9043e11a9721dab3_06000000@@UAEXAAVcdrStream@@@Z
?marshalArguments@_0RL_cd_9043e11a9721dab3_13000000@@UAEXAAVcdrStream@@@Z
?marshalArguments@_0RL_cd_9043e11a9721dab3_25000000@@UAEXAAVcdrStream@@@Z
?marshalArguments@_0RL_cd_9043e11a9721dab3_26000000@@UAEXAAVcdrStream@@@Z
?marshalArguments@_0RL_cd_9043e11a9721dab3_31000000@@UAEXAAVcdrStream@@@Z
?marshalArguments@_0RL_cd_9043e11a9721dab3_40000000@@UAEXAAVcdrStream@@@Z
?marshalArguments@_0RL_cd_9043e11a9721dab3_45000000@@UAEXAAVcdrStream@@@Z
?marshalArguments@_0RL_cd_9043e11a9721dab3_46000000@@UAEXAAVcdrStream@@@Z
?marshalArguments@_0RL_cd_9043e11a9721dab3_51000000@@UAEXAAVcdrStream@@@Z
?marshalArguments@_0RL_cd_9043e11a9721dab3_52000000@@UAEXAAVcdrStream@@@Z
?marshalArguments@_0RL_cd_9043e11a9721dab3_53000000@@UAEXAAVcdrStream@@@Z
?marshalArguments@_0RL_cd_9043e11a9721dab3_60000000@@UAEXAAVcdrStream@@@Z
?marshalArguments@_0RL_cd_9043e11a9721dab3_64000000@@UAEXAAVcdrStream@@@Z
?marshalArguments@_0RL_cd_9043e11a9721dab3_71000000@@UAEXAAVcdrStream@@@Z
?marshalArguments@_0RL_cd_9043e11a9721dab3_84000000@@UAEXAAVcdrStream@@@Z
?marshalArguments@_0RL_cd_9043e11a9721dab3_91000000@@UAEXAAVcdrStream@@@Z
?marshalArguments@_0RL_cd_9043e11a9721dab3_92000000@@UAEXAAVcdrStream@@@Z
?marshalArguments@_0RL_cd_9043e11a9721dab3_96000000@@UAEXAAVcdrStream@@@Z
?marshalArguments@_0RL_cd_9043e11a9721dab3_b1000000@@UAEXAAVcdrStream@@@Z
?marshalArguments@_0RL_cd_9043e11a9721dab3_d0000000@@UAEXAAVcdrStream@@@Z
?marshalArguments@_0RL_cd_9043e11a9721dab3_d1000000@@UAEXAAVcdrStream@@@Z
?marshalArguments@_0RL_cd_9043e11a9721dab3_d2000000@@UAEXAAVcdrStream@@@Z
?marshalArguments@_0RL_cd_9043e11a9721dab3_d6000000@@UAEXAAVcdrStream@@@Z
?marshalArguments@_0RL_cd_9043e11a9721dab3_e5000000@@UAEXAAVcdrStream@@@Z
?marshalArguments@_0RL_cd_9043e11a9721dab3_f1000000@@UAEXAAVcdrStream@@@Z
?marshalArguments@_0RL_cd_99dff546ea0f9974_11000000@@UAEXAAVcdrStream@@@Z
?marshalArguments@_0RL_cd_99dff546ea0f9974_31000000@@UAEXAAVcdrStream@@@Z
?marshalArguments@_0RL_cd_99dff546ea0f9974_90000000@@UAEXAAVcdrStream@@@Z
?marshalArguments@_0RL_cd_99dff546ea0f9974_91000000@@UAEXAAVcdrStream@@@Z
?marshalArguments@_0RL_cd_99dff546ea0f9974_b0000000@@UAEXAAVcdrStream@@@Z
?marshalArguments@_0RL_cd_99dff546ea0f9974_b1000000@@UAEXAAVcdrStream@@@Z
?marshalArguments@_0RL_cd_99dff546ea0f9974_d1000000@@UAEXAAVcdrStream@@@Z
?marshalArguments@_0RL_cd_bd959cc57b2e138f_00000000@@UAEXAAVcdrStream@@@Z
?marshalArguments@_0RL_cd_f894c8374a428e70_00000000@@UAEXAAVcdrStream@@@Z
?marshalArguments@_0RL_cd_f894c8374a428e70_20000000@@UAEXAAVcdrStream@@@Z
?marshalArguments@_0RL_cd_f894c8374a428e70_40000000@@UAEXAAVcdrStream@@@Z
?marshalArguments@_0RL_cd_f894c8374a428e70_60000000@@UAEXAAVcdrStream@@@Z
?marshalBoolean@cdrStream@@QAEX_N@Z
?marshalLong@cdrStream@@QAEXJ@Z
?marshalObjRef@AdminPropertiesAdmin_Helper@CosNotification@@SAXPAV_objref_AdminPropertiesAdmin@2@AAVcdrStream@@@Z
?marshalObjRef@ConsumerAdmin_Helper@CosEventChannelAdmin@@SAXPAV_objref_ConsumerAdmin@2@AAVcdrStream@@@Z
?marshalObjRef@ConsumerAdmin_Helper@CosNotifyChannelAdmin@@SAXPAV_objref_ConsumerAdmin@2@AAVcdrStream@@@Z
?marshalObjRef@EventChannelFactory_Helper@CosNotifyChannelAdmin@@SAXPAV_objref_EventChannelFactory@2@AAVcdrStream@@@Z
?marshalObjRef@EventChannel_Helper@CosEventChannelAdmin@@SAXPAV_objref_EventChannel@2@AAVcdrStream@@@Z
?marshalObjRef@EventChannel_Helper@CosNotifyChannelAdmin@@SAXPAV_objref_EventChannel@2@AAVcdrStream@@@Z
?marshalObjRef@FactoryFinder_Helper@CosLifeCycle@@SAXPAV_objref_FactoryFinder@2@AAVcdrStream@@@Z
?marshalObjRef@FilterAdmin_Helper@CosNotifyFilter@@SAXPAV_objref_FilterAdmin@2@AAVcdrStream@@@Z
?marshalObjRef@FilterFactory_Helper@CosNotifyFilter@@SAXPAV_objref_FilterFactory@2@AAVcdrStream@@@Z
?marshalObjRef@Filter_Helper@CosNotifyFilter@@SAXPAV_objref_Filter@2@AAVcdrStream@@@Z
?marshalObjRef@GenericFactory_Helper@CosLifeCycle@@SAXPAV_objref_GenericFactory@2@AAVcdrStream@@@Z
?marshalObjRef@LifeCycleObject_Helper@CosLifeCycle@@SAXPAV_objref_LifeCycleObject@2@AAVcdrStream@@@Z
?marshalObjRef@MappingFilter_Helper@CosNotifyFilter@@SAXPAV_objref_MappingFilter@2@AAVcdrStream@@@Z
?marshalObjRef@NotifyPublish_Helper@CosNotifyComm@@SAXPAV_objref_NotifyPublish@2@AAVcdrStream@@@Z
?marshalObjRef@NotifySubscribe_Helper@CosNotifyComm@@SAXPAV_objref_NotifySubscribe@2@AAVcdrStream@@@Z
?marshalObjRef@ProxyConsumer_Helper@CosNotifyChannelAdmin@@SAXPAV_objref_ProxyConsumer@2@AAVcdrStream@@@Z
?marshalObjRef@ProxyPullConsumer_Helper@CosEventChannelAdmin@@SAXPAV_objref_ProxyPullConsumer@2@AAVcdrStream@@@Z
?marshalObjRef@ProxyPullConsumer_Helper@CosNotifyChannelAdmin@@SAXPAV_objref_ProxyPullConsumer@2@AAVcdrStream@@@Z
?marshalObjRef@ProxyPullSupplier_Helper@CosEventChannelAdmin@@SAXPAV_objref_ProxyPullSupplier@2@AAVcdrStream@@@Z
?marshalObjRef@ProxyPullSupplier_Helper@CosNotifyChannelAdmin@@SAXPAV_objref_ProxyPullSupplier@2@AAVcdrStream@@@Z
?marshalObjRef@ProxyPushConsumer_Helper@CosEventChannelAdmin@@SAXPAV_objref_ProxyPushConsumer@2@AAVcdrStream@@@Z
?marshalObjRef@ProxyPushConsumer_Helper@CosNotifyChannelAdmin@@SAXPAV_objref_ProxyPushConsumer@2@AAVcdrStream@@@Z
?marshalObjRef@ProxyPushSupplier_Helper@CosEventChannelAdmin@@SAXPAV_objref_ProxyPushSupplier@2@AAVcdrStream@@@Z
?marshalObjRef@ProxyPushSupplier_Helper@CosNotifyChannelAdmin@@SAXPAV_objref_ProxyPushSupplier@2@AAVcdrStream@@@Z
?marshalObjRef@ProxySupplier_Helper@CosNotifyChannelAdmin@@SAXPAV_objref_ProxySupplier@2@AAVcdrStream@@@Z
?marshalObjRef@PullConsumer_Helper@CosEventComm@@SAXPAV_objref_PullConsumer@2@AAVcdrStream@@@Z
?marshalObjRef@PullConsumer_Helper@CosNotifyComm@@SAXPAV_objref_PullConsumer@2@AAVcdrStream@@@Z
?marshalObjRef@PullSupplier_Helper@CosEventComm@@SAXPAV_objref_PullSupplier@2@AAVcdrStream@@@Z
?marshalObjRef@PullSupplier_Helper@CosNotifyComm@@SAXPAV_objref_PullSupplier@2@AAVcdrStream@@@Z
?marshalObjRef@PushConsumer_Helper@CosEventComm@@SAXPAV_objref_PushConsumer@2@AAVcdrStream@@@Z
?marshalObjRef@PushConsumer_Helper@CosNotifyComm@@SAXPAV_objref_PushConsumer@2@AAVcdrStream@@@Z
?marshalObjRef@PushSupplier_Helper@CosEventComm@@SAXPAV_objref_PushSupplier@2@AAVcdrStream@@@Z
?marshalObjRef@PushSupplier_Helper@CosNotifyComm@@SAXPAV_objref_PushSupplier@2@AAVcdrStream@@@Z
?marshalObjRef@QoSAdmin_Helper@CosNotification@@SAXPAV_objref_QoSAdmin@2@AAVcdrStream@@@Z
?marshalObjRef@SequenceProxyPullConsumer_Helper@CosNotifyChannelAdmin@@SAXPAV_objref_SequenceProxyPullConsumer@2@AAVcdrStream@@@Z
?marshalObjRef@SequenceProxyPullSupplier_Helper@CosNotifyChannelAdmin@@SAXPAV_objref_SequenceProxyPullSupplier@2@AAVcdrStream@@@Z
?marshalObjRef@SequenceProxyPushConsumer_Helper@CosNotifyChannelAdmin@@SAXPAV_objref_SequenceProxyPushConsumer@2@AAVcdrStream@@@Z
?marshalObjRef@SequenceProxyPushSupplier_Helper@CosNotifyChannelAdmin@@SAXPAV_objref_SequenceProxyPushSupplier@2@AAVcdrStream@@@Z
?marshalObjRef@SequencePullConsumer_Helper@CosNotifyComm@@SAXPAV_objref_SequencePullConsumer@2@AAVcdrStream@@@Z
?marshalObjRef@SequencePullSupplier_Helper@CosNotifyComm@@SAXPAV_objref_SequencePullSupplier@2@AAVcdrStream@@@Z
?marshalObjRef@SequencePushConsumer_Helper@CosNotifyComm@@SAXPAV_objref_SequencePushConsumer@2@AAVcdrStream@@@Z
?marshalObjRef@SequencePushSupplier_Helper@CosNotifyComm@@SAXPAV_objref_SequencePushSupplier@2@AAVcdrStream@@@Z
?marshalObjRef@StructuredProxyPullConsumer_Helper@CosNotifyChannelAdmin@@SAXPAV_objref_StructuredProxyPullConsumer@2@AAVcdrStream@@@Z
?marshalObjRef@StructuredProxyPullSupplier_Helper@CosNotifyChannelAdmin@@SAXPAV_objref_StructuredProxyPullSupplier@2@AAVcdrStream@@@Z
?marshalObjRef@StructuredProxyPushConsumer_Helper@CosNotifyChannelAdmin@@SAXPAV_objref_StructuredProxyPushConsumer@2@AAVcdrStream@@@Z
?marshalObjRef@StructuredProxyPushSupplier_Helper@CosNotifyChannelAdmin@@SAXPAV_objref_StructuredProxyPushSupplier@2@AAVcdrStream@@@Z
?marshalObjRef@StructuredPullConsumer_Helper@CosNotifyComm@@SAXPAV_objref_StructuredPullConsumer@2@AAVcdrStream@@@Z
?marshalObjRef@StructuredPullSupplier_Helper@CosNotifyComm@@SAXPAV_objref_StructuredPullSupplier@2@AAVcdrStream@@@Z
?marshalObjRef@StructuredPushConsumer_Helper@CosNotifyComm@@SAXPAV_objref_StructuredPushConsumer@2@AAVcdrStream@@@Z
?marshalObjRef@StructuredPushSupplier_Helper@CosNotifyComm@@SAXPAV_objref_StructuredPushSupplier@2@AAVcdrStream@@@Z
?marshalObjRef@SupplierAdmin_Helper@CosEventChannelAdmin@@SAXPAV_objref_SupplierAdmin@2@AAVcdrStream@@@Z
?marshalObjRef@SupplierAdmin_Helper@CosNotifyChannelAdmin@@SAXPAV_objref_SupplierAdmin@2@AAVcdrStream@@@Z
?marshalObjRef@TIO_Helper@CosTime@@SAXPAV_objref_TIO@2@AAVcdrStream@@@Z
?marshalObjRef@TimeService_Helper@CosTime@@SAXPAV_objref_TimeService@2@AAVcdrStream@@@Z
?marshalObjRef@UTO_Helper@CosTime@@SAXPAV_objref_UTO@2@AAVcdrStream@@@Z
?marshalOctet@cdrStream@@QAEXE@Z
?marshalReturnedValues@_0RL_cd_1fe8f330207afd15_00000000@@UAEXAAVcdrStream@@@Z
?marshalReturnedValues@_0RL_cd_1fe8f330207afd15_03000000@@UAEXAAVcdrStream@@@Z
?marshalReturnedValues@_0RL_cd_1fe8f330207afd15_11000000@@UAEXAAVcdrStream@@@Z
?marshalReturnedValues@_0RL_cd_1fe8f330207afd15_20000000@@UAEXAAVcdrStream@@@Z
?marshalReturnedValues@_0RL_cd_1fe8f330207afd15_22000000@@UAEXAAVcdrStream@@@Z
?marshalReturnedValues@_0RL_cd_1fe8f330207afd15_23000000@@UAEXAAVcdrStream@@@Z
?marshalReturnedValues@_0RL_cd_1fe8f330207afd15_31000000@@UAEXAAVcdrStream@@@Z
?marshalReturnedValues@_0RL_cd_1fe8f330207afd15_42000000@@UAEXAAVcdrStream@@@Z
?marshalReturnedValues@_0RL_cd_1fe8f330207afd15_60000000@@UAEXAAVcdrStream@@@Z
?marshalReturnedValues@_0RL_cd_1fe8f330207afd15_63000000@@UAEXAAVcdrStream@@@Z
?marshalReturnedValues@_0RL_cd_1fe8f330207afd15_71000000@@UAEXAAVcdrStream@@@Z
?marshalReturnedValues@_0RL_cd_1fe8f330207afd15_80000000@@UAEXAAVcdrStream@@@Z
?marshalReturnedValues@_0RL_cd_1fe8f330207afd15_82000000@@UAEXAAVcdrStream@@@Z
?marshalReturnedValues@_0RL_cd_1fe8f330207afd15_83000000@@UAEXAAVcdrStream@@@Z
?marshalReturnedValues@_0RL_cd_1fe8f330207afd15_a1000000@@UAEXAAVcdrStream@@@Z
?marshalReturnedValues@_0RL_cd_1fe8f330207afd15_a2000000@@UAEXAAVcdrStream@@@Z
?marshalReturnedValues@_0RL_cd_1fe8f330207afd15_c1000000@@UAEXAAVcdrStream@@@Z
?marshalReturnedValues@_0RL_cd_1fe8f330207afd15_c2000000@@UAEXAAVcdrStream@@@Z
?marshalReturnedValues@_0RL_cd_1fe8f330207afd15_d0000000@@UAEXAAVcdrStream@@@Z
?marshalReturnedValues@_0RL_cd_1fe8f330207afd15_e1000000@@UAEXAAVcdrStream@@@Z
?marshalReturnedValues@_0RL_cd_1fe8f330207afd15_e2000000@@UAEXAAVcdrStream@@@Z
?marshalReturnedValues@_0RL_cd_1fe8f330207afd15_f0000000@@UAEXAAVcdrStream@@@Z
?marshalReturnedValues@_0RL_cd_25b2b9dd5b4ad98d_00000000@@UAEXAAVcdrStream@@@Z
?marshalReturnedValues@_0RL_cd_25b2b9dd5b4ad98d_20000000@@UAEXAAVcdrStream@@@Z
?marshalReturnedValues@_0RL_cd_25b2b9dd5b4ad98d_80000000@@UAEXAAVcdrStream@@@Z
?marshalReturnedValues@_0RL_cd_25b2b9dd5b4ad98d_a0000000@@UAEXAAVcdrStream@@@Z
?marshalReturnedValues@_0RL_cd_4b6b86183777b6c2_21000000@@UAEXAAVcdrStream@@@Z
?marshalReturnedValues@_0RL_cd_4b6b86183777b6c2_41000000@@UAEXAAVcdrStream@@@Z
?marshalReturnedValues@_0RL_cd_4b6b86183777b6c2_80000000@@UAEXAAVcdrStream@@@Z
?marshalReturnedValues@_0RL_cd_4b6b86183777b6c2_a0000000@@UAEXAAVcdrStream@@@Z
?marshalReturnedValues@_0RL_cd_8b6214f5b3100e7e_00000000@@UAEXAAVcdrStream@@@Z
?marshalReturnedValues@_0RL_cd_8b6214f5b3100e7e_40000000@@UAEXAAVcdrStream@@@Z
?marshalReturnedValues@_0RL_cd_9043e11a9721dab3_00000000@@UAEXAAVcdrStream@@@Z
?marshalReturnedValues@_0RL_cd_9043e11a9721dab3_06000000@@UAEXAAVcdrStream@@@Z
?marshalReturnedValues@_0RL_cd_9043e11a9721dab3_20000000@@UAEXAAVcdrStream@@@Z
?marshalReturnedValues@_0RL_cd_9043e11a9721dab3_25000000@@UAEXAAVcdrStream@@@Z
?marshalReturnedValues@_0RL_cd_9043e11a9721dab3_26000000@@UAEXAAVcdrStream@@@Z
?marshalReturnedValues@_0RL_cd_9043e11a9721dab3_34000000@@UAEXAAVcdrStream@@@Z
?marshalReturnedValues@_0RL_cd_9043e11a9721dab3_40000000@@UAEXAAVcdrStream@@@Z
?marshalReturnedValues@_0RL_cd_9043e11a9721dab3_45000000@@UAEXAAVcdrStream@@@Z
?marshalReturnedValues@_0RL_cd_9043e11a9721dab3_46000000@@UAEXAAVcdrStream@@@Z
?marshalReturnedValues@_0RL_cd_9043e11a9721dab3_60000000@@UAEXAAVcdrStream@@@Z
?marshalReturnedValues@_0RL_cd_9043e11a9721dab3_64000000@@UAEXAAVcdrStream@@@Z
?marshalReturnedValues@_0RL_cd_9043e11a9721dab3_66000000@@UAEXAAVcdrStream@@@Z
?marshalReturnedValues@_0RL_cd_9043e11a9721dab3_84000000@@UAEXAAVcdrStream@@@Z
?marshalReturnedValues@_0RL_cd_9043e11a9721dab3_85000000@@UAEXAAVcdrStream@@@Z
?marshalReturnedValues@_0RL_cd_9043e11a9721dab3_90000000@@UAEXAAVcdrStream@@@Z
?marshalReturnedValues@_0RL_cd_9043e11a9721dab3_93000000@@UAEXAAVcdrStream@@@Z
?marshalReturnedValues@_0RL_cd_9043e11a9721dab3_96000000@@UAEXAAVcdrStream@@@Z
?marshalReturnedValues@_0RL_cd_9043e11a9721dab3_b0000000@@UAEXAAVcdrStream@@@Z
?marshalReturnedValues@_0RL_cd_9043e11a9721dab3_b3000000@@UAEXAAVcdrStream@@@Z
?marshalReturnedValues@_0RL_cd_9043e11a9721dab3_b6000000@@UAEXAAVcdrStream@@@Z
?marshalReturnedValues@_0RL_cd_9043e11a9721dab3_c5000000@@UAEXAAVcdrStream@@@Z
?marshalReturnedValues@_0RL_cd_9043e11a9721dab3_d3000000@@UAEXAAVcdrStream@@@Z
?marshalReturnedValues@_0RL_cd_9043e11a9721dab3_d6000000@@UAEXAAVcdrStream@@@Z
?marshalReturnedValues@_0RL_cd_9043e11a9721dab3_e5000000@@UAEXAAVcdrStream@@@Z
?marshalReturnedValues@_0RL_cd_99dff546ea0f9974_00000000@@UAEXAAVcdrStream@@@Z
?marshalReturnedValues@_0RL_cd_99dff546ea0f9974_11000000@@UAEXAAVcdrStream@@@Z
?marshalReturnedValues@_0RL_cd_99dff546ea0f9974_30000000@@UAEXAAVcdrStream@@@Z
?marshalReturnedValues@_0RL_cd_99dff546ea0f9974_31000000@@UAEXAAVcdrStream@@@Z
?marshalReturnedValues@_0RL_cd_99dff546ea0f9974_50000000@@UAEXAAVcdrStream@@@Z
?marshalReturnedValues@_0RL_cd_99dff546ea0f9974_61000000@@UAEXAAVcdrStream@@@Z
?marshalReturnedValues@_0RL_cd_99dff546ea0f9974_70000000@@UAEXAAVcdrStream@@@Z
?marshalReturnedValues@_0RL_cd_99dff546ea0f9974_90000000@@UAEXAAVcdrStream@@@Z
?marshalReturnedValues@_0RL_cd_99dff546ea0f9974_91000000@@UAEXAAVcdrStream@@@Z
?marshalReturnedValues@_0RL_cd_99dff546ea0f9974_b0000000@@UAEXAAVcdrStream@@@Z
?marshalReturnedValues@_0RL_cd_99dff546ea0f9974_b1000000@@UAEXAAVcdrStream@@@Z
?marshalReturnedValues@_0RL_cd_99dff546ea0f9974_d0000000@@UAEXAAVcdrStream@@@Z
?marshalReturnedValues@_0RL_cd_99dff546ea0f9974_d1000000@@UAEXAAVcdrStream@@@Z
?marshalReturnedValues@_0RL_cd_99dff546ea0f9974_f0000000@@UAEXAAVcdrStream@@@Z
?marshalReturnedValues@_0RL_cd_bd959cc57b2e138f_50000000@@UAEXAAVcdrStream@@@Z
?marshalReturnedValues@_0RL_cd_bd959cc57b2e138f_70000000@@UAEXAAVcdrStream@@@Z
?marshalReturnedValues@_0RL_cd_f894c8374a428e70_01000000@@UAEXAAVcdrStream@@@Z
?marshalReturnedValues@_0RL_cd_f894c8374a428e70_21000000@@UAEXAAVcdrStream@@@Z
?marshalReturnedValues@_0RL_cd_f894c8374a428e70_80000000@@UAEXAAVcdrStream@@@Z
?marshalReturnedValues@_0RL_cd_f894c8374a428e70_a0000000@@UAEXAAVcdrStream@@@Z
?marshalReturnedValues@_0RL_cd_f894c8374a428e70_c0000000@@UAEXAAVcdrStream@@@Z
?marshalReturnedValues@_0RL_cd_f894c8374a428e70_e0000000@@UAEXAAVcdrStream@@@Z
?marshalShort@cdrStream@@QAEXF@Z
?marshalString@cdrStream@@QAEXPBDH@Z
?marshalULong@cdrStream@@QAEXK@Z
?marshalULongLong@cdrStream@@QAEX_K@Z
?marshalUShort@cdrStream@@QAEXG@Z
?marshal_byte_swap@cdrStream@@QBE_NXZ
?match@_objref_Filter@CosNotifyFilter@@QAE_NABVAny@CORBA@@@Z
?match@_objref_MappingFilter@CosNotifyFilter@@QAE_NABVAny@CORBA@@VAny_OUT_arg@4@@Z
?match_structured@_objref_Filter@CosNotifyFilter@@QAE_NABUStructuredEvent@CosNotification@@@Z
?match_structured@_objref_MappingFilter@CosNotifyFilter@@QAE_NABUStructuredEvent@CosNotification@@VAny_OUT_arg@CORBA@@@Z
?match_typed@_objref_Filter@CosNotifyFilter@@QAE_NABVPropertySeq@CosNotification@@@Z
?match_typed@_objref_MappingFilter@CosNotifyFilter@@QAE_NABVPropertySeq@CosNotification@@VAny_OUT_arg@CORBA@@@Z
?modify_constraints@_objref_Filter@CosNotifyFilter@@QAEXABVConstraintIDSeq@2@ABVConstraintInfoSeq@2@@Z
?modify_mapping_constraints@_objref_MappingFilter@CosNotifyFilter@@QAEXABVConstraintIDSeq@2@ABVMappingConstraintInfoSeq@2@@Z
?move@_objref_LifeCycleObject@CosLifeCycle@@QAEXPAV_objref_FactoryFinder@2@ABVCriteria@2@@Z
?newObjRef@_pof_AdminPropertiesAdmin@CosNotification@@UAEPAVomniObjRef@@PAVomniIOR@@PAVomniIdentity@@@Z
?newObjRef@_pof_ConsumerAdmin@CosEventChannelAdmin@@UAEPAVomniObjRef@@PAVomniIOR@@PAVomniIdentity@@@Z
?newObjRef@_pof_ConsumerAdmin@CosNotifyChannelAdmin@@UAEPAVomniObjRef@@PAVomniIOR@@PAVomniIdentity@@@Z
?newObjRef@_pof_EventChannel@CosEventChannelAdmin@@UAEPAVomniObjRef@@PAVomniIOR@@PAVomniIdentity@@@Z
?newObjRef@_pof_EventChannel@CosNotifyChannelAdmin@@UAEPAVomniObjRef@@PAVomniIOR@@PAVomniIdentity@@@Z
?newObjRef@_pof_EventChannelFactory@CosNotifyChannelAdmin@@UAEPAVomniObjRef@@PAVomniIOR@@PAVomniIdentity@@@Z
?newObjRef@_pof_FactoryFinder@CosLifeCycle@@UAEPAVomniObjRef@@PAVomniIOR@@PAVomniIdentity@@@Z
?newObjRef@_pof_Filter@CosNotifyFilter@@UAEPAVomniObjRef@@PAVomniIOR@@PAVomniIdentity@@@Z
?newObjRef@_pof_FilterAdmin@CosNotifyFilter@@UAEPAVomniObjRef@@PAVomniIOR@@PAVomniIdentity@@@Z
?newObjRef@_pof_FilterFactory@CosNotifyFilter@@UAEPAVomniObjRef@@PAVomniIOR@@PAVomniIdentity@@@Z
?newObjRef@_pof_GenericFactory@CosLifeCycle@@UAEPAVomniObjRef@@PAVomniIOR@@PAVomniIdentity@@@Z
?newObjRef@_pof_LifeCycleObject@CosLifeCycle@@UAEPAVomniObjRef@@PAVomniIOR@@PAVomniIdentity@@@Z
?newObjRef@_pof_MappingFilter@CosNotifyFilter@@UAEPAVomniObjRef@@PAVomniIOR@@PAVomniIdentity@@@Z
?newObjRef@_pof_NotifyPublish@CosNotifyComm@@UAEPAVomniObjRef@@PAVomniIOR@@PAVomniIdentity@@@Z
?newObjRef@_pof_NotifySubscribe@CosNotifyComm@@UAEPAVomniObjRef@@PAVomniIOR@@PAVomniIdentity@@@Z
?newObjRef@_pof_ProxyConsumer@CosNotifyChannelAdmin@@UAEPAVomniObjRef@@PAVomniIOR@@PAVomniIdentity@@@Z
?newObjRef@_pof_ProxyPullConsumer@CosEventChannelAdmin@@UAEPAVomniObjRef@@PAVomniIOR@@PAVomniIdentity@@@Z
?newObjRef@_pof_ProxyPullConsumer@CosNotifyChannelAdmin@@UAEPAVomniObjRef@@PAVomniIOR@@PAVomniIdentity@@@Z
?newObjRef@_pof_ProxyPullSupplier@CosEventChannelAdmin@@UAEPAVomniObjRef@@PAVomniIOR@@PAVomniIdentity@@@Z
?newObjRef@_pof_ProxyPullSupplier@CosNotifyChannelAdmin@@UAEPAVomniObjRef@@PAVomniIOR@@PAVomniIdentity@@@Z
?newObjRef@_pof_ProxyPushConsumer@CosEventChannelAdmin@@UAEPAVomniObjRef@@PAVomniIOR@@PAVomniIdentity@@@Z
?newObjRef@_pof_ProxyPushConsumer@CosNotifyChannelAdmin@@UAEPAVomniObjRef@@PAVomniIOR@@PAVomniIdentity@@@Z
?newObjRef@_pof_ProxyPushSupplier@CosEventChannelAdmin@@UAEPAVomniObjRef@@PAVomniIOR@@PAVomniIdentity@@@Z
?newObjRef@_pof_ProxyPushSupplier@CosNotifyChannelAdmin@@UAEPAVomniObjRef@@PAVomniIOR@@PAVomniIdentity@@@Z
?newObjRef@_pof_ProxySupplier@CosNotifyChannelAdmin@@UAEPAVomniObjRef@@PAVomniIOR@@PAVomniIdentity@@@Z
?newObjRef@_pof_PullConsumer@CosEventComm@@UAEPAVomniObjRef@@PAVomniIOR@@PAVomniIdentity@@@Z
?newObjRef@_pof_PullConsumer@CosNotifyComm@@UAEPAVomniObjRef@@PAVomniIOR@@PAVomniIdentity@@@Z
?newObjRef@_pof_PullSupplier@CosEventComm@@UAEPAVomniObjRef@@PAVomniIOR@@PAVomniIdentity@@@Z
?newObjRef@_pof_PullSupplier@CosNotifyComm@@UAEPAVomniObjRef@@PAVomniIOR@@PAVomniIdentity@@@Z
?newObjRef@_pof_PushConsumer@CosEventComm@@UAEPAVomniObjRef@@PAVomniIOR@@PAVomniIdentity@@@Z
?newObjRef@_pof_PushConsumer@CosNotifyComm@@UAEPAVomniObjRef@@PAVomniIOR@@PAVomniIdentity@@@Z
?newObjRef@_pof_PushSupplier@CosEventComm@@UAEPAVomniObjRef@@PAVomniIOR@@PAVomniIdentity@@@Z
?newObjRef@_pof_PushSupplier@CosNotifyComm@@UAEPAVomniObjRef@@PAVomniIOR@@PAVomniIdentity@@@Z
?newObjRef@_pof_QoSAdmin@CosNotification@@UAEPAVomniObjRef@@PAVomniIOR@@PAVomniIdentity@@@Z
?newObjRef@_pof_SequenceProxyPullConsumer@CosNotifyChannelAdmin@@UAEPAVomniObjRef@@PAVomniIOR@@PAVomniIdentity@@@Z
?newObjRef@_pof_SequenceProxyPullSupplier@CosNotifyChannelAdmin@@UAEPAVomniObjRef@@PAVomniIOR@@PAVomniIdentity@@@Z
?newObjRef@_pof_SequenceProxyPushConsumer@CosNotifyChannelAdmin@@UAEPAVomniObjRef@@PAVomniIOR@@PAVomniIdentity@@@Z
?newObjRef@_pof_SequenceProxyPushSupplier@CosNotifyChannelAdmin@@UAEPAVomniObjRef@@PAVomniIOR@@PAVomniIdentity@@@Z
?newObjRef@_pof_SequencePullConsumer@CosNotifyComm@@UAEPAVomniObjRef@@PAVomniIOR@@PAVomniIdentity@@@Z
?newObjRef@_pof_SequencePullSupplier@CosNotifyComm@@UAEPAVomniObjRef@@PAVomniIOR@@PAVomniIdentity@@@Z
?newObjRef@_pof_SequencePushConsumer@CosNotifyComm@@UAEPAVomniObjRef@@PAVomniIOR@@PAVomniIdentity@@@Z
?newObjRef@_pof_SequencePushSupplier@CosNotifyComm@@UAEPAVomniObjRef@@PAVomniIOR@@PAVomniIdentity@@@Z
?newObjRef@_pof_StructuredProxyPullConsumer@CosNotifyChannelAdmin@@UAEPAVomniObjRef@@PAVomniIOR@@PAVomniIdentity@@@Z
?newObjRef@_pof_StructuredProxyPullSupplier@CosNotifyChannelAdmin@@UAEPAVomniObjRef@@PAVomniIOR@@PAVomniIdentity@@@Z
?newObjRef@_pof_StructuredProxyPushConsumer@CosNotifyChannelAdmin@@UAEPAVomniObjRef@@PAVomniIOR@@PAVomniIdentity@@@Z
?newObjRef@_pof_StructuredProxyPushSupplier@CosNotifyChannelAdmin@@UAEPAVomniObjRef@@PAVomniIOR@@PAVomniIdentity@@@Z
?newObjRef@_pof_StructuredPullConsumer@CosNotifyComm@@UAEPAVomniObjRef@@PAVomniIOR@@PAVomniIdentity@@@Z
?newObjRef@_pof_StructuredPullSupplier@CosNotifyComm@@UAEPAVomniObjRef@@PAVomniIOR@@PAVomniIdentity@@@Z
?newObjRef@_pof_StructuredPushConsumer@CosNotifyComm@@UAEPAVomniObjRef@@PAVomniIOR@@PAVomniIdentity@@@Z
?newObjRef@_pof_StructuredPushSupplier@CosNotifyComm@@UAEPAVomniObjRef@@PAVomniIOR@@PAVomniIdentity@@@Z
?newObjRef@_pof_SupplierAdmin@CosEventChannelAdmin@@UAEPAVomniObjRef@@PAVomniIOR@@PAVomniIdentity@@@Z
?newObjRef@_pof_SupplierAdmin@CosNotifyChannelAdmin@@UAEPAVomniObjRef@@PAVomniIOR@@PAVomniIdentity@@@Z
?newObjRef@_pof_TIO@CosTime@@UAEPAVomniObjRef@@PAVomniIOR@@PAVomniIdentity@@@Z
?newObjRef@_pof_TimeService@CosTime@@UAEPAVomniObjRef@@PAVomniIOR@@PAVomniIdentity@@@Z
?newObjRef@_pof_UTO@CosTime@@UAEPAVomniObjRef@@PAVomniIOR@@PAVomniIdentity@@@Z
?new_for_consumers@_objref_EventChannel@CosNotifyChannelAdmin@@QAEPAV_objref_ConsumerAdmin@2@W4InterFilterGroupOperator@2@AAJ@Z
?new_for_suppliers@_objref_EventChannel@CosNotifyChannelAdmin@@QAEPAV_objref_SupplierAdmin@2@W4InterFilterGroupOperator@2@AAJ@Z
?new_interval@_objref_TimeService@CosTime@@QAEPAV_objref_TIO@2@_K0@Z
?new_universal_time@_objref_TimeService@CosTime@@QAEPAV_objref_UTO@2@_K0F@Z
?obtain_notification_pull_consumer@_objref_SupplierAdmin@CosNotifyChannelAdmin@@QAEPAV_objref_ProxyConsumer@2@W4ClientType@2@AAJ@Z
?obtain_notification_pull_supplier@_objref_ConsumerAdmin@CosNotifyChannelAdmin@@QAEPAV_objref_ProxySupplier@2@W4ClientType@2@AAJ@Z
?obtain_notification_push_consumer@_objref_SupplierAdmin@CosNotifyChannelAdmin@@QAEPAV_objref_ProxyConsumer@2@W4ClientType@2@AAJ@Z
?obtain_notification_push_supplier@_objref_ConsumerAdmin@CosNotifyChannelAdmin@@QAEPAV_objref_ProxySupplier@2@W4ClientType@2@AAJ@Z
?obtain_offered_types@_objref_ProxySupplier@CosNotifyChannelAdmin@@QAEPAVEventTypeSeq@CosNotification@@W4ObtainInfoMode@2@@Z
?obtain_pull_consumer@_objref_SupplierAdmin@CosEventChannelAdmin@@QAEPAV_objref_ProxyPullConsumer@2@XZ
?obtain_pull_supplier@_objref_ConsumerAdmin@CosEventChannelAdmin@@QAEPAV_objref_ProxyPullSupplier@2@XZ
?obtain_push_consumer@_objref_SupplierAdmin@CosEventChannelAdmin@@QAEPAV_objref_ProxyPushConsumer@2@XZ
?obtain_push_supplier@_objref_ConsumerAdmin@CosEventChannelAdmin@@QAEPAV_objref_ProxyPushSupplier@2@XZ
?obtain_subscription_types@_objref_ProxyConsumer@CosNotifyChannelAdmin@@QAEPAVEventTypeSeq@CosNotification@@W4ObtainInfoMode@2@@Z
?offer_change@_objref_NotifyPublish@CosNotifyComm@@QAEXABVEventTypeSeq@CosNotification@@0@Z
?operation_name@omniCallHandle@@QBEPBDXZ
?out@?$_CORBA_ObjRef_Var@V_objref_TIO@CosTime@@VTIO_Helper@2@@@QAEAAPAV_objref_TIO@CosTime@@XZ
?out@Any_var@CORBA@@QAEAAPAVAny@2@XZ
?out@NamedPropertyRangeSeq_var@CosNotification@@QAEAAPAVNamedPropertyRangeSeq@2@XZ
?outMkr@cdrStream@@IAEKW4alignment_t@omni@@@Z
?outMkr@cdrStream@@IAEKXZ
?overlaps@_objref_TIO@CosTime@@QAE?AW4OverlapType@2@PAV12@V?$_CORBA_ObjRef_OUT_arg@V_objref_TIO@CosTime@@VTIO_Helper@2@@@@Z
?priority_filter@_objref_ConsumerAdmin@CosNotifyChannelAdmin@@QAEPAV_objref_MappingFilter@CosNotifyFilter@@XZ
?priority_filter@_objref_ConsumerAdmin@CosNotifyChannelAdmin@@QAEXPAV_objref_MappingFilter@CosNotifyFilter@@@Z
?priority_filter@_objref_ProxySupplier@CosNotifyChannelAdmin@@QAEPAV_objref_MappingFilter@CosNotifyFilter@@XZ
?priority_filter@_objref_ProxySupplier@CosNotifyChannelAdmin@@QAEXPAV_objref_MappingFilter@CosNotifyFilter@@@Z
?ptrStrMatch@omni@@YA_NPBD0@Z
?pull@_objref_PullSupplier@CosEventComm@@QAEPAVAny@CORBA@@XZ
?pull_consumers@_objref_SupplierAdmin@CosNotifyChannelAdmin@@QAEPAVProxyIDSeq@2@XZ
?pull_structured_event@_objref_StructuredPullSupplier@CosNotifyComm@@QAEPAUStructuredEvent@CosNotification@@XZ
?pull_structured_events@_objref_SequencePullSupplier@CosNotifyComm@@QAEPAVEventBatch@CosNotification@@J@Z
?pull_suppliers@_objref_ConsumerAdmin@CosNotifyChannelAdmin@@QAEPAVProxyIDSeq@2@XZ
?push@_objref_PushConsumer@CosEventComm@@QAEXABVAny@CORBA@@@Z
?push_consumers@_objref_SupplierAdmin@CosNotifyChannelAdmin@@QAEPAVProxyIDSeq@2@XZ
?push_structured_event@_objref_StructuredPushConsumer@CosNotifyComm@@QAEXABUStructuredEvent@CosNotification@@@Z
?push_structured_events@_objref_SequencePushConsumer@CosNotifyComm@@QAEXABVEventBatch@CosNotification@@@Z
?push_suppliers@_objref_ConsumerAdmin@CosNotifyChannelAdmin@@QAEPAVProxyIDSeq@2@XZ
?release@AdminPropertiesAdmin_Helper@CosNotification@@SAXPAV_objref_AdminPropertiesAdmin@2@@Z
?release@CORBA@@YAXPAVObject@1@@Z
?release@ConsumerAdmin_Helper@CosEventChannelAdmin@@SAXPAV_objref_ConsumerAdmin@2@@Z
?release@ConsumerAdmin_Helper@CosNotifyChannelAdmin@@SAXPAV_objref_ConsumerAdmin@2@@Z
?release@EventChannelFactory_Helper@CosNotifyChannelAdmin@@SAXPAV_objref_EventChannelFactory@2@@Z
?release@EventChannel_Helper@CosEventChannelAdmin@@SAXPAV_objref_EventChannel@2@@Z
?release@EventChannel_Helper@CosNotifyChannelAdmin@@SAXPAV_objref_EventChannel@2@@Z
?release@FactoryFinder_Helper@CosLifeCycle@@SAXPAV_objref_FactoryFinder@2@@Z
?release@FilterAdmin_Helper@CosNotifyFilter@@SAXPAV_objref_FilterAdmin@2@@Z
?release@FilterFactory_Helper@CosNotifyFilter@@SAXPAV_objref_FilterFactory@2@@Z
?release@Filter_Helper@CosNotifyFilter@@SAXPAV_objref_Filter@2@@Z
?release@GenericFactory_Helper@CosLifeCycle@@SAXPAV_objref_GenericFactory@2@@Z
?release@LifeCycleObject_Helper@CosLifeCycle@@SAXPAV_objref_LifeCycleObject@2@@Z
?release@MappingFilter_Helper@CosNotifyFilter@@SAXPAV_objref_MappingFilter@2@@Z
?release@NotifyPublish_Helper@CosNotifyComm@@SAXPAV_objref_NotifyPublish@2@@Z
?release@NotifySubscribe_Helper@CosNotifyComm@@SAXPAV_objref_NotifySubscribe@2@@Z
?release@ProxyConsumer_Helper@CosNotifyChannelAdmin@@SAXPAV_objref_ProxyConsumer@2@@Z
?release@ProxyPullConsumer_Helper@CosEventChannelAdmin@@SAXPAV_objref_ProxyPullConsumer@2@@Z
?release@ProxyPullConsumer_Helper@CosNotifyChannelAdmin@@SAXPAV_objref_ProxyPullConsumer@2@@Z
?release@ProxyPullSupplier_Helper@CosEventChannelAdmin@@SAXPAV_objref_ProxyPullSupplier@2@@Z
?release@ProxyPullSupplier_Helper@CosNotifyChannelAdmin@@SAXPAV_objref_ProxyPullSupplier@2@@Z
?release@ProxyPushConsumer_Helper@CosEventChannelAdmin@@SAXPAV_objref_ProxyPushConsumer@2@@Z
?release@ProxyPushConsumer_Helper@CosNotifyChannelAdmin@@SAXPAV_objref_ProxyPushConsumer@2@@Z
?release@ProxyPushSupplier_Helper@CosEventChannelAdmin@@SAXPAV_objref_ProxyPushSupplier@2@@Z
?release@ProxyPushSupplier_Helper@CosNotifyChannelAdmin@@SAXPAV_objref_ProxyPushSupplier@2@@Z
?release@ProxySupplier_Helper@CosNotifyChannelAdmin@@SAXPAV_objref_ProxySupplier@2@@Z
?release@PullConsumer_Helper@CosEventComm@@SAXPAV_objref_PullConsumer@2@@Z
?release@PullConsumer_Helper@CosNotifyComm@@SAXPAV_objref_PullConsumer@2@@Z
?release@PullSupplier_Helper@CosEventComm@@SAXPAV_objref_PullSupplier@2@@Z
?release@PullSupplier_Helper@CosNotifyComm@@SAXPAV_objref_PullSupplier@2@@Z
?release@PushConsumer_Helper@CosEventComm@@SAXPAV_objref_PushConsumer@2@@Z
?release@PushConsumer_Helper@CosNotifyComm@@SAXPAV_objref_PushConsumer@2@@Z
?release@PushSupplier_Helper@CosEventComm@@SAXPAV_objref_PushSupplier@2@@Z
?release@PushSupplier_Helper@CosNotifyComm@@SAXPAV_objref_PushSupplier@2@@Z
?release@QoSAdmin_Helper@CosNotification@@SAXPAV_objref_QoSAdmin@2@@Z
?release@SequenceProxyPullConsumer_Helper@CosNotifyChannelAdmin@@SAXPAV_objref_SequenceProxyPullConsumer@2@@Z
?release@SequenceProxyPullSupplier_Helper@CosNotifyChannelAdmin@@SAXPAV_objref_SequenceProxyPullSupplier@2@@Z
?release@SequenceProxyPushConsumer_Helper@CosNotifyChannelAdmin@@SAXPAV_objref_SequenceProxyPushConsumer@2@@Z
?release@SequenceProxyPushSupplier_Helper@CosNotifyChannelAdmin@@SAXPAV_objref_SequenceProxyPushSupplier@2@@Z
?release@SequencePullConsumer_Helper@CosNotifyComm@@SAXPAV_objref_SequencePullConsumer@2@@Z
?release@SequencePullSupplier_Helper@CosNotifyComm@@SAXPAV_objref_SequencePullSupplier@2@@Z
?release@SequencePushConsumer_Helper@CosNotifyComm@@SAXPAV_objref_SequencePushConsumer@2@@Z
?release@SequencePushSupplier_Helper@CosNotifyComm@@SAXPAV_objref_SequencePushSupplier@2@@Z
?release@StructuredProxyPullConsumer_Helper@CosNotifyChannelAdmin@@SAXPAV_objref_StructuredProxyPullConsumer@2@@Z
?release@StructuredProxyPullSupplier_Helper@CosNotifyChannelAdmin@@SAXPAV_objref_StructuredProxyPullSupplier@2@@Z
?release@StructuredProxyPushConsumer_Helper@CosNotifyChannelAdmin@@SAXPAV_objref_StructuredProxyPushConsumer@2@@Z
?release@StructuredProxyPushSupplier_Helper@CosNotifyChannelAdmin@@SAXPAV_objref_StructuredProxyPushSupplier@2@@Z
?release@StructuredPullConsumer_Helper@CosNotifyComm@@SAXPAV_objref_StructuredPullConsumer@2@@Z
?release@StructuredPullSupplier_Helper@CosNotifyComm@@SAXPAV_objref_StructuredPullSupplier@2@@Z
?release@StructuredPushConsumer_Helper@CosNotifyComm@@SAXPAV_objref_StructuredPushConsumer@2@@Z
?release@StructuredPushSupplier_Helper@CosNotifyComm@@SAXPAV_objref_StructuredPushSupplier@2@@Z
?release@SupplierAdmin_Helper@CosEventChannelAdmin@@SAXPAV_objref_SupplierAdmin@2@@Z
?release@SupplierAdmin_Helper@CosNotifyChannelAdmin@@SAXPAV_objref_SupplierAdmin@2@@Z
?release@TIO_Helper@CosTime@@SAXPAV_objref_TIO@2@@Z
?release@TimeService_Helper@CosTime@@SAXPAV_objref_TimeService@2@@Z
?release@UTO_Helper@CosTime@@SAXPAV_objref_UTO@2@@Z
?remove@_objref_LifeCycleObject@CosLifeCycle@@QAEXXZ
?remove_all_constraints@_objref_Filter@CosNotifyFilter@@QAEXXZ
?remove_all_filters@_objref_FilterAdmin@CosNotifyFilter@@QAEXXZ
?remove_all_mapping_constraints@_objref_MappingFilter@CosNotifyFilter@@QAEXXZ
?remove_filter@_objref_FilterAdmin@CosNotifyFilter@@QAEXJ@Z
?resume_connection@_objref_ProxyPullConsumer@CosNotifyChannelAdmin@@QAEXXZ
?resume_connection@_objref_ProxyPushSupplier@CosNotifyChannelAdmin@@QAEXXZ
?resume_connection@_objref_SequenceProxyPullConsumer@CosNotifyChannelAdmin@@QAEXXZ
?resume_connection@_objref_SequenceProxyPushSupplier@CosNotifyChannelAdmin@@QAEXXZ
?resume_connection@_objref_StructuredProxyPullConsumer@CosNotifyChannelAdmin@@QAEXXZ
?resume_connection@_objref_StructuredProxyPushSupplier@CosNotifyChannelAdmin@@QAEXXZ
?secure_universal_time@_objref_TimeService@CosTime@@QAEPAV_objref_UTO@2@XZ
?set_admin@_objref_AdminPropertiesAdmin@CosNotification@@QAEXABVPropertySeq@2@@Z
?set_qos@_objref_QoSAdmin@CosNotification@@QAEXABVPropertySeq@2@@Z
?spans@_objref_TIO@CosTime@@QAE?AW4OverlapType@2@PAV_objref_UTO@2@V?$_CORBA_ObjRef_OUT_arg@V_objref_TIO@CosTime@@VTIO_Helper@2@@@@Z
?strMatch@omni@@YA_NPBD0@Z
?subscription_change@_objref_NotifySubscribe@CosNotifyComm@@QAEXABVEventTypeSeq@CosNotification@@0@Z
?supports@_objref_GenericFactory@CosLifeCycle@@QAE_NABVName@CosNaming@@@Z
?suspend_connection@_objref_ProxyPullConsumer@CosNotifyChannelAdmin@@QAEXXZ
?suspend_connection@_objref_ProxyPushSupplier@CosNotifyChannelAdmin@@QAEXXZ
?suspend_connection@_objref_SequenceProxyPullConsumer@CosNotifyChannelAdmin@@QAEXXZ
?suspend_connection@_objref_SequenceProxyPushSupplier@CosNotifyChannelAdmin@@QAEXXZ
?suspend_connection@_objref_StructuredProxyPullConsumer@CosNotifyChannelAdmin@@QAEXXZ
?suspend_connection@_objref_StructuredProxyPushSupplier@CosNotifyChannelAdmin@@QAEXXZ
?tdf@_objref_UTO@CosTime@@QAEFXZ
?time@_objref_TIO@CosTime@@QAEPAV_objref_UTO@2@XZ
?time@_objref_UTO@CosTime@@QAE_KXZ
?time_interval@_objref_TIO@CosTime@@QAE?AUIntervalT@TimeBase@@XZ
?time_to_interval@_objref_UTO@CosTime@@QAEPAV_objref_TIO@2@PAV12@@Z
?try_pull@_objref_PullSupplier@CosEventComm@@QAEPAVAny@CORBA@@AA_N@Z
?try_pull_structured_event@_objref_StructuredPullSupplier@CosNotifyComm@@QAEPAUStructuredEvent@CosNotification@@AA_N@Z
?try_pull_structured_events@_objref_SequencePullSupplier@CosNotifyComm@@QAEPAVEventBatch@CosNotification@@JAA_N@Z
?universal_time@_objref_TimeService@CosTime@@QAEPAV_objref_UTO@2@XZ
?unlock@omni_mutex@@QAEXXZ
?unmarshalArguments@_0RL_cd_1fe8f330207afd15_02000000@@UAEXAAVcdrStream@@@Z
?unmarshalArguments@_0RL_cd_1fe8f330207afd15_03000000@@UAEXAAVcdrStream@@@Z
?unmarshalArguments@_0RL_cd_1fe8f330207afd15_11000000@@UAEXAAVcdrStream@@@Z
?unmarshalArguments@_0RL_cd_1fe8f330207afd15_20000000@@UAEXAAVcdrStream@@@Z
?unmarshalArguments@_0RL_cd_1fe8f330207afd15_22000000@@UAEXAAVcdrStream@@@Z
?unmarshalArguments@_0RL_cd_1fe8f330207afd15_23000000@@UAEXAAVcdrStream@@@Z
?unmarshalArguments@_0RL_cd_1fe8f330207afd15_31000000@@UAEXAAVcdrStream@@@Z
?unmarshalArguments@_0RL_cd_1fe8f330207afd15_40000000@@UAEXAAVcdrStream@@@Z
?unmarshalArguments@_0RL_cd_1fe8f330207afd15_43000000@@UAEXAAVcdrStream@@@Z
?unmarshalArguments@_0RL_cd_1fe8f330207afd15_51000000@@UAEXAAVcdrStream@@@Z
?unmarshalArguments@_0RL_cd_1fe8f330207afd15_60000000@@UAEXAAVcdrStream@@@Z
?unmarshalArguments@_0RL_cd_1fe8f330207afd15_63000000@@UAEXAAVcdrStream@@@Z
?unmarshalArguments@_0RL_cd_1fe8f330207afd15_82000000@@UAEXAAVcdrStream@@@Z
?unmarshalArguments@_0RL_cd_1fe8f330207afd15_a2000000@@UAEXAAVcdrStream@@@Z
?unmarshalArguments@_0RL_cd_1fe8f330207afd15_c2000000@@UAEXAAVcdrStream@@@Z
?unmarshalArguments@_0RL_cd_1fe8f330207afd15_d0000000@@UAEXAAVcdrStream@@@Z
?unmarshalArguments@_0RL_cd_1fe8f330207afd15_e1000000@@UAEXAAVcdrStream@@@Z
?unmarshalArguments@_0RL_cd_1fe8f330207afd15_e2000000@@UAEXAAVcdrStream@@@Z
?unmarshalArguments@_0RL_cd_1fe8f330207afd15_f0000000@@UAEXAAVcdrStream@@@Z
?unmarshalArguments@_0RL_cd_25b2b9dd5b4ad98d_00000000@@UAEXAAVcdrStream@@@Z
?unmarshalArguments@_0RL_cd_25b2b9dd5b4ad98d_20000000@@UAEXAAVcdrStream@@@Z
?unmarshalArguments@_0RL_cd_25b2b9dd5b4ad98d_40000000@@UAEXAAVcdrStream@@@Z
?unmarshalArguments@_0RL_cd_25b2b9dd5b4ad98d_80000000@@UAEXAAVcdrStream@@@Z
?unmarshalArguments@_0RL_cd_25b2b9dd5b4ad98d_a0000000@@UAEXAAVcdrStream@@@Z
?unmarshalArguments@_0RL_cd_4b6b86183777b6c2_00000000@@UAEXAAVcdrStream@@@Z
?unmarshalArguments@_0RL_cd_4b6b86183777b6c2_21000000@@UAEXAAVcdrStream@@@Z
?unmarshalArguments@_0RL_cd_4b6b86183777b6c2_30000000@@UAEXAAVcdrStream@@@Z
?unmarshalArguments@_0RL_cd_4b6b86183777b6c2_41000000@@UAEXAAVcdrStream@@@Z
?unmarshalArguments@_0RL_cd_4b6b86183777b6c2_e0000000@@UAEXAAVcdrStream@@@Z
?unmarshalArguments@_0RL_cd_8b6214f5b3100e7e_20000000@@UAEXAAVcdrStream@@@Z
?unmarshalArguments@_0RL_cd_8b6214f5b3100e7e_40000000@@UAEXAAVcdrStream@@@Z
?unmarshalArguments@_0RL_cd_8b6214f5b3100e7e_70000000@@UAEXAAVcdrStream@@@Z
?unmarshalArguments@_0RL_cd_9043e11a9721dab3_06000000@@UAEXAAVcdrStream@@@Z
?unmarshalArguments@_0RL_cd_9043e11a9721dab3_13000000@@UAEXAAVcdrStream@@@Z
?unmarshalArguments@_0RL_cd_9043e11a9721dab3_25000000@@UAEXAAVcdrStream@@@Z
?unmarshalArguments@_0RL_cd_9043e11a9721dab3_26000000@@UAEXAAVcdrStream@@@Z
?unmarshalArguments@_0RL_cd_9043e11a9721dab3_31000000@@UAEXAAVcdrStream@@@Z
?unmarshalArguments@_0RL_cd_9043e11a9721dab3_40000000@@UAEXAAVcdrStream@@@Z
?unmarshalArguments@_0RL_cd_9043e11a9721dab3_45000000@@UAEXAAVcdrStream@@@Z
?unmarshalArguments@_0RL_cd_9043e11a9721dab3_46000000@@UAEXAAVcdrStream@@@Z
?unmarshalArguments@_0RL_cd_9043e11a9721dab3_51000000@@UAEXAAVcdrStream@@@Z
?unmarshalArguments@_0RL_cd_9043e11a9721dab3_52000000@@UAEXAAVcdrStream@@@Z
?unmarshalArguments@_0RL_cd_9043e11a9721dab3_53000000@@UAEXAAVcdrStream@@@Z
?unmarshalArguments@_0RL_cd_9043e11a9721dab3_60000000@@UAEXAAVcdrStream@@@Z
?unmarshalArguments@_0RL_cd_9043e11a9721dab3_64000000@@UAEXAAVcdrStream@@@Z
?unmarshalArguments@_0RL_cd_9043e11a9721dab3_71000000@@UAEXAAVcdrStream@@@Z
?unmarshalArguments@_0RL_cd_9043e11a9721dab3_84000000@@UAEXAAVcdrStream@@@Z
?unmarshalArguments@_0RL_cd_9043e11a9721dab3_91000000@@UAEXAAVcdrStream@@@Z
?unmarshalArguments@_0RL_cd_9043e11a9721dab3_92000000@@UAEXAAVcdrStream@@@Z
?unmarshalArguments@_0RL_cd_9043e11a9721dab3_96000000@@UAEXAAVcdrStream@@@Z
?unmarshalArguments@_0RL_cd_9043e11a9721dab3_b1000000@@UAEXAAVcdrStream@@@Z
?unmarshalArguments@_0RL_cd_9043e11a9721dab3_d0000000@@UAEXAAVcdrStream@@@Z
?unmarshalArguments@_0RL_cd_9043e11a9721dab3_d1000000@@UAEXAAVcdrStream@@@Z
?unmarshalArguments@_0RL_cd_9043e11a9721dab3_d2000000@@UAEXAAVcdrStream@@@Z
?unmarshalArguments@_0RL_cd_9043e11a9721dab3_d6000000@@UAEXAAVcdrStream@@@Z
?unmarshalArguments@_0RL_cd_9043e11a9721dab3_e5000000@@UAEXAAVcdrStream@@@Z
?unmarshalArguments@_0RL_cd_9043e11a9721dab3_f1000000@@UAEXAAVcdrStream@@@Z
?unmarshalArguments@_0RL_cd_99dff546ea0f9974_11000000@@UAEXAAVcdrStream@@@Z
?unmarshalArguments@_0RL_cd_99dff546ea0f9974_31000000@@UAEXAAVcdrStream@@@Z
?unmarshalArguments@_0RL_cd_99dff546ea0f9974_90000000@@UAEXAAVcdrStream@@@Z
?unmarshalArguments@_0RL_cd_99dff546ea0f9974_91000000@@UAEXAAVcdrStream@@@Z
?unmarshalArguments@_0RL_cd_99dff546ea0f9974_b0000000@@UAEXAAVcdrStream@@@Z
?unmarshalArguments@_0RL_cd_99dff546ea0f9974_b1000000@@UAEXAAVcdrStream@@@Z
?unmarshalArguments@_0RL_cd_99dff546ea0f9974_d1000000@@UAEXAAVcdrStream@@@Z
?unmarshalArguments@_0RL_cd_bd959cc57b2e138f_00000000@@UAEXAAVcdrStream@@@Z
?unmarshalArguments@_0RL_cd_f894c8374a428e70_00000000@@UAEXAAVcdrStream@@@Z
?unmarshalArguments@_0RL_cd_f894c8374a428e70_20000000@@UAEXAAVcdrStream@@@Z
?unmarshalArguments@_0RL_cd_f894c8374a428e70_40000000@@UAEXAAVcdrStream@@@Z
?unmarshalArguments@_0RL_cd_f894c8374a428e70_60000000@@UAEXAAVcdrStream@@@Z
?unmarshalBoolean@cdrStream@@QAE_NXZ
?unmarshalLong@cdrStream@@QAEJXZ
?unmarshalObjRef@AdminPropertiesAdmin_Helper@CosNotification@@SAPAV_objref_AdminPropertiesAdmin@2@AAVcdrStream@@@Z
?unmarshalObjRef@ConsumerAdmin_Helper@CosEventChannelAdmin@@SAPAV_objref_ConsumerAdmin@2@AAVcdrStream@@@Z
?unmarshalObjRef@ConsumerAdmin_Helper@CosNotifyChannelAdmin@@SAPAV_objref_ConsumerAdmin@2@AAVcdrStream@@@Z
?unmarshalObjRef@EventChannelFactory_Helper@CosNotifyChannelAdmin@@SAPAV_objref_EventChannelFactory@2@AAVcdrStream@@@Z
?unmarshalObjRef@EventChannel_Helper@CosEventChannelAdmin@@SAPAV_objref_EventChannel@2@AAVcdrStream@@@Z
?unmarshalObjRef@EventChannel_Helper@CosNotifyChannelAdmin@@SAPAV_objref_EventChannel@2@AAVcdrStream@@@Z
?unmarshalObjRef@FactoryFinder_Helper@CosLifeCycle@@SAPAV_objref_FactoryFinder@2@AAVcdrStream@@@Z
?unmarshalObjRef@FilterAdmin_Helper@CosNotifyFilter@@SAPAV_objref_FilterAdmin@2@AAVcdrStream@@@Z
?unmarshalObjRef@FilterFactory_Helper@CosNotifyFilter@@SAPAV_objref_FilterFactory@2@AAVcdrStream@@@Z
?unmarshalObjRef@Filter_Helper@CosNotifyFilter@@SAPAV_objref_Filter@2@AAVcdrStream@@@Z
?unmarshalObjRef@GenericFactory_Helper@CosLifeCycle@@SAPAV_objref_GenericFactory@2@AAVcdrStream@@@Z
?unmarshalObjRef@LifeCycleObject_Helper@CosLifeCycle@@SAPAV_objref_LifeCycleObject@2@AAVcdrStream@@@Z
?unmarshalObjRef@MappingFilter_Helper@CosNotifyFilter@@SAPAV_objref_MappingFilter@2@AAVcdrStream@@@Z
?unmarshalObjRef@NotifyPublish_Helper@CosNotifyComm@@SAPAV_objref_NotifyPublish@2@AAVcdrStream@@@Z
?unmarshalObjRef@NotifySubscribe_Helper@CosNotifyComm@@SAPAV_objref_NotifySubscribe@2@AAVcdrStream@@@Z
?unmarshalObjRef@ProxyConsumer_Helper@CosNotifyChannelAdmin@@SAPAV_objref_ProxyConsumer@2@AAVcdrStream@@@Z
?unmarshalObjRef@ProxyPullConsumer_Helper@CosEventChannelAdmin@@SAPAV_objref_ProxyPullConsumer@2@AAVcdrStream@@@Z
?unmarshalObjRef@ProxyPullConsumer_Helper@CosNotifyChannelAdmin@@SAPAV_objref_ProxyPullConsumer@2@AAVcdrStream@@@Z
?unmarshalObjRef@ProxyPullSupplier_Helper@CosEventChannelAdmin@@SAPAV_objref_ProxyPullSupplier@2@AAVcdrStream@@@Z
?unmarshalObjRef@ProxyPullSupplier_Helper@CosNotifyChannelAdmin@@SAPAV_objref_ProxyPullSupplier@2@AAVcdrStream@@@Z
?unmarshalObjRef@ProxyPushConsumer_Helper@CosEventChannelAdmin@@SAPAV_objref_ProxyPushConsumer@2@AAVcdrStream@@@Z
?unmarshalObjRef@ProxyPushConsumer_Helper@CosNotifyChannelAdmin@@SAPAV_objref_ProxyPushConsumer@2@AAVcdrStream@@@Z
?unmarshalObjRef@ProxyPushSupplier_Helper@CosEventChannelAdmin@@SAPAV_objref_ProxyPushSupplier@2@AAVcdrStream@@@Z
?unmarshalObjRef@ProxyPushSupplier_Helper@CosNotifyChannelAdmin@@SAPAV_objref_ProxyPushSupplier@2@AAVcdrStream@@@Z
?unmarshalObjRef@ProxySupplier_Helper@CosNotifyChannelAdmin@@SAPAV_objref_ProxySupplier@2@AAVcdrStream@@@Z
?unmarshalObjRef@PullConsumer_Helper@CosEventComm@@SAPAV_objref_PullConsumer@2@AAVcdrStream@@@Z
?unmarshalObjRef@PullConsumer_Helper@CosNotifyComm@@SAPAV_objref_PullConsumer@2@AAVcdrStream@@@Z
?unmarshalObjRef@PullSupplier_Helper@CosEventComm@@SAPAV_objref_PullSupplier@2@AAVcdrStream@@@Z
?unmarshalObjRef@PullSupplier_Helper@CosNotifyComm@@SAPAV_objref_PullSupplier@2@AAVcdrStream@@@Z
?unmarshalObjRef@PushConsumer_Helper@CosEventComm@@SAPAV_objref_PushConsumer@2@AAVcdrStream@@@Z
?unmarshalObjRef@PushConsumer_Helper@CosNotifyComm@@SAPAV_objref_PushConsumer@2@AAVcdrStream@@@Z
?unmarshalObjRef@PushSupplier_Helper@CosEventComm@@SAPAV_objref_PushSupplier@2@AAVcdrStream@@@Z
?unmarshalObjRef@PushSupplier_Helper@CosNotifyComm@@SAPAV_objref_PushSupplier@2@AAVcdrStream@@@Z
?unmarshalObjRef@QoSAdmin_Helper@CosNotification@@SAPAV_objref_QoSAdmin@2@AAVcdrStream@@@Z
?unmarshalObjRef@SequenceProxyPullConsumer_Helper@CosNotifyChannelAdmin@@SAPAV_objref_SequenceProxyPullConsumer@2@AAVcdrStream@@@Z
?unmarshalObjRef@SequenceProxyPullSupplier_Helper@CosNotifyChannelAdmin@@SAPAV_objref_SequenceProxyPullSupplier@2@AAVcdrStream@@@Z
?unmarshalObjRef@SequenceProxyPushConsumer_Helper@CosNotifyChannelAdmin@@SAPAV_objref_SequenceProxyPushConsumer@2@AAVcdrStream@@@Z
?unmarshalObjRef@SequenceProxyPushSupplier_Helper@CosNotifyChannelAdmin@@SAPAV_objref_SequenceProxyPushSupplier@2@AAVcdrStream@@@Z
?unmarshalObjRef@SequencePullConsumer_Helper@CosNotifyComm@@SAPAV_objref_SequencePullConsumer@2@AAVcdrStream@@@Z
?unmarshalObjRef@SequencePullSupplier_Helper@CosNotifyComm@@SAPAV_objref_SequencePullSupplier@2@AAVcdrStream@@@Z
?unmarshalObjRef@SequencePushConsumer_Helper@CosNotifyComm@@SAPAV_objref_SequencePushConsumer@2@AAVcdrStream@@@Z
?unmarshalObjRef@SequencePushSupplier_Helper@CosNotifyComm@@SAPAV_objref_SequencePushSupplier@2@AAVcdrStream@@@Z
?unmarshalObjRef@StructuredProxyPullConsumer_Helper@CosNotifyChannelAdmin@@SAPAV_objref_StructuredProxyPullConsumer@2@AAVcdrStream@@@Z
?unmarshalObjRef@StructuredProxyPullSupplier_Helper@CosNotifyChannelAdmin@@SAPAV_objref_StructuredProxyPullSupplier@2@AAVcdrStream@@@Z
?unmarshalObjRef@StructuredProxyPushConsumer_Helper@CosNotifyChannelAdmin@@SAPAV_objref_StructuredProxyPushConsumer@2@AAVcdrStream@@@Z
?unmarshalObjRef@StructuredProxyPushSupplier_Helper@CosNotifyChannelAdmin@@SAPAV_objref_StructuredProxyPushSupplier@2@AAVcdrStream@@@Z
?unmarshalObjRef@StructuredPullConsumer_Helper@CosNotifyComm@@SAPAV_objref_StructuredPullConsumer@2@AAVcdrStream@@@Z
?unmarshalObjRef@StructuredPullSupplier_Helper@CosNotifyComm@@SAPAV_objref_StructuredPullSupplier@2@AAVcdrStream@@@Z
?unmarshalObjRef@StructuredPushConsumer_Helper@CosNotifyComm@@SAPAV_objref_StructuredPushConsumer@2@AAVcdrStream@@@Z
?unmarshalObjRef@StructuredPushSupplier_Helper@CosNotifyComm@@SAPAV_objref_StructuredPushSupplier@2@AAVcdrStream@@@Z
?unmarshalObjRef@SupplierAdmin_Helper@CosEventChannelAdmin@@SAPAV_objref_SupplierAdmin@2@AAVcdrStream@@@Z
?unmarshalObjRef@SupplierAdmin_Helper@CosNotifyChannelAdmin@@SAPAV_objref_SupplierAdmin@2@AAVcdrStream@@@Z
?unmarshalObjRef@TIO_Helper@CosTime@@SAPAV_objref_TIO@2@AAVcdrStream@@@Z
?unmarshalObjRef@TimeService_Helper@CosTime@@SAPAV_objref_TimeService@2@AAVcdrStream@@@Z
?unmarshalObjRef@UTO_Helper@CosTime@@SAPAV_objref_UTO@2@AAVcdrStream@@@Z
?unmarshalOctet@cdrStream@@QAEEXZ
?unmarshalReturnedValues@_0RL_cd_1fe8f330207afd15_00000000@@UAEXAAVcdrStream@@@Z
?unmarshalReturnedValues@_0RL_cd_1fe8f330207afd15_03000000@@UAEXAAVcdrStream@@@Z
?unmarshalReturnedValues@_0RL_cd_1fe8f330207afd15_11000000@@UAEXAAVcdrStream@@@Z
?unmarshalReturnedValues@_0RL_cd_1fe8f330207afd15_20000000@@UAEXAAVcdrStream@@@Z
?unmarshalReturnedValues@_0RL_cd_1fe8f330207afd15_22000000@@UAEXAAVcdrStream@@@Z
?unmarshalReturnedValues@_0RL_cd_1fe8f330207afd15_23000000@@UAEXAAVcdrStream@@@Z
?unmarshalReturnedValues@_0RL_cd_1fe8f330207afd15_31000000@@UAEXAAVcdrStream@@@Z
?unmarshalReturnedValues@_0RL_cd_1fe8f330207afd15_42000000@@UAEXAAVcdrStream@@@Z
?unmarshalReturnedValues@_0RL_cd_1fe8f330207afd15_60000000@@UAEXAAVcdrStream@@@Z
?unmarshalReturnedValues@_0RL_cd_1fe8f330207afd15_63000000@@UAEXAAVcdrStream@@@Z
?unmarshalReturnedValues@_0RL_cd_1fe8f330207afd15_71000000@@UAEXAAVcdrStream@@@Z
?unmarshalReturnedValues@_0RL_cd_1fe8f330207afd15_80000000@@UAEXAAVcdrStream@@@Z
?unmarshalReturnedValues@_0RL_cd_1fe8f330207afd15_82000000@@UAEXAAVcdrStream@@@Z
?unmarshalReturnedValues@_0RL_cd_1fe8f330207afd15_83000000@@UAEXAAVcdrStream@@@Z
?unmarshalReturnedValues@_0RL_cd_1fe8f330207afd15_a1000000@@UAEXAAVcdrStream@@@Z
?unmarshalReturnedValues@_0RL_cd_1fe8f330207afd15_a2000000@@UAEXAAVcdrStream@@@Z
?unmarshalReturnedValues@_0RL_cd_1fe8f330207afd15_c1000000@@UAEXAAVcdrStream@@@Z
?unmarshalReturnedValues@_0RL_cd_1fe8f330207afd15_c2000000@@UAEXAAVcdrStream@@@Z
?unmarshalReturnedValues@_0RL_cd_1fe8f330207afd15_d0000000@@UAEXAAVcdrStream@@@Z
?unmarshalReturnedValues@_0RL_cd_1fe8f330207afd15_e1000000@@UAEXAAVcdrStream@@@Z
?unmarshalReturnedValues@_0RL_cd_1fe8f330207afd15_e2000000@@UAEXAAVcdrStream@@@Z
?unmarshalReturnedValues@_0RL_cd_1fe8f330207afd15_f0000000@@UAEXAAVcdrStream@@@Z
?unmarshalReturnedValues@_0RL_cd_25b2b9dd5b4ad98d_00000000@@UAEXAAVcdrStream@@@Z
?unmarshalReturnedValues@_0RL_cd_25b2b9dd5b4ad98d_20000000@@UAEXAAVcdrStream@@@Z
?unmarshalReturnedValues@_0RL_cd_25b2b9dd5b4ad98d_80000000@@UAEXAAVcdrStream@@@Z
?unmarshalReturnedValues@_0RL_cd_25b2b9dd5b4ad98d_a0000000@@UAEXAAVcdrStream@@@Z
?unmarshalReturnedValues@_0RL_cd_4b6b86183777b6c2_21000000@@UAEXAAVcdrStream@@@Z
?unmarshalReturnedValues@_0RL_cd_4b6b86183777b6c2_41000000@@UAEXAAVcdrStream@@@Z
?unmarshalReturnedValues@_0RL_cd_4b6b86183777b6c2_80000000@@UAEXAAVcdrStream@@@Z
?unmarshalReturnedValues@_0RL_cd_4b6b86183777b6c2_a0000000@@UAEXAAVcdrStream@@@Z
?unmarshalReturnedValues@_0RL_cd_8b6214f5b3100e7e_00000000@@UAEXAAVcdrStream@@@Z
?unmarshalReturnedValues@_0RL_cd_8b6214f5b3100e7e_40000000@@UAEXAAVcdrStream@@@Z
?unmarshalReturnedValues@_0RL_cd_9043e11a9721dab3_00000000@@UAEXAAVcdrStream@@@Z
?unmarshalReturnedValues@_0RL_cd_9043e11a9721dab3_06000000@@UAEXAAVcdrStream@@@Z
?unmarshalReturnedValues@_0RL_cd_9043e11a9721dab3_20000000@@UAEXAAVcdrStream@@@Z
?unmarshalReturnedValues@_0RL_cd_9043e11a9721dab3_25000000@@UAEXAAVcdrStream@@@Z
?unmarshalReturnedValues@_0RL_cd_9043e11a9721dab3_26000000@@UAEXAAVcdrStream@@@Z
?unmarshalReturnedValues@_0RL_cd_9043e11a9721dab3_34000000@@UAEXAAVcdrStream@@@Z
?unmarshalReturnedValues@_0RL_cd_9043e11a9721dab3_40000000@@UAEXAAVcdrStream@@@Z
?unmarshalReturnedValues@_0RL_cd_9043e11a9721dab3_45000000@@UAEXAAVcdrStream@@@Z
?unmarshalReturnedValues@_0RL_cd_9043e11a9721dab3_46000000@@UAEXAAVcdrStream@@@Z
?unmarshalReturnedValues@_0RL_cd_9043e11a9721dab3_60000000@@UAEXAAVcdrStream@@@Z
?unmarshalReturnedValues@_0RL_cd_9043e11a9721dab3_64000000@@UAEXAAVcdrStream@@@Z
?unmarshalReturnedValues@_0RL_cd_9043e11a9721dab3_66000000@@UAEXAAVcdrStream@@@Z
?unmarshalReturnedValues@_0RL_cd_9043e11a9721dab3_84000000@@UAEXAAVcdrStream@@@Z
?unmarshalReturnedValues@_0RL_cd_9043e11a9721dab3_85000000@@UAEXAAVcdrStream@@@Z
?unmarshalReturnedValues@_0RL_cd_9043e11a9721dab3_90000000@@UAEXAAVcdrStream@@@Z
?unmarshalReturnedValues@_0RL_cd_9043e11a9721dab3_93000000@@UAEXAAVcdrStream@@@Z
?unmarshalReturnedValues@_0RL_cd_9043e11a9721dab3_96000000@@UAEXAAVcdrStream@@@Z
?unmarshalReturnedValues@_0RL_cd_9043e11a9721dab3_b0000000@@UAEXAAVcdrStream@@@Z
?unmarshalReturnedValues@_0RL_cd_9043e11a9721dab3_b3000000@@UAEXAAVcdrStream@@@Z
?unmarshalReturnedValues@_0RL_cd_9043e11a9721dab3_b6000000@@UAEXAAVcdrStream@@@Z
?unmarshalReturnedValues@_0RL_cd_9043e11a9721dab3_c5000000@@UAEXAAVcdrStream@@@Z
?unmarshalReturnedValues@_0RL_cd_9043e11a9721dab3_d3000000@@UAEXAAVcdrStream@@@Z
?unmarshalReturnedValues@_0RL_cd_9043e11a9721dab3_d6000000@@UAEXAAVcdrStream@@@Z
?unmarshalReturnedValues@_0RL_cd_9043e11a9721dab3_e5000000@@UAEXAAVcdrStream@@@Z
?unmarshalReturnedValues@_0RL_cd_99dff546ea0f9974_00000000@@UAEXAAVcdrStream@@@Z
?unmarshalReturnedValues@_0RL_cd_99dff546ea0f9974_11000000@@UAEXAAVcdrStream@@@Z
?unmarshalReturnedValues@_0RL_cd_99dff546ea0f9974_30000000@@UAEXAAVcdrStream@@@Z
?unmarshalReturnedValues@_0RL_cd_99dff546ea0f9974_31000000@@UAEXAAVcdrStream@@@Z
?unmarshalReturnedValues@_0RL_cd_99dff546ea0f9974_50000000@@UAEXAAVcdrStream@@@Z
?unmarshalReturnedValues@_0RL_cd_99dff546ea0f9974_61000000@@UAEXAAVcdrStream@@@Z
?unmarshalReturnedValues@_0RL_cd_99dff546ea0f9974_70000000@@UAEXAAVcdrStream@@@Z
?unmarshalReturnedValues@_0RL_cd_99dff546ea0f9974_90000000@@UAEXAAVcdrStream@@@Z
?unmarshalReturnedValues@_0RL_cd_99dff546ea0f9974_91000000@@UAEXAAVcdrStream@@@Z
?unmarshalReturnedValues@_0RL_cd_99dff546ea0f9974_b0000000@@UAEXAAVcdrStream@@@Z
?unmarshalReturnedValues@_0RL_cd_99dff546ea0f9974_b1000000@@UAEXAAVcdrStream@@@Z
?unmarshalReturnedValues@_0RL_cd_99dff546ea0f9974_d0000000@@UAEXAAVcdrStream@@@Z
?unmarshalReturnedValues@_0RL_cd_99dff546ea0f9974_d1000000@@UAEXAAVcdrStream@@@Z
?unmarshalReturnedValues@_0RL_cd_99dff546ea0f9974_f0000000@@UAEXAAVcdrStream@@@Z
?unmarshalReturnedValues@_0RL_cd_bd959cc57b2e138f_50000000@@UAEXAAVcdrStream@@@Z
?unmarshalReturnedValues@_0RL_cd_bd959cc57b2e138f_70000000@@UAEXAAVcdrStream@@@Z
?unmarshalReturnedValues@_0RL_cd_f894c8374a428e70_01000000@@UAEXAAVcdrStream@@@Z
?unmarshalReturnedValues@_0RL_cd_f894c8374a428e70_21000000@@UAEXAAVcdrStream@@@Z
?unmarshalReturnedValues@_0RL_cd_f894c8374a428e70_80000000@@UAEXAAVcdrStream@@@Z
?unmarshalReturnedValues@_0RL_cd_f894c8374a428e70_a0000000@@UAEXAAVcdrStream@@@Z
?unmarshalReturnedValues@_0RL_cd_f894c8374a428e70_c0000000@@UAEXAAVcdrStream@@@Z
?unmarshalReturnedValues@_0RL_cd_f894c8374a428e70_e0000000@@UAEXAAVcdrStream@@@Z
?unmarshalShort@cdrStream@@QAEFXZ
?unmarshalString@cdrStream@@QAEPADH@Z
?unmarshalULong@cdrStream@@QAEKXZ
?unmarshalULongLong@cdrStream@@QAE_KXZ
?unmarshalUShort@cdrStream@@QAEGXZ
?unmarshal_byte_swap@cdrStream@@QBE_NXZ
?userException@_0RL_cd_1fe8f330207afd15_02000000@@UAEXAAVcdrStream@@PAVIOP_C@omni@@PBD@Z
?userException@_0RL_cd_1fe8f330207afd15_03000000@@UAEXAAVcdrStream@@PAVIOP_C@omni@@PBD@Z
?userException@_0RL_cd_1fe8f330207afd15_11000000@@UAEXAAVcdrStream@@PAVIOP_C@omni@@PBD@Z
?userException@_0RL_cd_1fe8f330207afd15_20000000@@UAEXAAVcdrStream@@PAVIOP_C@omni@@PBD@Z
?userException@_0RL_cd_1fe8f330207afd15_22000000@@UAEXAAVcdrStream@@PAVIOP_C@omni@@PBD@Z
?userException@_0RL_cd_1fe8f330207afd15_40000000@@UAEXAAVcdrStream@@PAVIOP_C@omni@@PBD@Z
?userException@_0RL_cd_1fe8f330207afd15_43000000@@UAEXAAVcdrStream@@PAVIOP_C@omni@@PBD@Z
?userException@_0RL_cd_1fe8f330207afd15_51000000@@UAEXAAVcdrStream@@PAVIOP_C@omni@@PBD@Z
?userException@_0RL_cd_1fe8f330207afd15_60000000@@UAEXAAVcdrStream@@PAVIOP_C@omni@@PBD@Z
?userException@_0RL_cd_1fe8f330207afd15_63000000@@UAEXAAVcdrStream@@PAVIOP_C@omni@@PBD@Z
?userException@_0RL_cd_1fe8f330207afd15_82000000@@UAEXAAVcdrStream@@PAVIOP_C@omni@@PBD@Z
?userException@_0RL_cd_1fe8f330207afd15_a2000000@@UAEXAAVcdrStream@@PAVIOP_C@omni@@PBD@Z
?userException@_0RL_cd_1fe8f330207afd15_c2000000@@UAEXAAVcdrStream@@PAVIOP_C@omni@@PBD@Z
?userException@_0RL_cd_1fe8f330207afd15_d0000000@@UAEXAAVcdrStream@@PAVIOP_C@omni@@PBD@Z
?userException@_0RL_cd_1fe8f330207afd15_e1000000@@UAEXAAVcdrStream@@PAVIOP_C@omni@@PBD@Z
?userException@_0RL_cd_1fe8f330207afd15_e2000000@@UAEXAAVcdrStream@@PAVIOP_C@omni@@PBD@Z
?userException@_0RL_cd_1fe8f330207afd15_f0000000@@UAEXAAVcdrStream@@PAVIOP_C@omni@@PBD@Z
?userException@_0RL_cd_25b2b9dd5b4ad98d_00000000@@UAEXAAVcdrStream@@PAVIOP_C@omni@@PBD@Z
?userException@_0RL_cd_25b2b9dd5b4ad98d_20000000@@UAEXAAVcdrStream@@PAVIOP_C@omni@@PBD@Z
?userException@_0RL_cd_25b2b9dd5b4ad98d_40000000@@UAEXAAVcdrStream@@PAVIOP_C@omni@@PBD@Z
?userException@_0RL_cd_25b2b9dd5b4ad98d_60000000@@UAEXAAVcdrStream@@PAVIOP_C@omni@@PBD@Z
?userException@_0RL_cd_25b2b9dd5b4ad98d_a0000000@@UAEXAAVcdrStream@@PAVIOP_C@omni@@PBD@Z
?userException@_0RL_cd_4b6b86183777b6c2_00000000@@UAEXAAVcdrStream@@PAVIOP_C@omni@@PBD@Z
?userException@_0RL_cd_4b6b86183777b6c2_21000000@@UAEXAAVcdrStream@@PAVIOP_C@omni@@PBD@Z
?userException@_0RL_cd_4b6b86183777b6c2_30000000@@UAEXAAVcdrStream@@PAVIOP_C@omni@@PBD@Z
?userException@_0RL_cd_4b6b86183777b6c2_41000000@@UAEXAAVcdrStream@@PAVIOP_C@omni@@PBD@Z
?userException@_0RL_cd_4b6b86183777b6c2_80000000@@UAEXAAVcdrStream@@PAVIOP_C@omni@@PBD@Z
?userException@_0RL_cd_4b6b86183777b6c2_a0000000@@UAEXAAVcdrStream@@PAVIOP_C@omni@@PBD@Z
?userException@_0RL_cd_4b6b86183777b6c2_e0000000@@UAEXAAVcdrStream@@PAVIOP_C@omni@@PBD@Z
?userException@_0RL_cd_8b6214f5b3100e7e_20000000@@UAEXAAVcdrStream@@PAVIOP_C@omni@@PBD@Z
?userException@_0RL_cd_8b6214f5b3100e7e_40000000@@UAEXAAVcdrStream@@PAVIOP_C@omni@@PBD@Z
?userException@_0RL_cd_8b6214f5b3100e7e_70000000@@UAEXAAVcdrStream@@PAVIOP_C@omni@@PBD@Z
?userException@_0RL_cd_9043e11a9721dab3_12000000@@UAEXAAVcdrStream@@PAVIOP_C@omni@@PBD@Z
?userException@_0RL_cd_9043e11a9721dab3_13000000@@UAEXAAVcdrStream@@PAVIOP_C@omni@@PBD@Z
?userException@_0RL_cd_9043e11a9721dab3_25000000@@UAEXAAVcdrStream@@PAVIOP_C@omni@@PBD@Z
?userException@_0RL_cd_9043e11a9721dab3_26000000@@UAEXAAVcdrStream@@PAVIOP_C@omni@@PBD@Z
?userException@_0RL_cd_9043e11a9721dab3_31000000@@UAEXAAVcdrStream@@PAVIOP_C@omni@@PBD@Z
?userException@_0RL_cd_9043e11a9721dab3_32000000@@UAEXAAVcdrStream@@PAVIOP_C@omni@@PBD@Z
?userException@_0RL_cd_9043e11a9721dab3_45000000@@UAEXAAVcdrStream@@PAVIOP_C@omni@@PBD@Z
?userException@_0RL_cd_9043e11a9721dab3_46000000@@UAEXAAVcdrStream@@PAVIOP_C@omni@@PBD@Z
?userException@_0RL_cd_9043e11a9721dab3_51000000@@UAEXAAVcdrStream@@PAVIOP_C@omni@@PBD@Z
?userException@_0RL_cd_9043e11a9721dab3_52000000@@UAEXAAVcdrStream@@PAVIOP_C@omni@@PBD@Z
?userException@_0RL_cd_9043e11a9721dab3_53000000@@UAEXAAVcdrStream@@PAVIOP_C@omni@@PBD@Z
?userException@_0RL_cd_9043e11a9721dab3_60000000@@UAEXAAVcdrStream@@PAVIOP_C@omni@@PBD@Z
?userException@_0RL_cd_9043e11a9721dab3_64000000@@UAEXAAVcdrStream@@PAVIOP_C@omni@@PBD@Z
?userException@_0RL_cd_9043e11a9721dab3_71000000@@UAEXAAVcdrStream@@PAVIOP_C@omni@@PBD@Z
?userException@_0RL_cd_9043e11a9721dab3_84000000@@UAEXAAVcdrStream@@PAVIOP_C@omni@@PBD@Z
?userException@_0RL_cd_9043e11a9721dab3_91000000@@UAEXAAVcdrStream@@PAVIOP_C@omni@@PBD@Z
?userException@_0RL_cd_9043e11a9721dab3_92000000@@UAEXAAVcdrStream@@PAVIOP_C@omni@@PBD@Z
?userException@_0RL_cd_9043e11a9721dab3_96000000@@UAEXAAVcdrStream@@PAVIOP_C@omni@@PBD@Z
?userException@_0RL_cd_9043e11a9721dab3_b1000000@@UAEXAAVcdrStream@@PAVIOP_C@omni@@PBD@Z
?userException@_0RL_cd_9043e11a9721dab3_d1000000@@UAEXAAVcdrStream@@PAVIOP_C@omni@@PBD@Z
?userException@_0RL_cd_9043e11a9721dab3_d2000000@@UAEXAAVcdrStream@@PAVIOP_C@omni@@PBD@Z
?userException@_0RL_cd_9043e11a9721dab3_d6000000@@UAEXAAVcdrStream@@PAVIOP_C@omni@@PBD@Z
?userException@_0RL_cd_9043e11a9721dab3_f1000000@@UAEXAAVcdrStream@@PAVIOP_C@omni@@PBD@Z
?userException@_0RL_cd_99dff546ea0f9974_61000000@@UAEXAAVcdrStream@@PAVIOP_C@omni@@PBD@Z
?userException@_0RL_cd_bd959cc57b2e138f_00000000@@UAEXAAVcdrStream@@PAVIOP_C@omni@@PBD@Z
?userException@_0RL_cd_bd959cc57b2e138f_50000000@@UAEXAAVcdrStream@@PAVIOP_C@omni@@PBD@Z
?userException@_0RL_cd_bd959cc57b2e138f_70000000@@UAEXAAVcdrStream@@PAVIOP_C@omni@@PBD@Z
?userException@_0RL_cd_f894c8374a428e70_00000000@@UAEXAAVcdrStream@@PAVIOP_C@omni@@PBD@Z
?userException@_0RL_cd_f894c8374a428e70_20000000@@UAEXAAVcdrStream@@PAVIOP_C@omni@@PBD@Z
?userException@_0RL_cd_f894c8374a428e70_40000000@@UAEXAAVcdrStream@@PAVIOP_C@omni@@PBD@Z
?userException@_0RL_cd_f894c8374a428e70_60000000@@UAEXAAVcdrStream@@PAVIOP_C@omni@@PBD@Z
?utc_time@_objref_UTO@CosTime@@QAE?AUUtcT@TimeBase@@XZ
?uto_from_utc@_objref_TimeService@CosTime@@QAEPAV_objref_UTO@2@ABUUtcT@TimeBase@@@Z
?validate_event_qos@_objref_ProxyConsumer@CosNotifyChannelAdmin@@QAEXABVPropertySeq@CosNotification@@VNamedPropertyRangeSeq_out@4@@Z
?validate_event_qos@_objref_ProxySupplier@CosNotifyChannelAdmin@@QAEXABVPropertySeq@CosNotification@@VNamedPropertyRangeSeq_out@4@@Z
?validate_qos@_objref_QoSAdmin@CosNotification@@QAEXABVPropertySeq@2@VNamedPropertyRangeSeq_out@2@@Z
?value_type@_objref_MappingFilter@CosNotifyFilter@@QAEPAVTypeCode@CORBA@@XZ
