LIBRARY shareddebug/omniCodeSets421_vc14_rtd
VERSION 2.1
EXPORTS
??0BAD_INV_ORDER@CORBA@@QAE@ABV01@@Z
??0BAD_INV_ORDER@CORBA@@QAE@KW4CompletionStatus@1@@Z
??0BufferC@omniCodeSetUtil@omni@@QAE@K@Z
??0BufferU@omniCodeSetUtil@omni@@QAE@K@Z
??0CS_037_init@omni@@QAE@XZ
??0CS_500_init@omni@@QAE@XZ
??0CS_8859_10_init@omni@@QAE@XZ
??0CS_8859_11_init@omni@@QAE@XZ
??0CS_8859_13_init@omni@@QAE@XZ
??0CS_8859_14_init@omni@@QAE@XZ
??0CS_8859_15_init@omni@@QAE@XZ
??0CS_8859_16_init@omni@@QAE@XZ
??0CS_8859_2_init@omni@@QAE@XZ
??0CS_8859_3_init@omni@@QAE@XZ
??0CS_8859_4_init@omni@@QAE@XZ
??0CS_8859_5_init@omni@@QAE@XZ
??0CS_8859_6_init@omni@@QAE@XZ
??0CS_8859_7_init@omni@@QAE@XZ
??0CS_8859_8_init@omni@@QAE@XZ
??0CS_8859_9_init@omni@@QAE@XZ
??0CS_CP1250_init@omni@@QAE@XZ
??0CS_CP1251_init@omni@@QAE@XZ
??0CS_CP1252_init@omni@@QAE@XZ
??0CS_CP1253_init@omni@@QAE@XZ
??0CS_CP1254_init@omni@@QAE@XZ
??0CS_CP1255_init@omni@@QAE@XZ
??0CS_CP1256_init@omni@@QAE@XZ
??0CS_CP1257_init@omni@@QAE@XZ
??0CS_CP1258_init@omni@@QAE@XZ
??0CS_EDF_4_init@omni@@QAE@XZ
??0CS_GBK_init@omni@@QAE@XZ
??0DATA_CONVERSION@CORBA@@QAE@ABV01@@Z
??0DATA_CONVERSION@CORBA@@QAE@KW4CompletionStatus@1@@Z
??0Exception@CORBA@@IAE@XZ
??0Exception@CORBA@@QAE@ABV01@@Z
??0HolderC@omniCodeSetUtil@omni@@QAE@PAD@Z
??0MARSHAL@CORBA@@QAE@ABV01@@Z
??0MARSHAL@CORBA@@QAE@KW4CompletionStatus@1@@Z
??0NCS_C_8bit@omniCodeSet@omni@@QAE@KPBDPB_WPAPBE@Z
??0NCS_C_GBK@omni@@QAE@XZ
??0NO_MEMORY@CORBA@@QAE@ABV01@@Z
??0NO_MEMORY@CORBA@@QAE@KW4CompletionStatus@1@@Z
??0SystemException@CORBA@@QAE@ABV01@@Z
??0SystemException@CORBA@@QAE@KW4CompletionStatus@1@@Z
??0TCS_C_8bit@omniCodeSet@omni@@QAE@KPBDUVersion@GIOP@@PB_WPAPBE@Z
??0TCS_C_GBK@omni@@QAE@UVersion@GIOP@@@Z
??1?$_CORBA_ObjRef_Member@V_objref_IDLType@CORBA@@VIDLType_Helper@2@@@QAE@XZ
??1?$_CORBA_PseudoObj_Member@VDynAny@DynamicAny@@V?$_CORBA_PseudoObj_Var@VDynAny@DynamicAny@@@@@@QAE@XZ
??1?$_CORBA_PseudoObj_Member@VPolicy@CORBA@@V?$_CORBA_PseudoObj_Var@VPolicy@CORBA@@@@@@QAE@XZ
??1?$_CORBA_Sequence@E@@QAE@XZ
??1?$_CORBA_Sequence@UNameComponent@CosNaming@@@@QAE@XZ
??1?$_CORBA_Unbounded_Sequence@UNameComponent@CosNaming@@@@QAE@XZ
??1Base@omniCodeSet@omni@@MAE@XZ
??1Binding@CosNaming@@QAE@XZ
??1BufferC@omniCodeSetUtil@omni@@QAE@XZ
??1BufferU@omniCodeSetUtil@omni@@QAE@XZ
??1HolderC@omniCodeSetUtil@omni@@QAE@XZ
??1NCS_C@omniCodeSet@omni@@UAE@XZ
??1NCS_C_8bit@omniCodeSet@omni@@UAE@XZ
??1NCS_C_GBK@omni@@UAE@XZ
??1Name@CosNaming@@QAE@XZ
??1NameComponent@CosNaming@@QAE@XZ
??1NameDynAnyPair@DynamicAny@@QAE@XZ
??1NameValuePair@DynamicAny@@QAE@XZ
??1ServiceContext@IOP@@QAE@XZ
??1StructMember@CORBA@@QAE@XZ
??1TCS_C@omniCodeSet@omni@@UAE@XZ
??1TCS_C_8bit@omniCodeSet@omni@@UAE@XZ
??1TCS_C_GBK@omni@@UAE@XZ
??1TaggedComponent@IOP@@QAE@XZ
??1TaggedProfile@IOP@@QAE@XZ
??1UnionMember@CORBA@@QAE@XZ
??1ValueMember@CORBA@@QAE@XZ
??1_CORBA_Sequence_Octet@@IAE@XZ
??1_CORBA_String_member@@QAE@XZ
??1_CORBA_Unbounded_Sequence_Octet@@QAE@XZ
??_2@YAXKAAVcdrStream@@@Z
??_3@YAXAAKAAVcdrStream@@@Z
?_NP_is_nil@Object@CORBA@@QBE_NXZ
?_NP_is_pseudo@Object@CORBA@@QBE_NXZ
?_PR_getobj@Object@CORBA@@QAEPAVomniObjRef@@XZ
?_omni_CS_037_should_be_linked_but_is_not_@@3HA
?_omni_CS_500_should_be_linked_but_is_not_@@3HA
?_omni_CS_8859_10_should_be_linked_but_is_not_@@3HA
?_omni_CS_8859_11_should_be_linked_but_is_not_@@3HA
?_omni_CS_8859_13_should_be_linked_but_is_not_@@3HA
?_omni_CS_8859_14_should_be_linked_but_is_not_@@3HA
?_omni_CS_8859_15_should_be_linked_but_is_not_@@3HA
?_omni_CS_8859_16_should_be_linked_but_is_not_@@3HA
?_omni_CS_8859_2_should_be_linked_but_is_not_@@3HA
?_omni_CS_8859_3_should_be_linked_but_is_not_@@3HA
?_omni_CS_8859_4_should_be_linked_but_is_not_@@3HA
?_omni_CS_8859_5_should_be_linked_but_is_not_@@3HA
?_omni_CS_8859_6_should_be_linked_but_is_not_@@3HA
?_omni_CS_8859_7_should_be_linked_but_is_not_@@3HA
?_omni_CS_8859_8_should_be_linked_but_is_not_@@3HA
?_omni_CS_8859_9_should_be_linked_but_is_not_@@3HA
?_omni_CS_CP1250_should_be_linked_but_is_not_@@3HA
?_omni_CS_CP1251_should_be_linked_but_is_not_@@3HA
?_omni_CS_CP1252_should_be_linked_but_is_not_@@3HA
?_omni_CS_CP1253_should_be_linked_but_is_not_@@3HA
?_omni_CS_CP1254_should_be_linked_but_is_not_@@3HA
?_omni_CS_CP1255_should_be_linked_but_is_not_@@3HA
?_omni_CS_CP1256_should_be_linked_but_is_not_@@3HA
?_omni_CS_CP1257_should_be_linked_but_is_not_@@3HA
?_omni_CS_CP1258_should_be_linked_but_is_not_@@3HA
?_omni_CS_EDF_4_should_be_linked_but_is_not_@@3HA
?_omni_CS_GBK_should_be_linked_but_is_not_@@3HA
?_omni_CS_UCS_4_should_be_linked_but_is_not_@@3HA
?_omni_omniCodeSets_should_be_linked_but_is_not_@@3HA
?align_to@omni@@YAKKW4alignment_t@1@@Z
?alloc@_CORBA_String_helper@@SAPADH@Z
?alloc@_CORBA_WString_helper@@SAPA_WH@Z
?allocC@omniCodeSetUtil@omni@@SAPADK@Z
?allocU@omniCodeSetUtil@omni@@SAPA_WK@Z
?buffer@BufferC@omniCodeSetUtil@omni@@QAEPADXZ
?buffer@BufferU@omniCodeSetUtil@omni@@QAEPA_WXZ
?byteSwap@cdrStream@@SAKK@Z
?dealloc@_CORBA_String_helper@@SAXPAD@Z
?dealloc@_CORBA_WString_helper@@SAXPA_W@Z
?drop@HolderC@omniCodeSetUtil@omni@@QAEXXZ
?extract@BufferC@omniCodeSetUtil@omni@@QAEPADXZ
?extract@BufferU@omniCodeSetUtil@omni@@QAEPA_WXZ
?fastMarshalChar@TCS_C_GBK@omni@@UAE_NAAVcdrStream@@PAVNCS_C@omniCodeSet@2@E@Z
?fastMarshalString@TCS_C_GBK@omni@@UAE_NAAVcdrStream@@PAVNCS_C@omniCodeSet@2@KKPBD@Z
?fastUnmarshalChar@TCS_C_GBK@omni@@UAE_NAAVcdrStream@@PAVNCS_C@omniCodeSet@2@AAE@Z
?fastUnmarshalString@TCS_C_GBK@omni@@UAE_NAAVcdrStream@@PAVNCS_C@omniCodeSet@2@KAAKAAPAD@Z
?freeC@omniCodeSetUtil@omni@@SAXPAD@Z
?freeU@omniCodeSetUtil@omni@@SAXPA_W@Z
?freebuf@?$_CORBA_Sequence@E@@SAXPAE@Z
?freebuf@?$_CORBA_Sequence@UNameComponent@CosNaming@@@@SAXPAUNameComponent@CosNaming@@@Z
?fromU@NCS_C_8bit@omniCodeSet@omni@@QBEPAPBEXZ
?id@Base@omniCodeSet@omni@@QBEKXZ
?inMkr@cdrStream@@IAEKW4alignment_t@omni@@@Z
?inMkr@cdrStream@@IAEKXZ
?insert@BufferC@omniCodeSetUtil@omni@@QAEXE@Z
?insert@BufferU@omniCodeSetUtil@omni@@QAEX_W@Z
?kind@Base@omniCodeSet@omni@@QBE?AW4Kind@23@XZ
?length@BufferC@omniCodeSetUtil@omni@@QAEKXZ
?length@BufferU@omniCodeSetUtil@omni@@QAEKXZ
?logs@omniORB@@YAXKPBD@Z
?marshalChar@NCS_C_GBK@omni@@UAEXAAVcdrStream@@PAVTCS_C@omniCodeSet@2@E@Z
?marshalChar@TCS_C_GBK@omni@@UAEXAAVcdrStream@@_W@Z
?marshalOctet@cdrStream@@QAEXE@Z
?marshalString@NCS_C_GBK@omni@@UAEXAAVcdrStream@@PAVTCS_C@omniCodeSet@2@KKPBD@Z
?marshalString@TCS_C_GBK@omni@@UAEXAAVcdrStream@@KKPB_W@Z
?marshalULong@cdrStream@@QAEXK@Z
?outMkr@cdrStream@@IAEKW4alignment_t@omni@@@Z
?outMkr@cdrStream@@IAEKXZ
?reallocC@omniCodeSetUtil@omni@@SAPADPADKK@Z
?reallocU@omniCodeSetUtil@omni@@SAPA_WPA_WKK@Z
?release@CORBA@@YAXPAVObject@1@@Z
?toU@NCS_C_8bit@omniCodeSet@omni@@QBEPB_WXZ
?unmarshalChar@NCS_C_GBK@omni@@UAEEAAVcdrStream@@PAVTCS_C@omniCodeSet@2@@Z
?unmarshalChar@TCS_C_GBK@omni@@UAE_WAAVcdrStream@@@Z
?unmarshalOctet@cdrStream@@QAEEXZ
?unmarshalString@NCS_C_GBK@omni@@UAEKAAVcdrStream@@PAVTCS_C@omniCodeSet@2@KAAPAD@Z
?unmarshalString@TCS_C_GBK@omni@@UAEKAAVcdrStream@@KAAPA_W@Z
?unmarshalULong@cdrStream@@QAEKXZ
