LIBRARY shareddebug/omniDynamic421_vc14_rtd
VERSION 2.1
EXPORTS
??$omnicopy@PAPAVDynAnyImplBase@omni@@PAPAV12@@@YAPAPAVDynAnyImplBase@omni@@PAPAV01@00@Z
??0?$_CORBA_ConstrType_Variable_Var@UDescription@Contained@CORBA@@@@QAE@XZ
??0?$_CORBA_ConstrType_Variable_Var@UFullInterfaceDescription@InterfaceDef@CORBA@@@@QAE@XZ
??0?$_CORBA_ConstrType_Variable_Var@UFullValueDescription@ValueDef@CORBA@@@@QAE@XZ
??0?$_CORBA_ObjRef_Element@VDynAny@DynamicAny@@VDynAny_Helper@2@@@QAE@AAPAVDynAny@DynamicAny@@_N@Z
??0?$_CORBA_ObjRef_Member@V_objref_Contained@CORBA@@VContained_Helper@2@@@QAE@ABV0@@Z
??0?$_CORBA_ObjRef_Member@V_objref_Contained@CORBA@@VContained_Helper@2@@@QAE@XZ
??0?$_CORBA_ObjRef_Member@V_objref_IDLType@CORBA@@VIDLType_Helper@2@@@QAE@ABV0@@Z
??0?$_CORBA_ObjRef_Member@V_objref_IDLType@CORBA@@VIDLType_Helper@2@@@QAE@XZ
??0?$_CORBA_ObjRef_Member@V_objref_NamingContext@CosNaming@@VNamingContext_Helper@2@@@QAE@XZ
??0?$_CORBA_ObjRef_Var@V_objref_AbstractInterfaceDef@CORBA@@VAbstractInterfaceDef_Helper@2@@@QAE@XZ
??0?$_CORBA_ObjRef_Var@V_objref_AliasDef@CORBA@@VAliasDef_Helper@2@@@QAE@XZ
??0?$_CORBA_ObjRef_Var@V_objref_ArrayDef@CORBA@@VArrayDef_Helper@2@@@QAE@XZ
??0?$_CORBA_ObjRef_Var@V_objref_AttributeDef@CORBA@@VAttributeDef_Helper@2@@@QAE@XZ
??0?$_CORBA_ObjRef_Var@V_objref_ConstantDef@CORBA@@VConstantDef_Helper@2@@@QAE@XZ
??0?$_CORBA_ObjRef_Var@V_objref_Contained@CORBA@@VContained_Helper@2@@@QAE@XZ
??0?$_CORBA_ObjRef_Var@V_objref_Container@CORBA@@VContainer_Helper@2@@@QAE@XZ
??0?$_CORBA_ObjRef_Var@V_objref_EnumDef@CORBA@@VEnumDef_Helper@2@@@QAE@XZ
??0?$_CORBA_ObjRef_Var@V_objref_ExceptionDef@CORBA@@VExceptionDef_Helper@2@@@QAE@XZ
??0?$_CORBA_ObjRef_Var@V_objref_FixedDef@CORBA@@VFixedDef_Helper@2@@@QAE@XZ
??0?$_CORBA_ObjRef_Var@V_objref_IDLType@CORBA@@VIDLType_Helper@2@@@QAE@XZ
??0?$_CORBA_ObjRef_Var@V_objref_InterfaceDef@CORBA@@VInterfaceDef_Helper@2@@@QAE@XZ
??0?$_CORBA_ObjRef_Var@V_objref_ModuleDef@CORBA@@VModuleDef_Helper@2@@@QAE@XZ
??0?$_CORBA_ObjRef_Var@V_objref_NativeDef@CORBA@@VNativeDef_Helper@2@@@QAE@XZ
??0?$_CORBA_ObjRef_Var@V_objref_OperationDef@CORBA@@VOperationDef_Helper@2@@@QAE@XZ
??0?$_CORBA_ObjRef_Var@V_objref_PrimitiveDef@CORBA@@VPrimitiveDef_Helper@2@@@QAE@XZ
??0?$_CORBA_ObjRef_Var@V_objref_Repository@CORBA@@VRepository_Helper@2@@@QAE@XZ
??0?$_CORBA_ObjRef_Var@V_objref_SequenceDef@CORBA@@VSequenceDef_Helper@2@@@QAE@XZ
??0?$_CORBA_ObjRef_Var@V_objref_StringDef@CORBA@@VStringDef_Helper@2@@@QAE@XZ
??0?$_CORBA_ObjRef_Var@V_objref_StructDef@CORBA@@VStructDef_Helper@2@@@QAE@XZ
??0?$_CORBA_ObjRef_Var@V_objref_UnionDef@CORBA@@VUnionDef_Helper@2@@@QAE@XZ
??0?$_CORBA_ObjRef_Var@V_objref_ValueBoxDef@CORBA@@VValueBoxDef_Helper@2@@@QAE@XZ
??0?$_CORBA_ObjRef_Var@V_objref_ValueDef@CORBA@@VValueDef_Helper@2@@@QAE@XZ
??0?$_CORBA_ObjRef_Var@V_objref_ValueMemberDef@CORBA@@VValueMemberDef_Helper@2@@@QAE@XZ
??0?$_CORBA_ObjRef_Var@V_objref_WstringDef@CORBA@@VWstringDef_Helper@2@@@QAE@XZ
??0?$_CORBA_PseudoObj_Member@VDynAny@DynamicAny@@V?$_CORBA_PseudoObj_Var@VDynAny@DynamicAny@@@@@@QAE@XZ
??0?$_CORBA_PseudoObj_Var@VContext@CORBA@@@@QAE@PAVContext@CORBA@@@Z
??0?$_CORBA_PseudoObj_Var@VContext@CORBA@@@@QAE@XZ
??0?$_CORBA_PseudoObj_Var@VContextList@CORBA@@@@QAE@PAVContextList@CORBA@@@Z
??0?$_CORBA_PseudoObj_Var@VDynAny@DynamicAny@@@@QAE@PAVDynAny@DynamicAny@@@Z
??0?$_CORBA_PseudoObj_Var@VEnvironment@CORBA@@@@QAE@PAVEnvironment@CORBA@@@Z
??0?$_CORBA_PseudoObj_Var@VExceptionList@CORBA@@@@QAE@PAVExceptionList@CORBA@@@Z
??0?$_CORBA_PseudoObj_Var@VNVList@CORBA@@@@QAE@XZ
??0?$_CORBA_PseudoObj_Var@VNamedValue@CORBA@@@@QAE@XZ
??0?$_CORBA_PseudoValue_Sequence@PAD@@QAE@XZ
??0?$_CORBA_PseudoValue_Sequence@PAVNamedValue@CORBA@@@@QAE@XZ
??0?$_CORBA_PseudoValue_Sequence@PAVTypeCode@CORBA@@@@QAE@XZ
??0?$_CORBA_PseudoValue_Sequence@UEntry@ContextImpl@omni@@@@QAE@XZ
??0?$_CORBA_PseudoValue_Sequence@UTcUnionMember@TypeCode_union@omni@@@@QAE@XZ
??0?$_CORBA_Sequence@E@@IAE@ABV0@@Z
??0?$_CORBA_Sequence@E@@IAE@K_N@Z
??0?$_CORBA_Sequence@E@@IAE@XZ
??0?$_CORBA_Sequence@F@@IAE@ABV0@@Z
??0?$_CORBA_Sequence@F@@IAE@K_N@Z
??0?$_CORBA_Sequence@F@@IAE@XZ
??0?$_CORBA_Sequence@G@@IAE@ABV0@@Z
??0?$_CORBA_Sequence@G@@IAE@K_N@Z
??0?$_CORBA_Sequence@G@@IAE@XZ
??0?$_CORBA_Sequence@J@@IAE@ABV0@@Z
??0?$_CORBA_Sequence@J@@IAE@K_N@Z
??0?$_CORBA_Sequence@J@@IAE@XZ
??0?$_CORBA_Sequence@K@@IAE@ABV0@@Z
??0?$_CORBA_Sequence@K@@IAE@K_N@Z
??0?$_CORBA_Sequence@K@@IAE@XZ
??0?$_CORBA_Sequence@M@@IAE@ABV0@@Z
??0?$_CORBA_Sequence@M@@IAE@K_N@Z
??0?$_CORBA_Sequence@M@@IAE@XZ
??0?$_CORBA_Sequence@N@@IAE@ABV0@@Z
??0?$_CORBA_Sequence@N@@IAE@K_N@Z
??0?$_CORBA_Sequence@N@@IAE@XZ
??0?$_CORBA_Sequence@UAttributeDescription@CORBA@@@@IAE@ABV0@@Z
??0?$_CORBA_Sequence@UAttributeDescription@CORBA@@@@IAE@XZ
??0?$_CORBA_Sequence@UBinding@CosNaming@@@@IAE@ABV0@@Z
??0?$_CORBA_Sequence@UBinding@CosNaming@@@@IAE@XZ
??0?$_CORBA_Sequence@UDescription@Container@CORBA@@@@IAE@ABV0@@Z
??0?$_CORBA_Sequence@UDescription@Container@CORBA@@@@IAE@XZ
??0?$_CORBA_Sequence@UExceptionDescription@CORBA@@@@IAE@ABV0@@Z
??0?$_CORBA_Sequence@UExceptionDescription@CORBA@@@@IAE@XZ
??0?$_CORBA_Sequence@UInitializer@CORBA@@@@IAE@ABV0@@Z
??0?$_CORBA_Sequence@UInitializer@CORBA@@@@IAE@XZ
??0?$_CORBA_Sequence@UNameComponent@CosNaming@@@@IAE@ABV0@@Z
??0?$_CORBA_Sequence@UNameComponent@CosNaming@@@@IAE@XZ
??0?$_CORBA_Sequence@UNameDynAnyPair@DynamicAny@@@@IAE@XZ
??0?$_CORBA_Sequence@UNameValuePair@DynamicAny@@@@IAE@XZ
??0?$_CORBA_Sequence@UOperationDescription@CORBA@@@@IAE@ABV0@@Z
??0?$_CORBA_Sequence@UOperationDescription@CORBA@@@@IAE@XZ
??0?$_CORBA_Sequence@UParameterDescription@CORBA@@@@IAE@ABV0@@Z
??0?$_CORBA_Sequence@UParameterDescription@CORBA@@@@IAE@XZ
??0?$_CORBA_Sequence@UStructMember@CORBA@@@@IAE@ABV0@@Z
??0?$_CORBA_Sequence@UStructMember@CORBA@@@@IAE@XZ
??0?$_CORBA_Sequence@UUnionMember@CORBA@@@@IAE@ABV0@@Z
??0?$_CORBA_Sequence@UUnionMember@CORBA@@@@IAE@XZ
??0?$_CORBA_Sequence@UValueMember@CORBA@@@@IAE@ABV0@@Z
??0?$_CORBA_Sequence@UValueMember@CORBA@@@@IAE@XZ
??0?$_CORBA_Sequence@VAny@CORBA@@@@IAE@ABV0@@Z
??0?$_CORBA_Sequence@VAny@CORBA@@@@IAE@XZ
??0?$_CORBA_Sequence@VTypeCode_member@CORBA@@@@IAE@XZ
??0?$_CORBA_Sequence@_J@@IAE@ABV0@@Z
??0?$_CORBA_Sequence@_J@@IAE@K_N@Z
??0?$_CORBA_Sequence@_J@@IAE@XZ
??0?$_CORBA_Sequence@_K@@IAE@ABV0@@Z
??0?$_CORBA_Sequence@_K@@IAE@K_N@Z
??0?$_CORBA_Sequence@_K@@IAE@XZ
??0?$_CORBA_Sequence@_N@@IAE@ABV0@@Z
??0?$_CORBA_Sequence@_N@@IAE@K_N@Z
??0?$_CORBA_Sequence@_N@@IAE@XZ
??0?$_CORBA_Sequence@_W@@IAE@ABV0@@Z
??0?$_CORBA_Sequence@_W@@IAE@K_N@Z
??0?$_CORBA_Sequence@_W@@IAE@XZ
??0?$_CORBA_Sequence_ObjRef@VDynAny@DynamicAny@@V?$_CORBA_ObjRef_Element@VDynAny@DynamicAny@@VDynAny_Helper@2@@@VDynAny_Helper@2@@@IAE@XZ
??0?$_CORBA_Sequence_ObjRef@V_objref_AbstractInterfaceDef@CORBA@@V?$_CORBA_ObjRef_Element@V_objref_AbstractInterfaceDef@CORBA@@VAbstractInterfaceDef_Helper@2@@@VAbstractInterfaceDef_Helper@2@@@IAE@ABV0@@Z
??0?$_CORBA_Sequence_ObjRef@V_objref_AbstractInterfaceDef@CORBA@@V?$_CORBA_ObjRef_Element@V_objref_AbstractInterfaceDef@CORBA@@VAbstractInterfaceDef_Helper@2@@@VAbstractInterfaceDef_Helper@2@@@IAE@XZ
??0?$_CORBA_Sequence_ObjRef@V_objref_Contained@CORBA@@V?$_CORBA_ObjRef_Element@V_objref_Contained@CORBA@@VContained_Helper@2@@@VContained_Helper@2@@@IAE@ABV0@@Z
??0?$_CORBA_Sequence_ObjRef@V_objref_Contained@CORBA@@V?$_CORBA_ObjRef_Element@V_objref_Contained@CORBA@@VContained_Helper@2@@@VContained_Helper@2@@@IAE@XZ
??0?$_CORBA_Sequence_ObjRef@V_objref_ExceptionDef@CORBA@@V?$_CORBA_ObjRef_Element@V_objref_ExceptionDef@CORBA@@VExceptionDef_Helper@2@@@VExceptionDef_Helper@2@@@IAE@ABV0@@Z
??0?$_CORBA_Sequence_ObjRef@V_objref_ExceptionDef@CORBA@@V?$_CORBA_ObjRef_Element@V_objref_ExceptionDef@CORBA@@VExceptionDef_Helper@2@@@VExceptionDef_Helper@2@@@IAE@XZ
??0?$_CORBA_Sequence_ObjRef@V_objref_InterfaceDef@CORBA@@V?$_CORBA_ObjRef_Element@V_objref_InterfaceDef@CORBA@@VInterfaceDef_Helper@2@@@VInterfaceDef_Helper@2@@@IAE@ABV0@@Z
??0?$_CORBA_Sequence_ObjRef@V_objref_InterfaceDef@CORBA@@V?$_CORBA_ObjRef_Element@V_objref_InterfaceDef@CORBA@@VInterfaceDef_Helper@2@@@VInterfaceDef_Helper@2@@@IAE@XZ
??0?$_CORBA_Sequence_ObjRef@V_objref_ValueDef@CORBA@@V?$_CORBA_ObjRef_Element@V_objref_ValueDef@CORBA@@VValueDef_Helper@2@@@VValueDef_Helper@2@@@IAE@ABV0@@Z
??0?$_CORBA_Sequence_ObjRef@V_objref_ValueDef@CORBA@@V?$_CORBA_ObjRef_Element@V_objref_ValueDef@CORBA@@VValueDef_Helper@2@@@VValueDef_Helper@2@@@IAE@XZ
??0?$_CORBA_Sequence_Value@VPollerImpl@omniAMI@@V?$_CORBA_Value_Element@VPollerImpl@omniAMI@@VPoller_Helper@Messaging@@@@VPoller_Helper@Messaging@@@@IAE@XZ
??0?$_CORBA_Sequence_Value@VValueBase@CORBA@@V?$_CORBA_Value_Element@VValueBase@CORBA@@VValueBase_Helper@2@@@VValueBase_Helper@2@@@IAE@ABV0@@Z
??0?$_CORBA_Sequence_Value@VValueBase@CORBA@@V?$_CORBA_Value_Element@VValueBase@CORBA@@VValueBase_Helper@2@@@VValueBase_Helper@2@@@IAE@KKPAPAVValueBase@CORBA@@_N1@Z
??0?$_CORBA_Sequence_Value@VValueBase@CORBA@@V?$_CORBA_Value_Element@VValueBase@CORBA@@VValueBase_Helper@2@@@VValueBase_Helper@2@@@IAE@XZ
??0?$_CORBA_Unbounded_Sequence@F@@QAE@ABV0@@Z
??0?$_CORBA_Unbounded_Sequence@F@@QAE@K@Z
??0?$_CORBA_Unbounded_Sequence@F@@QAE@XZ
??0?$_CORBA_Unbounded_Sequence@G@@QAE@ABV0@@Z
??0?$_CORBA_Unbounded_Sequence@G@@QAE@K@Z
??0?$_CORBA_Unbounded_Sequence@G@@QAE@XZ
??0?$_CORBA_Unbounded_Sequence@J@@QAE@ABV0@@Z
??0?$_CORBA_Unbounded_Sequence@J@@QAE@K@Z
??0?$_CORBA_Unbounded_Sequence@J@@QAE@XZ
??0?$_CORBA_Unbounded_Sequence@K@@QAE@ABV0@@Z
??0?$_CORBA_Unbounded_Sequence@K@@QAE@K@Z
??0?$_CORBA_Unbounded_Sequence@K@@QAE@XZ
??0?$_CORBA_Unbounded_Sequence@M@@QAE@ABV0@@Z
??0?$_CORBA_Unbounded_Sequence@M@@QAE@K@Z
??0?$_CORBA_Unbounded_Sequence@M@@QAE@XZ
??0?$_CORBA_Unbounded_Sequence@N@@QAE@ABV0@@Z
??0?$_CORBA_Unbounded_Sequence@N@@QAE@K@Z
??0?$_CORBA_Unbounded_Sequence@N@@QAE@XZ
??0?$_CORBA_Unbounded_Sequence@UAttributeDescription@CORBA@@@@QAE@ABV0@@Z
??0?$_CORBA_Unbounded_Sequence@UAttributeDescription@CORBA@@@@QAE@XZ
??0?$_CORBA_Unbounded_Sequence@UBinding@CosNaming@@@@QAE@ABV0@@Z
??0?$_CORBA_Unbounded_Sequence@UBinding@CosNaming@@@@QAE@XZ
??0?$_CORBA_Unbounded_Sequence@UDescription@Container@CORBA@@@@QAE@ABV0@@Z
??0?$_CORBA_Unbounded_Sequence@UDescription@Container@CORBA@@@@QAE@XZ
??0?$_CORBA_Unbounded_Sequence@UExceptionDescription@CORBA@@@@QAE@ABV0@@Z
??0?$_CORBA_Unbounded_Sequence@UExceptionDescription@CORBA@@@@QAE@XZ
??0?$_CORBA_Unbounded_Sequence@UInitializer@CORBA@@@@QAE@ABV0@@Z
??0?$_CORBA_Unbounded_Sequence@UInitializer@CORBA@@@@QAE@XZ
??0?$_CORBA_Unbounded_Sequence@UNameComponent@CosNaming@@@@QAE@ABV0@@Z
??0?$_CORBA_Unbounded_Sequence@UNameComponent@CosNaming@@@@QAE@XZ
??0?$_CORBA_Unbounded_Sequence@UNameDynAnyPair@DynamicAny@@@@QAE@XZ
??0?$_CORBA_Unbounded_Sequence@UNameValuePair@DynamicAny@@@@QAE@XZ
??0?$_CORBA_Unbounded_Sequence@UOperationDescription@CORBA@@@@QAE@ABV0@@Z
??0?$_CORBA_Unbounded_Sequence@UOperationDescription@CORBA@@@@QAE@XZ
??0?$_CORBA_Unbounded_Sequence@UParameterDescription@CORBA@@@@QAE@ABV0@@Z
??0?$_CORBA_Unbounded_Sequence@UParameterDescription@CORBA@@@@QAE@XZ
??0?$_CORBA_Unbounded_Sequence@UStructMember@CORBA@@@@QAE@ABV0@@Z
??0?$_CORBA_Unbounded_Sequence@UStructMember@CORBA@@@@QAE@XZ
??0?$_CORBA_Unbounded_Sequence@UUnionMember@CORBA@@@@QAE@ABV0@@Z
??0?$_CORBA_Unbounded_Sequence@UUnionMember@CORBA@@@@QAE@XZ
??0?$_CORBA_Unbounded_Sequence@UValueMember@CORBA@@@@QAE@ABV0@@Z
??0?$_CORBA_Unbounded_Sequence@UValueMember@CORBA@@@@QAE@XZ
??0?$_CORBA_Unbounded_Sequence@VAny@CORBA@@@@QAE@ABV0@@Z
??0?$_CORBA_Unbounded_Sequence@VAny@CORBA@@@@QAE@XZ
??0?$_CORBA_Unbounded_Sequence@VTypeCode_member@CORBA@@@@QAE@XZ
??0?$_CORBA_Unbounded_Sequence@_J@@QAE@ABV0@@Z
??0?$_CORBA_Unbounded_Sequence@_J@@QAE@K@Z
??0?$_CORBA_Unbounded_Sequence@_J@@QAE@XZ
??0?$_CORBA_Unbounded_Sequence@_K@@QAE@ABV0@@Z
??0?$_CORBA_Unbounded_Sequence@_K@@QAE@K@Z
??0?$_CORBA_Unbounded_Sequence@_K@@QAE@XZ
??0?$_CORBA_Unbounded_Sequence_ObjRef@VDynAny@DynamicAny@@V?$_CORBA_ObjRef_Element@VDynAny@DynamicAny@@VDynAny_Helper@2@@@VDynAny_Helper@2@@@QAE@XZ
??0?$_CORBA_Unbounded_Sequence_ObjRef@V_objref_AbstractInterfaceDef@CORBA@@V?$_CORBA_ObjRef_Element@V_objref_AbstractInterfaceDef@CORBA@@VAbstractInterfaceDef_Helper@2@@@VAbstractInterfaceDef_Helper@2@@@QAE@ABV0@@Z
??0?$_CORBA_Unbounded_Sequence_ObjRef@V_objref_AbstractInterfaceDef@CORBA@@V?$_CORBA_ObjRef_Element@V_objref_AbstractInterfaceDef@CORBA@@VAbstractInterfaceDef_Helper@2@@@VAbstractInterfaceDef_Helper@2@@@QAE@XZ
??0?$_CORBA_Unbounded_Sequence_ObjRef@V_objref_Contained@CORBA@@V?$_CORBA_ObjRef_Element@V_objref_Contained@CORBA@@VContained_Helper@2@@@VContained_Helper@2@@@QAE@ABV0@@Z
??0?$_CORBA_Unbounded_Sequence_ObjRef@V_objref_Contained@CORBA@@V?$_CORBA_ObjRef_Element@V_objref_Contained@CORBA@@VContained_Helper@2@@@VContained_Helper@2@@@QAE@XZ
??0?$_CORBA_Unbounded_Sequence_ObjRef@V_objref_ExceptionDef@CORBA@@V?$_CORBA_ObjRef_Element@V_objref_ExceptionDef@CORBA@@VExceptionDef_Helper@2@@@VExceptionDef_Helper@2@@@QAE@ABV0@@Z
??0?$_CORBA_Unbounded_Sequence_ObjRef@V_objref_ExceptionDef@CORBA@@V?$_CORBA_ObjRef_Element@V_objref_ExceptionDef@CORBA@@VExceptionDef_Helper@2@@@VExceptionDef_Helper@2@@@QAE@XZ
??0?$_CORBA_Unbounded_Sequence_ObjRef@V_objref_InterfaceDef@CORBA@@V?$_CORBA_ObjRef_Element@V_objref_InterfaceDef@CORBA@@VInterfaceDef_Helper@2@@@VInterfaceDef_Helper@2@@@QAE@ABV0@@Z
??0?$_CORBA_Unbounded_Sequence_ObjRef@V_objref_InterfaceDef@CORBA@@V?$_CORBA_ObjRef_Element@V_objref_InterfaceDef@CORBA@@VInterfaceDef_Helper@2@@@VInterfaceDef_Helper@2@@@QAE@XZ
??0?$_CORBA_Unbounded_Sequence_ObjRef@V_objref_ValueDef@CORBA@@V?$_CORBA_ObjRef_Element@V_objref_ValueDef@CORBA@@VValueDef_Helper@2@@@VValueDef_Helper@2@@@QAE@ABV0@@Z
??0?$_CORBA_Unbounded_Sequence_ObjRef@V_objref_ValueDef@CORBA@@V?$_CORBA_ObjRef_Element@V_objref_ValueDef@CORBA@@VValueDef_Helper@2@@@VValueDef_Helper@2@@@QAE@XZ
??0?$_CORBA_Unbounded_Sequence_Value@VPollerImpl@omniAMI@@V?$_CORBA_Value_Element@VPollerImpl@omniAMI@@VPoller_Helper@Messaging@@@@VPoller_Helper@Messaging@@@@QAE@XZ
??0?$_CORBA_Unbounded_Sequence_Value@VValueBase@CORBA@@V?$_CORBA_Value_Element@VValueBase@CORBA@@VValueBase_Helper@2@@@VValueBase_Helper@2@@@QAE@ABV0@@Z
??0?$_CORBA_Unbounded_Sequence_Value@VValueBase@CORBA@@V?$_CORBA_Value_Element@VValueBase@CORBA@@VValueBase_Helper@2@@@VValueBase_Helper@2@@@QAE@KKPAPAVValueBase@CORBA@@_N@Z
??0?$_CORBA_Unbounded_Sequence_Value@VValueBase@CORBA@@V?$_CORBA_Value_Element@VValueBase@CORBA@@VValueBase_Helper@2@@@VValueBase_Helper@2@@@QAE@XZ
??0?$_CORBA_Unbounded_Sequence_w_FixSizeElement@F$01$01@@QAE@ABV0@@Z
??0?$_CORBA_Unbounded_Sequence_w_FixSizeElement@F$01$01@@QAE@K@Z
??0?$_CORBA_Unbounded_Sequence_w_FixSizeElement@F$01$01@@QAE@XZ
??0?$_CORBA_Unbounded_Sequence_w_FixSizeElement@G$01$01@@QAE@ABV0@@Z
??0?$_CORBA_Unbounded_Sequence_w_FixSizeElement@G$01$01@@QAE@K@Z
??0?$_CORBA_Unbounded_Sequence_w_FixSizeElement@G$01$01@@QAE@XZ
??0?$_CORBA_Unbounded_Sequence_w_FixSizeElement@J$03$03@@QAE@ABV0@@Z
??0?$_CORBA_Unbounded_Sequence_w_FixSizeElement@J$03$03@@QAE@K@Z
??0?$_CORBA_Unbounded_Sequence_w_FixSizeElement@J$03$03@@QAE@XZ
??0?$_CORBA_Unbounded_Sequence_w_FixSizeElement@K$03$03@@QAE@ABV0@@Z
??0?$_CORBA_Unbounded_Sequence_w_FixSizeElement@K$03$03@@QAE@K@Z
??0?$_CORBA_Unbounded_Sequence_w_FixSizeElement@K$03$03@@QAE@XZ
??0?$_CORBA_Unbounded_Sequence_w_FixSizeElement@M$03$03@@QAE@ABV0@@Z
??0?$_CORBA_Unbounded_Sequence_w_FixSizeElement@M$03$03@@QAE@K@Z
??0?$_CORBA_Unbounded_Sequence_w_FixSizeElement@M$03$03@@QAE@XZ
??0?$_CORBA_Unbounded_Sequence_w_FixSizeElement@N$07$07@@QAE@ABV0@@Z
??0?$_CORBA_Unbounded_Sequence_w_FixSizeElement@N$07$07@@QAE@K@Z
??0?$_CORBA_Unbounded_Sequence_w_FixSizeElement@N$07$07@@QAE@XZ
??0?$_CORBA_Unbounded_Sequence_w_FixSizeElement@_J$07$07@@QAE@ABV0@@Z
??0?$_CORBA_Unbounded_Sequence_w_FixSizeElement@_J$07$07@@QAE@K@Z
??0?$_CORBA_Unbounded_Sequence_w_FixSizeElement@_J$07$07@@QAE@XZ
??0?$_CORBA_Unbounded_Sequence_w_FixSizeElement@_K$07$07@@QAE@ABV0@@Z
??0?$_CORBA_Unbounded_Sequence_w_FixSizeElement@_K$07$07@@QAE@K@Z
??0?$_CORBA_Unbounded_Sequence_w_FixSizeElement@_K$07$07@@QAE@XZ
??0?$_CORBA_Value_Element@VPollerImpl@omniAMI@@VPoller_Helper@Messaging@@@@QAE@AAPAVPollerImpl@omniAMI@@_N@Z
??0?$_CORBA_Value_Element@VValueBase@CORBA@@VValueBase_Helper@2@@@QAE@AAPAVValueBase@CORBA@@_N@Z
??0?$omnivector@PAVDynAnyImplBase@omni@@@@QAE@XZ
??0AbstractBase@CORBA@@IAE@ABV01@@Z
??0AbstractBase@CORBA@@IAE@XZ
??0AbstractInterfaceDefSeq@CORBA@@QAE@ABV01@@Z
??0AbstractInterfaceDefSeq@CORBA@@QAE@XZ
??0AbstractInterfaceDefSeq_var@CORBA@@QAE@XZ
??0AdapterAlreadyExists@POA@PortableServer@@QAE@ABV012@@Z
??0AdapterAlreadyExists@POA@PortableServer@@QAE@XZ
??0AdapterInactive@POAManager@PortableServer@@QAE@ABV012@@Z
??0AdapterInactive@POAManager@PortableServer@@QAE@XZ
??0AdapterNonExistent@POA@PortableServer@@QAE@ABV012@@Z
??0AdapterNonExistent@POA@PortableServer@@QAE@XZ
??0AlreadyBound@NamingContext@CosNaming@@QAE@XZ
??0Any@CORBA@@QAE@ABV01@@Z
??0Any@CORBA@@QAE@PAVTypeCode@1@PAX_N@Z
??0Any@CORBA@@QAE@XZ
??0AnySeq@CORBA@@QAE@ABV01@@Z
??0AnySeq@CORBA@@QAE@XZ
??0AnySeq@DynamicAny@@QAE@XZ
??0Any_var@CORBA@@QAE@PAVAny@1@@Z
??0Any_var@CORBA@@QAE@XZ
??0AttrDescriptionSeq@CORBA@@QAE@ABV01@@Z
??0AttrDescriptionSeq@CORBA@@QAE@XZ
??0AttributeDescription@CORBA@@QAE@ABU01@@Z
??0AttributeDescription@CORBA@@QAE@XZ
??0BAD_CONTEXT@CORBA@@QAE@ABV01@@Z
??0BAD_CONTEXT@CORBA@@QAE@KW4CompletionStatus@1@@Z
??0BAD_INV_ORDER@CORBA@@QAE@ABV01@@Z
??0BAD_INV_ORDER@CORBA@@QAE@KW4CompletionStatus@1@@Z
??0BAD_OPERATION@CORBA@@QAE@ABV01@@Z
??0BAD_OPERATION@CORBA@@QAE@KW4CompletionStatus@1@@Z
??0BAD_PARAM@CORBA@@QAE@ABV01@@Z
??0BAD_PARAM@CORBA@@QAE@KW4CompletionStatus@1@@Z
??0BAD_QOS@CORBA@@QAE@ABV01@@Z
??0BAD_QOS@CORBA@@QAE@KW4CompletionStatus@1@@Z
??0BAD_TYPECODE@CORBA@@QAE@ABV01@@Z
??0BAD_TYPECODE@CORBA@@QAE@KW4CompletionStatus@1@@Z
??0BadKind@TypeCode@CORBA@@QAE@ABV012@@Z
??0BadKind@TypeCode@CORBA@@QAE@XZ
??0BidirectionalPolicy@BiDirPolicy@@QAE@G@Z
??0Binding@CosNaming@@QAE@ABU01@@Z
??0Binding@CosNaming@@QAE@XZ
??0BindingList@CosNaming@@QAE@ABV01@@Z
??0BindingList@CosNaming@@QAE@XZ
??0BooleanSeq@CORBA@@QAE@ABV01@@Z
??0BooleanSeq@CORBA@@QAE@K@Z
??0BooleanSeq@CORBA@@QAE@XZ
??0BooleanSeq_var@CORBA@@QAE@PAVBooleanSeq@1@@Z
??0Bounds@ContextList@CORBA@@QAE@ABV012@@Z
??0Bounds@ContextList@CORBA@@QAE@XZ
??0Bounds@ExceptionList@CORBA@@QAE@ABV012@@Z
??0Bounds@ExceptionList@CORBA@@QAE@XZ
??0Bounds@NVList@CORBA@@QAE@ABV012@@Z
??0Bounds@NVList@CORBA@@QAE@XZ
??0Bounds@TypeCode@CORBA@@QAE@ABV012@@Z
??0Bounds@TypeCode@CORBA@@QAE@XZ
??0CODESET_INCOMPATIBLE@CORBA@@QAE@ABV01@@Z
??0CODESET_INCOMPATIBLE@CORBA@@QAE@KW4CompletionStatus@1@@Z
??0COMM_FAILURE@CORBA@@QAE@ABV01@@Z
??0COMM_FAILURE@CORBA@@QAE@KW4CompletionStatus@1@@Z
??0CannotProceed@NamingContext@CosNaming@@QAE@XZ
??0CharSeq@CORBA@@QAE@ABV01@@Z
??0CharSeq@CORBA@@QAE@K@Z
??0CharSeq@CORBA@@QAE@XZ
??0CharSeq_var@CORBA@@QAE@PAVCharSeq@1@@Z
??0ConstantDescription@CORBA@@QAE@ABU01@@Z
??0ConstantDescription@CORBA@@QAE@XZ
??0ContainedSeq@CORBA@@QAE@ABV01@@Z
??0ContainedSeq@CORBA@@QAE@XZ
??0ContainedSeq_var@CORBA@@QAE@XZ
??0Context@CORBA@@IAE@XZ
??0ContextIdSeq@CORBA@@QAE@ABV01@@Z
??0ContextIdSeq@CORBA@@QAE@XZ
??0ContextIdSeq_var@CORBA@@QAE@XZ
??0ContextImpl@omni@@QAE@PBDPAVContext@CORBA@@@Z
??0ContextList@CORBA@@IAE@XZ
??0ContextListImpl@omni@@QAE@XZ
??0DATA_CONVERSION@CORBA@@QAE@ABV01@@Z
??0DATA_CONVERSION@CORBA@@QAE@KW4CompletionStatus@1@@Z
??0DIICallDescriptor@omni@@QAE@PAVRequestImpl@1@PBDPAVNVList@CORBA@@PAVNamedValue@4@PAVExceptionList@4@PAVContextList@4@PAVContext@4@@Z
??0DIIPollable@CORBA@@IAE@XZ
??0DIIPollableImpl@omniAMI@@QAE@XZ
??0DefaultValueRefCountBase@CORBA@@IAE@XZ
??0Description@Contained@CORBA@@QAE@ABU012@@Z
??0Description@Contained@CORBA@@QAE@XZ
??0Description@Container@CORBA@@QAE@ABU012@@Z
??0Description@Container@CORBA@@QAE@XZ
??0DescriptionSeq@Container@CORBA@@QAE@ABV012@@Z
??0DescriptionSeq@Container@CORBA@@QAE@XZ
??0DescriptionSeq_var@Container@CORBA@@QAE@XZ
??0DoubleSeq@CORBA@@QAE@ABV01@@Z
??0DoubleSeq@CORBA@@QAE@K@Z
??0DoubleSeq@CORBA@@QAE@XZ
??0DoubleSeq_var@CORBA@@QAE@PAVDoubleSeq@1@@Z
??0DynAny@DynamicAny@@IAE@H@Z
??0DynAnyConstrBase@omni@@QAE@PAVTypeCode_base@1@H_N@Z
??0DynAnyFactory@DynamicAny@@QAE@H@Z
??0DynAnyFactoryImpl@omni@@QAE@XZ
??0DynAnyImpl@omni@@QAE@PAVTypeCode_base@1@H_N@Z
??0DynAnyImplBase@omni@@QAE@PAVTypeCode_base@1@H_N@Z
??0DynAnySeq@DynamicAny@@QAE@XZ
??0DynArray@DynamicAny@@IAE@XZ
??0DynArrayImpl@omni@@QAE@PAVTypeCode_base@1@_N@Z
??0DynEnum@DynamicAny@@IAE@XZ
??0DynEnumImpl@omni@@QAE@PAVTypeCode_base@1@_N@Z
??0DynFixed@DynamicAny@@IAE@XZ
??0DynFixedImpl@omni@@QAE@PAVTypeCode_base@1@_N@Z
??0DynSequence@DynamicAny@@IAE@XZ
??0DynSequenceImpl@omni@@QAE@PAVTypeCode_base@1@_N@Z
??0DynStruct@DynamicAny@@IAE@XZ
??0DynStructImpl@omni@@QAE@PAVTypeCode_base@1@_N@Z
??0DynUnion@DynamicAny@@IAE@XZ
??0DynUnionDisc@omni@@QAE@PAVTypeCode_base@1@HPAVDynUnionImpl@1@@Z
??0DynUnionEnumDisc@omni@@QAE@PAVTypeCode_base@1@PAVDynUnionImpl@1@@Z
??0DynUnionImpl@omni@@QAE@PAVTypeCode_base@1@_N@Z
??0DynValue@DynamicAny@@IAE@XZ
??0DynValueBox@DynamicAny@@IAE@XZ
??0DynValueBoxImpl@omni@@QAE@PAVTypeCode_base@1@_N@Z
??0DynValueCommon@DynamicAny@@IAE@XZ
??0DynValueImpl@omni@@QAE@PAVTypeCode_base@1@_N@Z
??0Entry@omniTypeCodeCollection@omni@@QAE@PBDPAVTypeCode@CORBA@@@Z
??0EnumMemberSeq@CORBA@@QAE@ABV01@@Z
??0EnumMemberSeq@CORBA@@QAE@XZ
??0EnumMemberSeq_var@CORBA@@QAE@XZ
??0Environment@CORBA@@QAE@XZ
??0EnvironmentImpl@omni@@QAE@XZ
??0ExcDescriptionSeq@CORBA@@QAE@ABV01@@Z
??0ExcDescriptionSeq@CORBA@@QAE@XZ
??0Exception@CORBA@@IAE@XZ
??0Exception@CORBA@@QAE@ABV01@@Z
??0ExceptionDefSeq@CORBA@@QAE@ABV01@@Z
??0ExceptionDefSeq@CORBA@@QAE@XZ
??0ExceptionDefSeq_var@CORBA@@QAE@XZ
??0ExceptionDescription@CORBA@@QAE@ABU01@@Z
??0ExceptionDescription@CORBA@@QAE@XZ
??0ExceptionHolder@Messaging@@IAE@XZ
??0ExceptionHolder@OBV_Messaging@@IAE@XZ
??0ExceptionList@CORBA@@IAE@XZ
??0ExceptionListImpl@omni@@QAE@XZ
??0FREE_MEM@CORBA@@QAE@ABV01@@Z
??0FREE_MEM@CORBA@@QAE@KW4CompletionStatus@1@@Z
??0FloatSeq@CORBA@@QAE@ABV01@@Z
??0FloatSeq@CORBA@@QAE@K@Z
??0FloatSeq@CORBA@@QAE@XZ
??0FloatSeq_var@CORBA@@QAE@PAVFloatSeq@1@@Z
??0ForwardRequest@PortableServer@@QAE@XZ
??0FromAnyUserException@omni@@QAE@ABVAny@CORBA@@PBD@Z
??0FullInterfaceDescription@InterfaceDef@CORBA@@QAE@ABU012@@Z
??0FullInterfaceDescription@InterfaceDef@CORBA@@QAE@XZ
??0FullValueDescription@ValueDef@CORBA@@QAE@ABU012@@Z
??0FullValueDescription@ValueDef@CORBA@@QAE@XZ
??0HolderU@omniCodeSetUtil@omni@@QAE@PA_W@Z
??0IMP_LIMIT@CORBA@@QAE@ABV01@@Z
??0IMP_LIMIT@CORBA@@QAE@KW4CompletionStatus@1@@Z
??0INITIALIZE@CORBA@@QAE@ABV01@@Z
??0INITIALIZE@CORBA@@QAE@KW4CompletionStatus@1@@Z
??0INTERNAL@CORBA@@QAE@ABV01@@Z
??0INTERNAL@CORBA@@QAE@KW4CompletionStatus@1@@Z
??0INTF_REPOS@CORBA@@QAE@ABV01@@Z
??0INTF_REPOS@CORBA@@QAE@KW4CompletionStatus@1@@Z
??0INVALID_TRANSACTION@CORBA@@QAE@ABV01@@Z
??0INVALID_TRANSACTION@CORBA@@QAE@KW4CompletionStatus@1@@Z
??0INV_FLAG@CORBA@@QAE@ABV01@@Z
??0INV_FLAG@CORBA@@QAE@KW4CompletionStatus@1@@Z
??0INV_IDENT@CORBA@@QAE@ABV01@@Z
??0INV_IDENT@CORBA@@QAE@KW4CompletionStatus@1@@Z
??0INV_OBJREF@CORBA@@QAE@ABV01@@Z
??0INV_OBJREF@CORBA@@QAE@KW4CompletionStatus@1@@Z
??0INV_POLICY@CORBA@@QAE@ABV01@@Z
??0INV_POLICY@CORBA@@QAE@KW4CompletionStatus@1@@Z
??0IdAssignmentPolicy@PortableServer@@QAE@W4IdAssignmentPolicyValue@1@@Z
??0IdUniquenessPolicy@PortableServer@@QAE@W4IdUniquenessPolicyValue@1@@Z
??0ImplicitActivationPolicy@PortableServer@@QAE@W4ImplicitActivationPolicyValue@1@@Z
??0InconsistentTypeCode@DynAnyFactory@DynamicAny@@QAE@ABV012@@Z
??0InconsistentTypeCode@DynAnyFactory@DynamicAny@@QAE@XZ
??0InconsistentTypeCode@ORB@CORBA@@QAE@ABV012@@Z
??0InconsistentTypeCode@ORB@CORBA@@QAE@XZ
??0Initializer@CORBA@@QAE@ABU01@@Z
??0Initializer@CORBA@@QAE@XZ
??0InitializerSeq@CORBA@@QAE@ABV01@@Z
??0InitializerSeq@CORBA@@QAE@XZ
??0InitializerSeq_var@CORBA@@QAE@XZ
??0InputTableEntry@omni@@QAE@PADJPAU01@@Z
??0InputTableEntry@omni@@QAE@PAU01@J0@Z
??0InputTableEntry@omni@@QAE@PAU_omni_ValueIds@@JPAU01@@Z
??0InputTableEntry@omni@@QAE@PAVValueBase@CORBA@@JPAU01@@Z
??0InputValueTracker@omni@@QAE@XZ
??0InterfaceDefSeq@CORBA@@QAE@ABV01@@Z
??0InterfaceDefSeq@CORBA@@QAE@XZ
??0InterfaceDefSeq_var@CORBA@@QAE@XZ
??0InterfaceDescription@CORBA@@QAE@ABU01@@Z
??0InterfaceDescription@CORBA@@QAE@XZ
??0InvalidAddress@NamingContextExt@CosNaming@@QAE@XZ
??0InvalidName@NamingContext@CosNaming@@QAE@XZ
??0InvalidName@ORB@CORBA@@QAE@ABV012@@Z
??0InvalidName@ORB@CORBA@@QAE@XZ
??0InvalidPolicy@POA@PortableServer@@QAE@XZ
??0InvalidValue@DynAny@DynamicAny@@QAE@ABV012@@Z
??0InvalidValue@DynAny@DynamicAny@@QAE@XZ
??0LifespanPolicy@PortableServer@@QAE@W4LifespanPolicyValue@1@@Z
??0LocalObject@CORBA@@IAE@XZ
??0LocalShortcutPolicy@omniPolicy@@QAE@G@Z
??0LongLongSeq@CORBA@@QAE@ABV01@@Z
??0LongLongSeq@CORBA@@QAE@K@Z
??0LongLongSeq@CORBA@@QAE@XZ
??0LongLongSeq_var@CORBA@@QAE@PAVLongLongSeq@1@@Z
??0LongSeq@CORBA@@QAE@ABV01@@Z
??0LongSeq@CORBA@@QAE@K@Z
??0LongSeq@CORBA@@QAE@XZ
??0LongSeq_var@CORBA@@QAE@PAVLongSeq@1@@Z
??0MARSHAL@CORBA@@QAE@ABV01@@Z
??0MARSHAL@CORBA@@QAE@KW4CompletionStatus@1@@Z
??0ModuleDescription@CORBA@@QAE@ABU01@@Z
??0ModuleDescription@CORBA@@QAE@XZ
??0NO_IMPLEMENT@CORBA@@QAE@ABV01@@Z
??0NO_IMPLEMENT@CORBA@@QAE@KW4CompletionStatus@1@@Z
??0NO_MEMORY@CORBA@@QAE@ABV01@@Z
??0NO_MEMORY@CORBA@@QAE@KW4CompletionStatus@1@@Z
??0NO_PERMISSION@CORBA@@QAE@ABV01@@Z
??0NO_PERMISSION@CORBA@@QAE@KW4CompletionStatus@1@@Z
??0NO_RESOURCES@CORBA@@QAE@ABV01@@Z
??0NO_RESOURCES@CORBA@@QAE@KW4CompletionStatus@1@@Z
??0NO_RESPONSE@CORBA@@QAE@ABV01@@Z
??0NO_RESPONSE@CORBA@@QAE@KW4CompletionStatus@1@@Z
??0NVList@CORBA@@IAE@XZ
??0NVListImpl@omni@@QAE@XZ
??0Name@CosNaming@@QAE@ABV01@@Z
??0Name@CosNaming@@QAE@XZ
??0NameComponent@CosNaming@@QAE@ABU01@@Z
??0NameComponent@CosNaming@@QAE@XZ
??0NameDynAnyPair@DynamicAny@@QAE@XZ
??0NameDynAnyPairSeq@DynamicAny@@QAE@XZ
??0NameValuePair@DynamicAny@@QAE@XZ
??0NameValuePairSeq@DynamicAny@@QAE@XZ
??0NamedValue@CORBA@@IAE@XZ
??0NamedValueImpl@omni@@QAE@K@Z
??0NamedValueImpl@omni@@QAE@PADK@Z
??0NamedValueImpl@omni@@QAE@PADPAVAny@CORBA@@K@Z
??0NamedValueImpl@omni@@QAE@PBDABVAny@CORBA@@K@Z
??0NamedValueImpl@omni@@QAE@PBDK@Z
??0NoPossiblePollable@PollableSet@CORBA@@QAE@ABV012@@Z
??0NoPossiblePollable@PollableSet@CORBA@@QAE@XZ
??0NoServant@POA@PortableServer@@QAE@ABV012@@Z
??0NoServant@POA@PortableServer@@QAE@XZ
??0NotEmpty@NamingContext@CosNaming@@QAE@XZ
??0NotFound@NamingContext@CosNaming@@QAE@XZ
??0OBJECT_NOT_EXIST@CORBA@@QAE@ABV01@@Z
??0OBJECT_NOT_EXIST@CORBA@@QAE@KW4CompletionStatus@1@@Z
??0OBJ_ADAPTER@CORBA@@QAE@ABV01@@Z
??0OBJ_ADAPTER@CORBA@@QAE@KW4CompletionStatus@1@@Z
??0ObjIdList@CORBA_InitialReferences@@QAE@ABV01@@Z
??0ObjIdList@CORBA_InitialReferences@@QAE@XZ
??0Object@CORBA@@QAE@XZ
??0ObjectAlreadyActive@POA@PortableServer@@QAE@ABV012@@Z
??0ObjectAlreadyActive@POA@PortableServer@@QAE@XZ
??0ObjectId@PortableServer@@QAE@XZ
??0ObjectNotActive@POA@PortableServer@@QAE@ABV012@@Z
??0ObjectNotActive@POA@PortableServer@@QAE@XZ
??0Object_Member@CORBA@@QAE@XZ
??0Object_var@CORBA@@QAE@PAVObject@1@@Z
??0Object_var@CORBA@@QAE@XZ
??0OctetSeq@CORBA@@QAE@ABV01@@Z
??0OctetSeq@CORBA@@QAE@K@Z
??0OctetSeq@CORBA@@QAE@XZ
??0OctetSeq_var@CORBA@@QAE@PAVOctetSeq@1@@Z
??0OpDescriptionSeq@CORBA@@QAE@ABV01@@Z
??0OpDescriptionSeq@CORBA@@QAE@XZ
??0OperationDescription@CORBA@@QAE@ABU01@@Z
??0OperationDescription@CORBA@@QAE@XZ
??0OutputTableEntry@omni@@QAE@PBDKJPAU01@@Z
??0OutputTableEntry@omni@@QAE@PBU_omni_ValueIds@@KJPAU01@@Z
??0OutputTableEntry@omni@@QAE@PBVValueBase@CORBA@@KJPAU01@@Z
??0OutputValueTracker@omni@@QAE@XZ
??0PERSIST_STORE@CORBA@@QAE@ABV01@@Z
??0PERSIST_STORE@CORBA@@QAE@KW4CompletionStatus@1@@Z
??0ParDescriptionSeq@CORBA@@QAE@ABV01@@Z
??0ParDescriptionSeq@CORBA@@QAE@XZ
??0ParDescriptionSeq_var@CORBA@@QAE@XZ
??0ParameterDescription@CORBA@@QAE@ABU01@@Z
??0ParameterDescription@CORBA@@QAE@XZ
??0PolicyError@CORBA@@QAE@XZ
??0Pollable@CORBA@@IAE@XZ
??0PollableSet@CORBA@@IAE@XZ
??0PollableSetImpl@omniAMI@@QAE@PAVDIIPollableImpl@1@@Z
??0PollableSetImpl@omniAMI@@QAE@PAVPollerImpl@1@@Z
??0Poller@Messaging@@IAE@XZ
??0PseudoObjBase@omni@@QAE@XZ
??0REBIND@CORBA@@QAE@ABV01@@Z
??0REBIND@CORBA@@QAE@KW4CompletionStatus@1@@Z
??0RepositoryIdSeq@CORBA@@QAE@ABV01@@Z
??0RepositoryIdSeq@CORBA@@QAE@XZ
??0Request@CORBA@@IAE@XZ
??0RequestImpl@omni@@QAE@PAVObject@CORBA@@PBD@Z
??0RequestImpl@omni@@QAE@PAVObject@CORBA@@PBDPAVContext@3@PAVNVList@3@PAVNamedValue@3@@Z
??0RequestImpl@omni@@QAE@PAVObject@CORBA@@PBDPAVContext@3@PAVNVList@3@PAVNamedValue@3@PAVExceptionList@3@PAVContextList@3@@Z
??0RequestLink@omni@@QAE@PAVRequest@CORBA@@@Z
??0RequestProcessingPolicy@PortableServer@@QAE@W4RequestProcessingPolicyValue@1@@Z
??0ServantAlreadyActive@POA@PortableServer@@QAE@ABV012@@Z
??0ServantAlreadyActive@POA@PortableServer@@QAE@XZ
??0ServantNotActive@POA@PortableServer@@QAE@ABV012@@Z
??0ServantNotActive@POA@PortableServer@@QAE@XZ
??0ServantRetentionPolicy@PortableServer@@QAE@W4ServantRetentionPolicyValue@1@@Z
??0ServerRequest@CORBA@@IAE@XZ
??0ShortSeq@CORBA@@QAE@ABV01@@Z
??0ShortSeq@CORBA@@QAE@K@Z
??0ShortSeq@CORBA@@QAE@XZ
??0ShortSeq_var@CORBA@@QAE@PAVShortSeq@1@@Z
??0StringSeq@CORBA@@QAE@ABV01@@Z
??0StringSeq@CORBA@@QAE@XZ
??0StringValue@CORBA@@QAE@XZ
??0StructMember@CORBA@@QAE@ABU01@@Z
??0StructMember@CORBA@@QAE@XZ
??0StructMemberSeq@CORBA@@QAE@ABV01@@Z
??0StructMemberSeq@CORBA@@QAE@XZ
??0StructMemberSeq_var@CORBA@@QAE@XZ
??0SystemException@CORBA@@QAE@ABV01@@Z
??0SystemException@CORBA@@QAE@KW4CompletionStatus@1@@Z
??0TIMEOUT@CORBA@@QAE@ABV01@@Z
??0TIMEOUT@CORBA@@QAE@KW4CompletionStatus@1@@Z
??0TRANSACTION_MODE@CORBA@@QAE@ABV01@@Z
??0TRANSACTION_MODE@CORBA@@QAE@KW4CompletionStatus@1@@Z
??0TRANSACTION_REQUIRED@CORBA@@QAE@ABV01@@Z
??0TRANSACTION_REQUIRED@CORBA@@QAE@KW4CompletionStatus@1@@Z
??0TRANSACTION_ROLLEDBACK@CORBA@@QAE@ABV01@@Z
??0TRANSACTION_ROLLEDBACK@CORBA@@QAE@KW4CompletionStatus@1@@Z
??0TRANSACTION_UNAVAILABLE@CORBA@@QAE@ABV01@@Z
??0TRANSACTION_UNAVAILABLE@CORBA@@QAE@KW4CompletionStatus@1@@Z
??0TRANSIENT@CORBA@@QAE@ABV01@@Z
??0TRANSIENT@CORBA@@QAE@KW4CompletionStatus@1@@Z
??0TcUnionMember@TypeCode_union@omni@@QAE@XZ
??0ThreadPolicy@PortableServer@@QAE@W4ThreadPolicyValue@1@@Z
??0TypeCode@CORBA@@IAE@XZ
??0TypeCodeInitialiser@omni@@QAE@XZ
??0TypeCodeSeq@omniTypedefs@@QAE@XZ
??0TypeCode_abstract_interface@omni@@AAE@XZ
??0TypeCode_abstract_interface@omni@@QAE@PBD0@Z
??0TypeCode_alias@omni@@AAE@XZ
??0TypeCode_alias@omni@@QAE@PBD0PAVTypeCode_base@1@@Z
??0TypeCode_alignTable@omni@@QAE@XZ
??0TypeCode_array@omni@@AAE@XZ
??0TypeCode_array@omni@@QAE@KPAVTypeCode_base@1@@Z
??0TypeCode_base@omni@@QAE@W4TCKind@CORBA@@@Z
??0TypeCode_enum@omni@@AAE@XZ
??0TypeCode_enum@omni@@QAE@PBD0ABVEnumMemberSeq@CORBA@@@Z
??0TypeCode_except@omni@@AAE@XZ
??0TypeCode_except@omni@@QAE@PAD0PAUMember@TypeCode_struct@1@K@Z
??0TypeCode_fixed@omni@@AAE@XZ
??0TypeCode_fixed@omni@@QAE@GF@Z
??0TypeCode_indirect@omni@@QAE@PBD@Z
??0TypeCode_local_interface@omni@@AAE@XZ
??0TypeCode_local_interface@omni@@QAE@PBD0@Z
??0TypeCode_member@CORBA@@QAE@ABV01@@Z
??0TypeCode_member@CORBA@@QAE@XZ
??0TypeCode_objref@omni@@IAE@W4TCKind@CORBA@@@Z
??0TypeCode_objref@omni@@QAE@PBD0W4TCKind@CORBA@@@Z
??0TypeCode_offsetTable@omni@@QAE@PAV01@J@Z
??0TypeCode_offsetTable@omni@@QAE@XZ
??0TypeCode_pairlist@omni@@QAE@PBV01@PBVTypeCode_base@1@1@Z
??0TypeCode_sequence@omni@@AAE@XZ
??0TypeCode_sequence@omni@@QAE@KK@Z
??0TypeCode_sequence@omni@@QAE@KPAVTypeCode_base@1@@Z
??0TypeCode_string@omni@@AAE@XZ
??0TypeCode_string@omni@@QAE@K@Z
??0TypeCode_struct@omni@@AAE@XZ
??0TypeCode_struct@omni@@QAE@PAD0PAUMember@01@K@Z
??0TypeCode_union@omni@@AAE@XZ
??0TypeCode_union@omni@@QAE@PBD0PAVTypeCode_base@1@ABVUnionMemberSeq@CORBA@@@Z
??0TypeCode_union@omni@@QAE@PBD0PAVTypeCode_base@1@PBUPR_unionMember@CORBA@@KJ@Z
??0TypeCode_value@omni@@AAE@XZ
??0TypeCode_value@omni@@QAE@PBD0FPAVTypeCode_base@1@PAUMember@01@K@Z
??0TypeCode_value_box@omni@@AAE@XZ
??0TypeCode_value_box@omni@@QAE@PBD0PAVTypeCode_base@1@@Z
??0TypeCode_var@CORBA@@QAE@ABV01@@Z
??0TypeCode_var@CORBA@@QAE@PAVTypeCode@1@@Z
??0TypeCode_var@CORBA@@QAE@XZ
??0TypeCode_wstring@omni@@AAE@XZ
??0TypeCode_wstring@omni@@QAE@K@Z
??0TypeDescription@CORBA@@QAE@ABU01@@Z
??0TypeDescription@CORBA@@QAE@XZ
??0TypeMismatch@DynAny@DynamicAny@@QAE@ABV012@@Z
??0TypeMismatch@DynAny@DynamicAny@@QAE@XZ
??0ULongLongSeq@CORBA@@QAE@ABV01@@Z
??0ULongLongSeq@CORBA@@QAE@K@Z
??0ULongLongSeq@CORBA@@QAE@XZ
??0ULongLongSeq_var@CORBA@@QAE@PAVULongLongSeq@1@@Z
??0ULongSeq@CORBA@@QAE@ABV01@@Z
??0ULongSeq@CORBA@@QAE@K@Z
??0ULongSeq@CORBA@@QAE@XZ
??0ULongSeq_var@CORBA@@QAE@PAVULongSeq@1@@Z
??0UNKNOWN@CORBA@@QAE@ABV01@@Z
??0UNKNOWN@CORBA@@QAE@KW4CompletionStatus@1@@Z
??0UShortSeq@CORBA@@QAE@ABV01@@Z
??0UShortSeq@CORBA@@QAE@K@Z
??0UShortSeq@CORBA@@QAE@XZ
??0UShortSeq_var@CORBA@@QAE@PAVUShortSeq@1@@Z
??0UnionMember@CORBA@@QAE@ABU01@@Z
??0UnionMember@CORBA@@QAE@XZ
??0UnionMemberSeq@CORBA@@QAE@ABV01@@Z
??0UnionMemberSeq@CORBA@@QAE@XZ
??0UnionMemberSeq_var@CORBA@@QAE@XZ
??0UnknownPollable@PollableSet@CORBA@@QAE@ABV012@@Z
??0UnknownPollable@PollableSet@CORBA@@QAE@XZ
??0UnknownUserException@CORBA@@QAE@ABV01@@Z
??0UnknownUserException@CORBA@@QAE@PAVAny@1@@Z
??0UnknownValue@omni@@AAE@ABV01@@Z
??0UnknownValue@omni@@QAE@PAVTypeCode@CORBA@@@Z
??0UserException@CORBA@@IAE@XZ
??0UserException@CORBA@@QAE@ABV01@@Z
??0ValueBase@CORBA@@IAE@ABV01@@Z
??0ValueBase@CORBA@@IAE@XZ
??0ValueBaseSeq@omniTypedefs@@QAE@ABV01@@Z
??0ValueBaseSeq@omniTypedefs@@QAE@KKPAPAVValueBase@CORBA@@_N@Z
??0ValueBaseSeq@omniTypedefs@@QAE@XZ
??0ValueBaseSeq_var@omniTypedefs@@QAE@XZ
??0ValueBase_var@CORBA@@QAE@PAVValueBase@1@@Z
??0ValueDefSeq@CORBA@@QAE@ABV01@@Z
??0ValueDefSeq@CORBA@@QAE@XZ
??0ValueDefSeq_var@CORBA@@QAE@XZ
??0ValueDescription@CORBA@@QAE@ABU01@@Z
??0ValueDescription@CORBA@@QAE@XZ
??0ValueFactoryBase@CORBA@@IAE@XZ
??0ValueIndirectionTracker@omni@@QAE@XZ
??0ValueMember@CORBA@@QAE@ABU01@@Z
??0ValueMember@CORBA@@QAE@XZ
??0ValueMemberSeq@CORBA@@QAE@ABV01@@Z
??0ValueMemberSeq@CORBA@@QAE@XZ
??0WCharSeq@CORBA@@QAE@ABV01@@Z
??0WCharSeq@CORBA@@QAE@K@Z
??0WCharSeq@CORBA@@QAE@XZ
??0WCharSeq_var@CORBA@@QAE@PAVWCharSeq@1@@Z
??0WStringSeq@CORBA@@QAE@ABV01@@Z
??0WStringSeq@CORBA@@QAE@XZ
??0WStringValue@CORBA@@QAE@XZ
??0WrongAdapter@POA@PortableServer@@QAE@ABV012@@Z
??0WrongAdapter@POA@PortableServer@@QAE@XZ
??0WrongPolicy@POA@PortableServer@@QAE@ABV012@@Z
??0WrongPolicy@POA@PortableServer@@QAE@XZ
??0WrongTransaction@CORBA@@QAE@ABV01@@Z
??0WrongTransaction@CORBA@@QAE@XZ
??0_0RL_CORBA_StringValue_init@@QAE@XZ
??0_0RL_CORBA_StringValue_install@@QAE@XZ
??0_0RL_CORBA_WStringValue_init@@QAE@XZ
??0_0RL_CORBA_WStringValue_install@@QAE@XZ
??0_0RL_cd_7963219a43724a61_00000000@@QAE@P6AXPAVomniCallDescriptor@@PAVomniServant@@@ZPBDI_N@Z
??0_0RL_cd_7963219a43724a61_04000000@@QAE@P6AXPAVomniCallDescriptor@@PAVomniServant@@@ZPBDI_N@Z
??0_0RL_cd_7963219a43724a61_06000000@@QAE@P6AXPAVomniCallDescriptor@@PAVomniServant@@@ZPBDI_N@Z
??0_0RL_cd_7963219a43724a61_08000000@@QAE@P6AXPAVomniCallDescriptor@@PAVomniServant@@@ZPBDI_N@Z
??0_0RL_cd_7963219a43724a61_0b000000@@QAE@P6AXPAVomniCallDescriptor@@PAVomniServant@@@ZPBDI_N@Z
??0_0RL_cd_7963219a43724a61_11000000@@QAE@P6AXPAVomniCallDescriptor@@PAVomniServant@@@ZPBDI_N@Z
??0_0RL_cd_7963219a43724a61_12000000@@QAE@P6AXPAVomniCallDescriptor@@PAVomniServant@@@ZPBDI_N@Z
??0_0RL_cd_7963219a43724a61_13000000@@QAE@P6AXPAVomniCallDescriptor@@PAVomniServant@@@ZPBDI_N@Z
??0_0RL_cd_7963219a43724a61_15000000@@QAE@P6AXPAVomniCallDescriptor@@PAVomniServant@@@ZPBDI_N@Z
??0_0RL_cd_7963219a43724a61_19000000@@QAE@P6AXPAVomniCallDescriptor@@PAVomniServant@@@ZPBDI_N@Z
??0_0RL_cd_7963219a43724a61_1a000000@@QAE@P6AXPAVomniCallDescriptor@@PAVomniServant@@@ZPBDI_N@Z
??0_0RL_cd_7963219a43724a61_1c000000@@QAE@P6AXPAVomniCallDescriptor@@PAVomniServant@@@ZPBDI_N@Z
??0_0RL_cd_7963219a43724a61_20000000@@QAE@P6AXPAVomniCallDescriptor@@PAVomniServant@@@ZPBDI_N@Z
??0_0RL_cd_7963219a43724a61_24000000@@QAE@P6AXPAVomniCallDescriptor@@PAVomniServant@@@ZPBDI_N@Z
??0_0RL_cd_7963219a43724a61_26000000@@QAE@P6AXPAVomniCallDescriptor@@PAVomniServant@@@ZPBDI_N@Z
??0_0RL_cd_7963219a43724a61_28000000@@QAE@P6AXPAVomniCallDescriptor@@PAVomniServant@@@ZPBDI_N@Z
??0_0RL_cd_7963219a43724a61_2b000000@@QAE@P6AXPAVomniCallDescriptor@@PAVomniServant@@@ZPBDI_N@Z
??0_0RL_cd_7963219a43724a61_31000000@@QAE@P6AXPAVomniCallDescriptor@@PAVomniServant@@@ZPBDI_N@Z
??0_0RL_cd_7963219a43724a61_32000000@@QAE@P6AXPAVomniCallDescriptor@@PAVomniServant@@@ZPBDI_N@Z
??0_0RL_cd_7963219a43724a61_33000000@@QAE@P6AXPAVomniCallDescriptor@@PAVomniServant@@@ZPBDI_N@Z
??0_0RL_cd_7963219a43724a61_39000000@@QAE@P6AXPAVomniCallDescriptor@@PAVomniServant@@@ZPBDI_N@Z
??0_0RL_cd_7963219a43724a61_40000000@@QAE@P6AXPAVomniCallDescriptor@@PAVomniServant@@@ZPBDI_N@Z
??0_0RL_cd_7963219a43724a61_44000000@@QAE@P6AXPAVomniCallDescriptor@@PAVomniServant@@@ZPBDI_N@Z
??0_0RL_cd_7963219a43724a61_46000000@@QAE@P6AXPAVomniCallDescriptor@@PAVomniServant@@@ZPBDI_N@Z
??0_0RL_cd_7963219a43724a61_4b000000@@QAE@P6AXPAVomniCallDescriptor@@PAVomniServant@@@ZPBDI_N@Z
??0_0RL_cd_7963219a43724a61_51000000@@QAE@P6AXPAVomniCallDescriptor@@PAVomniServant@@@ZPBDI_N@Z
??0_0RL_cd_7963219a43724a61_52000000@@QAE@P6AXPAVomniCallDescriptor@@PAVomniServant@@@ZPBDI_N@Z
??0_0RL_cd_7963219a43724a61_53000000@@QAE@P6AXPAVomniCallDescriptor@@PAVomniServant@@@ZPBDI_N@Z
??0_0RL_cd_7963219a43724a61_59000000@@QAE@P6AXPAVomniCallDescriptor@@PAVomniServant@@@ZPBDI_N@Z
??0_0RL_cd_7963219a43724a61_60000000@@QAE@P6AXPAVomniCallDescriptor@@PAVomniServant@@@ZPBDI_N@Z
??0_0RL_cd_7963219a43724a61_65000000@@QAE@P6AXPAVomniCallDescriptor@@PAVomniServant@@@ZPBDI_N@Z
??0_0RL_cd_7963219a43724a61_6b000000@@QAE@P6AXPAVomniCallDescriptor@@PAVomniServant@@@ZPBDI_N@Z
??0_0RL_cd_7963219a43724a61_71000000@@QAE@P6AXPAVomniCallDescriptor@@PAVomniServant@@@ZPBDI_N@Z
??0_0RL_cd_7963219a43724a61_72000000@@QAE@P6AXPAVomniCallDescriptor@@PAVomniServant@@@ZPBDI_N@Z
??0_0RL_cd_7963219a43724a61_74000000@@QAE@P6AXPAVomniCallDescriptor@@PAVomniServant@@@ZPBDI_N@Z
??0_0RL_cd_7963219a43724a61_78000000@@QAE@P6AXPAVomniCallDescriptor@@PAVomniServant@@@ZPBDI_N@Z
??0_0RL_cd_7963219a43724a61_79000000@@QAE@P6AXPAVomniCallDescriptor@@PAVomniServant@@@ZPBDI_N@Z
??0_0RL_cd_7963219a43724a61_83000000@@QAE@P6AXPAVomniCallDescriptor@@PAVomniServant@@@ZPBDI_N@Z
??0_0RL_cd_7963219a43724a61_85000000@@QAE@P6AXPAVomniCallDescriptor@@PAVomniServant@@@ZPBDI_N@Z
??0_0RL_cd_7963219a43724a61_86000000@@QAE@P6AXPAVomniCallDescriptor@@PAVomniServant@@@ZPBDI_N@Z
??0_0RL_cd_7963219a43724a61_8b000000@@QAE@P6AXPAVomniCallDescriptor@@PAVomniServant@@@ZPBDI_N@Z
??0_0RL_cd_7963219a43724a61_91000000@@QAE@P6AXPAVomniCallDescriptor@@PAVomniServant@@@ZPBDI_N@Z
??0_0RL_cd_7963219a43724a61_92000000@@QAE@P6AXPAVomniCallDescriptor@@PAVomniServant@@@ZPBDI_N@Z
??0_0RL_cd_7963219a43724a61_94000000@@QAE@P6AXPAVomniCallDescriptor@@PAVomniServant@@@ZPBDI_N@Z
??0_0RL_cd_7963219a43724a61_98000000@@QAE@P6AXPAVomniCallDescriptor@@PAVomniServant@@@ZPBDI_N@Z
??0_0RL_cd_7963219a43724a61_99000000@@QAE@P6AXPAVomniCallDescriptor@@PAVomniServant@@@ZPBDI_N@Z
??0_0RL_cd_7963219a43724a61_a3000000@@QAE@P6AXPAVomniCallDescriptor@@PAVomniServant@@@ZPBDI_N@Z
??0_0RL_cd_7963219a43724a61_a5000000@@QAE@P6AXPAVomniCallDescriptor@@PAVomniServant@@@ZPBDI_N@Z
??0_0RL_cd_7963219a43724a61_a6000000@@QAE@P6AXPAVomniCallDescriptor@@PAVomniServant@@@ZPBDI_N@Z
??0_0RL_cd_7963219a43724a61_aa000000@@QAE@P6AXPAVomniCallDescriptor@@PAVomniServant@@@ZPBDI_N@Z
??0_0RL_cd_7963219a43724a61_b1000000@@QAE@P6AXPAVomniCallDescriptor@@PAVomniServant@@@ZPBDI_N@Z
??0_0RL_cd_7963219a43724a61_b2000000@@QAE@P6AXPAVomniCallDescriptor@@PAVomniServant@@@ZPBDI_N@Z
??0_0RL_cd_7963219a43724a61_b4000000@@QAE@P6AXPAVomniCallDescriptor@@PAVomniServant@@@ZPBDI_N@Z
??0_0RL_cd_7963219a43724a61_b8000000@@QAE@P6AXPAVomniCallDescriptor@@PAVomniServant@@@ZPBDI_N@Z
??0_0RL_cd_7963219a43724a61_b9000000@@QAE@P6AXPAVomniCallDescriptor@@PAVomniServant@@@ZPBDI_N@Z
??0_0RL_cd_7963219a43724a61_c0000000@@QAE@P6AXPAVomniCallDescriptor@@PAVomniServant@@@ZPBDI_N@Z
??0_0RL_cd_7963219a43724a61_c3000000@@QAE@P6AXPAVomniCallDescriptor@@PAVomniServant@@@ZPBDI_N@Z
??0_0RL_cd_7963219a43724a61_c5000000@@QAE@P6AXPAVomniCallDescriptor@@PAVomniServant@@@ZPBDI_N@Z
??0_0RL_cd_7963219a43724a61_c6000000@@QAE@P6AXPAVomniCallDescriptor@@PAVomniServant@@@ZPBDI_N@Z
??0_0RL_cd_7963219a43724a61_ca000000@@QAE@P6AXPAVomniCallDescriptor@@PAVomniServant@@@ZPBDI_N@Z
??0_0RL_cd_7963219a43724a61_d1000000@@QAE@P6AXPAVomniCallDescriptor@@PAVomniServant@@@ZPBDI_N@Z
??0_0RL_cd_7963219a43724a61_d2000000@@QAE@P6AXPAVomniCallDescriptor@@PAVomniServant@@@ZPBDI_N@Z
??0_0RL_cd_7963219a43724a61_d4000000@@QAE@P6AXPAVomniCallDescriptor@@PAVomniServant@@@ZPBDI_N@Z
??0_0RL_cd_7963219a43724a61_d8000000@@QAE@P6AXPAVomniCallDescriptor@@PAVomniServant@@@ZPBDI_N@Z
??0_0RL_cd_7963219a43724a61_d9000000@@QAE@P6AXPAVomniCallDescriptor@@PAVomniServant@@@ZPBDI_N@Z
??0_0RL_cd_7963219a43724a61_e3000000@@QAE@P6AXPAVomniCallDescriptor@@PAVomniServant@@@ZPBDI_N@Z
??0_0RL_cd_7963219a43724a61_e6000000@@QAE@P6AXPAVomniCallDescriptor@@PAVomniServant@@@ZPBDI_N@Z
??0_0RL_cd_7963219a43724a61_ea000000@@QAE@P6AXPAVomniCallDescriptor@@PAVomniServant@@@ZPBDI_N@Z
??0_0RL_cd_7963219a43724a61_f0000000@@QAE@P6AXPAVomniCallDescriptor@@PAVomniServant@@@ZPBDI_N@Z
??0_0RL_cd_7963219a43724a61_f1000000@@QAE@P6AXPAVomniCallDescriptor@@PAVomniServant@@@ZPBDI_N@Z
??0_0RL_cd_7963219a43724a61_f2000000@@QAE@P6AXPAVomniCallDescriptor@@PAVomniServant@@@ZPBDI_N@Z
??0_0RL_cd_7963219a43724a61_f4000000@@QAE@P6AXPAVomniCallDescriptor@@PAVomniServant@@@ZPBDI_N@Z
??0_0RL_cd_7963219a43724a61_f8000000@@QAE@P6AXPAVomniCallDescriptor@@PAVomniServant@@@ZPBDI_N@Z
??0_0RL_cd_7963219a43724a61_f9000000@@QAE@P6AXPAVomniCallDescriptor@@PAVomniServant@@@ZPBDI_N@Z
??0_0RL_cd_7963219a43724a61_fb000000@@QAE@P6AXPAVomniCallDescriptor@@PAVomniServant@@@ZPBDI_N@Z
??0_0RL_insertToAny_Singleton__cCORBA_mPolicyError@@QAE@XZ
??0_0RL_insertToAny_Singleton__cCORBA_mPollableSet_mNoPossiblePollable@@QAE@XZ
??0_0RL_insertToAny_Singleton__cCORBA_mPollableSet_mUnknownPollable@@QAE@XZ
??0_0RL_insertToAny_Singleton__cCORBA_mUnknownUserException@@QAE@XZ
??0_0RL_insertToAny_Singleton__cCosNaming_mNamingContextExt_mInvalidAddress@@QAE@XZ
??0_0RL_insertToAny_Singleton__cCosNaming_mNamingContext_mAlreadyBound@@QAE@XZ
??0_0RL_insertToAny_Singleton__cCosNaming_mNamingContext_mCannotProceed@@QAE@XZ
??0_0RL_insertToAny_Singleton__cCosNaming_mNamingContext_mInvalidName@@QAE@XZ
??0_0RL_insertToAny_Singleton__cCosNaming_mNamingContext_mNotEmpty@@QAE@XZ
??0_0RL_insertToAny_Singleton__cCosNaming_mNamingContext_mNotFound@@QAE@XZ
??0_0RL_insertToAny_Singleton__cPortableServer_mForwardRequest@@QAE@XZ
??0_0RL_insertToAny_Singleton__cPortableServer_mPOA_mInvalidPolicy@@QAE@XZ
??0_CORBA_Sequence_Boolean@@IAE@ABV0@@Z
??0_CORBA_Sequence_Boolean@@IAE@K_N@Z
??0_CORBA_Sequence_Boolean@@IAE@XZ
??0_CORBA_Sequence_Char@@IAE@ABV0@@Z
??0_CORBA_Sequence_Char@@IAE@K_N@Z
??0_CORBA_Sequence_Char@@IAE@XZ
??0_CORBA_Sequence_Octet@@IAE@ABV0@@Z
??0_CORBA_Sequence_Octet@@IAE@K_N@Z
??0_CORBA_Sequence_Octet@@IAE@XZ
??0_CORBA_Sequence_String@@IAE@ABV0@@Z
??0_CORBA_Sequence_String@@IAE@XZ
??0_CORBA_Sequence_WChar@@IAE@ABV0@@Z
??0_CORBA_Sequence_WChar@@IAE@K_N@Z
??0_CORBA_Sequence_WChar@@IAE@XZ
??0_CORBA_Sequence_WString@@IAE@ABV0@@Z
??0_CORBA_Sequence_WString@@IAE@XZ
??0_CORBA_String_element@@QAE@AAPAD_N@Z
??0_CORBA_String_member@@QAE@ABV0@@Z
??0_CORBA_String_member@@QAE@XZ
??0_CORBA_String_var@@QAE@PAD@Z
??0_CORBA_String_var@@QAE@PBD@Z
??0_CORBA_String_var@@QAE@XZ
??0_CORBA_Unbounded_Sequence_Boolean@@QAE@ABV0@@Z
??0_CORBA_Unbounded_Sequence_Boolean@@QAE@K@Z
??0_CORBA_Unbounded_Sequence_Boolean@@QAE@XZ
??0_CORBA_Unbounded_Sequence_Char@@QAE@ABV0@@Z
??0_CORBA_Unbounded_Sequence_Char@@QAE@K@Z
??0_CORBA_Unbounded_Sequence_Char@@QAE@XZ
??0_CORBA_Unbounded_Sequence_Octet@@QAE@ABV0@@Z
??0_CORBA_Unbounded_Sequence_Octet@@QAE@K@Z
??0_CORBA_Unbounded_Sequence_Octet@@QAE@XZ
??0_CORBA_Unbounded_Sequence_String@@QAE@ABV0@@Z
??0_CORBA_Unbounded_Sequence_String@@QAE@XZ
??0_CORBA_Unbounded_Sequence_WChar@@QAE@ABV0@@Z
??0_CORBA_Unbounded_Sequence_WChar@@QAE@K@Z
??0_CORBA_Unbounded_Sequence_WChar@@QAE@XZ
??0_CORBA_Unbounded_Sequence_WString@@QAE@ABV0@@Z
??0_CORBA_Unbounded_Sequence_WString@@QAE@XZ
??0_CORBA_WString_element@@QAE@AAPA_W_N@Z
??0_Tracker@TypeCode@CORBA@@QAE@PBD@Z
??0_cCORBA_mObject_i_cstring@omniStdCallDesc@@QAE@P6AXPAVomniCallDescriptor@@PAVomniServant@@@ZPBDI3_N@Z
??0_nil_PollableSet@CORBA@@QAE@XZ
??0_objref_AbstractInterfaceDef@CORBA@@QAE@PAVomniIOR@@PAVomniIdentity@@@Z
??0_objref_AbstractInterfaceDef@CORBA@@QAE@XZ
??0_objref_AliasDef@CORBA@@QAE@PAVomniIOR@@PAVomniIdentity@@@Z
??0_objref_AliasDef@CORBA@@QAE@XZ
??0_objref_ArrayDef@CORBA@@QAE@PAVomniIOR@@PAVomniIdentity@@@Z
??0_objref_ArrayDef@CORBA@@QAE@XZ
??0_objref_AttributeDef@CORBA@@QAE@PAVomniIOR@@PAVomniIdentity@@@Z
??0_objref_AttributeDef@CORBA@@QAE@XZ
??0_objref_ConstantDef@CORBA@@QAE@PAVomniIOR@@PAVomniIdentity@@@Z
??0_objref_ConstantDef@CORBA@@QAE@XZ
??0_objref_Contained@CORBA@@QAE@PAVomniIOR@@PAVomniIdentity@@@Z
??0_objref_Contained@CORBA@@QAE@XZ
??0_objref_Container@CORBA@@QAE@PAVomniIOR@@PAVomniIdentity@@@Z
??0_objref_Container@CORBA@@QAE@XZ
??0_objref_EnumDef@CORBA@@QAE@PAVomniIOR@@PAVomniIdentity@@@Z
??0_objref_EnumDef@CORBA@@QAE@XZ
??0_objref_ExceptionDef@CORBA@@QAE@PAVomniIOR@@PAVomniIdentity@@@Z
??0_objref_ExceptionDef@CORBA@@QAE@XZ
??0_objref_FixedDef@CORBA@@QAE@PAVomniIOR@@PAVomniIdentity@@@Z
??0_objref_FixedDef@CORBA@@QAE@XZ
??0_objref_IDLType@CORBA@@QAE@PAVomniIOR@@PAVomniIdentity@@@Z
??0_objref_IDLType@CORBA@@QAE@XZ
??0_objref_IRObject@CORBA@@QAE@PAVomniIOR@@PAVomniIdentity@@@Z
??0_objref_IRObject@CORBA@@QAE@XZ
??0_objref_InterfaceDef@CORBA@@QAE@PAVomniIOR@@PAVomniIdentity@@@Z
??0_objref_InterfaceDef@CORBA@@QAE@XZ
??0_objref_ModuleDef@CORBA@@QAE@PAVomniIOR@@PAVomniIdentity@@@Z
??0_objref_ModuleDef@CORBA@@QAE@XZ
??0_objref_NativeDef@CORBA@@QAE@PAVomniIOR@@PAVomniIdentity@@@Z
??0_objref_NativeDef@CORBA@@QAE@XZ
??0_objref_OperationDef@CORBA@@QAE@PAVomniIOR@@PAVomniIdentity@@@Z
??0_objref_OperationDef@CORBA@@QAE@XZ
??0_objref_PrimitiveDef@CORBA@@QAE@PAVomniIOR@@PAVomniIdentity@@@Z
??0_objref_PrimitiveDef@CORBA@@QAE@XZ
??0_objref_ReplyHandler@Messaging@@QAE@PAVomniIOR@@PAVomniIdentity@@@Z
??0_objref_ReplyHandler@Messaging@@QAE@XZ
??0_objref_Repository@CORBA@@QAE@PAVomniIOR@@PAVomniIdentity@@@Z
??0_objref_Repository@CORBA@@QAE@XZ
??0_objref_SequenceDef@CORBA@@QAE@PAVomniIOR@@PAVomniIdentity@@@Z
??0_objref_SequenceDef@CORBA@@QAE@XZ
??0_objref_StringDef@CORBA@@QAE@PAVomniIOR@@PAVomniIdentity@@@Z
??0_objref_StringDef@CORBA@@QAE@XZ
??0_objref_StructDef@CORBA@@QAE@PAVomniIOR@@PAVomniIdentity@@@Z
??0_objref_StructDef@CORBA@@QAE@XZ
??0_objref_TypedefDef@CORBA@@QAE@PAVomniIOR@@PAVomniIdentity@@@Z
??0_objref_TypedefDef@CORBA@@QAE@XZ
??0_objref_UnionDef@CORBA@@QAE@PAVomniIOR@@PAVomniIdentity@@@Z
??0_objref_UnionDef@CORBA@@QAE@XZ
??0_objref_ValueBoxDef@CORBA@@QAE@PAVomniIOR@@PAVomniIdentity@@@Z
??0_objref_ValueBoxDef@CORBA@@QAE@XZ
??0_objref_ValueDef@CORBA@@QAE@PAVomniIOR@@PAVomniIdentity@@@Z
??0_objref_ValueDef@CORBA@@QAE@XZ
??0_objref_ValueMemberDef@CORBA@@QAE@PAVomniIOR@@PAVomniIdentity@@@Z
??0_objref_ValueMemberDef@CORBA@@QAE@XZ
??0_objref_WstringDef@CORBA@@QAE@PAVomniIOR@@PAVomniIdentity@@@Z
??0_objref_WstringDef@CORBA@@QAE@XZ
??0_pof_AbstractInterfaceDef@CORBA@@QAE@XZ
??0_pof_AliasDef@CORBA@@QAE@XZ
??0_pof_ArrayDef@CORBA@@QAE@XZ
??0_pof_AttributeDef@CORBA@@QAE@XZ
??0_pof_ConstantDef@CORBA@@QAE@XZ
??0_pof_Contained@CORBA@@QAE@XZ
??0_pof_Container@CORBA@@QAE@XZ
??0_pof_EnumDef@CORBA@@QAE@XZ
??0_pof_ExceptionDef@CORBA@@QAE@XZ
??0_pof_FixedDef@CORBA@@QAE@XZ
??0_pof_IDLType@CORBA@@QAE@XZ
??0_pof_IRObject@CORBA@@QAE@XZ
??0_pof_InterfaceDef@CORBA@@QAE@XZ
??0_pof_ModuleDef@CORBA@@QAE@XZ
??0_pof_NativeDef@CORBA@@QAE@XZ
??0_pof_OperationDef@CORBA@@QAE@XZ
??0_pof_PrimitiveDef@CORBA@@QAE@XZ
??0_pof_ReplyHandler@Messaging@@QAE@XZ
??0_pof_Repository@CORBA@@QAE@XZ
??0_pof_SequenceDef@CORBA@@QAE@XZ
??0_pof_StringDef@CORBA@@QAE@XZ
??0_pof_StructDef@CORBA@@QAE@XZ
??0_pof_TypedefDef@CORBA@@QAE@XZ
??0_pof_UnionDef@CORBA@@QAE@XZ
??0_pof_ValueBoxDef@CORBA@@QAE@XZ
??0_pof_ValueDef@CORBA@@QAE@XZ
??0_pof_ValueMemberDef@CORBA@@QAE@XZ
??0_pof_WstringDef@CORBA@@QAE@XZ
??0cdrAnyMemoryStream@@QAE@ABV0@_N@Z
??0cdrAnyMemoryStream@@QAE@PAX_N@Z
??0cdrAnyMemoryStream@@QAE@XZ
??0cdrValueChunkStream@@QAE@AAVcdrStream@@@Z
??0dynException_Singleton@@QAE@XZ
??0from_boolean@Any@CORBA@@QAE@_N@Z
??0from_char@Any@CORBA@@QAE@E@Z
??0from_octet@Any@CORBA@@QAE@E@Z
??0info_T@createPolicy_T@omniInterceptors@omni@@QAE@KABVAny@CORBA@@AAPAVPolicy@5@@Z
??0omniAsyncCallDescriptor@@QAE@P6AXPAVomniCallDescriptor@@PAVomniServant@@@ZPBDI_NPBQBDH@Z
??0omniCallDescriptor@@QAE@P6AXPAV0@PAVomniServant@@@ZPBDI_NPBQBDH4@Z
??0omniDynamicLib_initialiser@omni@@QAE@XZ
??0omniInitialiser@omni@@QAE@XZ
??0omniNilContext@omni@@QAE@XZ
??0omniNilCtList@omni@@QAE@XZ
??0omniNilDynAny@omni@@QAE@XZ
??0omniNilDynAnyFactory@omni@@QAE@XZ
??0omniNilDynArray@omni@@QAE@XZ
??0omniNilDynEnum@omni@@QAE@XZ
??0omniNilDynFixed@omni@@QAE@XZ
??0omniNilDynSequence@omni@@QAE@XZ
??0omniNilDynStruct@omni@@QAE@XZ
??0omniNilDynUnion@omni@@QAE@XZ
??0omniNilDynValue@omni@@QAE@XZ
??0omniNilDynValueBox@omni@@QAE@XZ
??0omniNilDynValueCommon@omni@@QAE@XZ
??0omniNilEnv@omni@@QAE@XZ
??0omniNilExList@omni@@QAE@XZ
??0omniNilNV@omni@@QAE@XZ
??0omniNilNVList@omni@@QAE@XZ
??0omniNilRequest@omni@@QAE@XZ
??0omniNilTypeCodeHolder@omni@@QAE@PAVTypeCode@CORBA@@@Z
??0omniServerRequest@omni@@QAE@AAVomniCallHandle@@@Z
??0omniTask@@QAE@W4Category@0@W4Purpose@0@@Z
??0omniTaskLink@@QAE@XZ
??0omniTrackedObject@omni@@QAE@XZ
??0omniTypeCodeCollection@omni@@QAE@XZ
??0omni_dynAny_initialiser@omni@@QAE@XZ
??0omni_interface_CallDesc@omni@@QAE@PBDH_N@Z
??0omni_mutex_lock@@QAE@AAVomni_mutex@@@Z
??0omni_refcount@@QAE@H@Z
??0omni_time_t@@QAE@KK@Z
??0omni_tracedcondition@@QAE@PAVomni_tracedmutex@@PBD@Z
??0omni_tracedmutex@@QAE@PBD@Z
??0omni_valueFactory_initialiser@omni@@QAE@XZ
??0poaCurrentStackInsert@omni@@QAE@PAVomniCallDescriptor@@PAVomni_thread@@@Z
??0serverRequestCallDescriptor@omni@@QAE@PBDI@Z
??0to_boolean@Any@CORBA@@QAE@AA_N@Z
??0to_char@Any@CORBA@@QAE@AAE@Z
??0to_octet@Any@CORBA@@QAE@AAE@Z
??0to_value@Any@CORBA@@QAE@AAPAVValueBase@2@@Z
??1?$_CORBA_ConstrType_Variable_Var@UDescription@Contained@CORBA@@@@QAE@XZ
??1?$_CORBA_ConstrType_Variable_Var@UFullInterfaceDescription@InterfaceDef@CORBA@@@@QAE@XZ
??1?$_CORBA_ConstrType_Variable_Var@UFullValueDescription@ValueDef@CORBA@@@@QAE@XZ
??1?$_CORBA_ObjRef_Element@VDynAny@DynamicAny@@VDynAny_Helper@2@@@QAE@XZ
??1?$_CORBA_ObjRef_Member@V_objref_Contained@CORBA@@VContained_Helper@2@@@QAE@XZ
??1?$_CORBA_ObjRef_Member@V_objref_IDLType@CORBA@@VIDLType_Helper@2@@@QAE@XZ
??1?$_CORBA_ObjRef_Member@V_objref_NamingContext@CosNaming@@VNamingContext_Helper@2@@@QAE@XZ
??1?$_CORBA_ObjRef_Var@V_objref_AbstractInterfaceDef@CORBA@@VAbstractInterfaceDef_Helper@2@@@QAE@XZ
??1?$_CORBA_ObjRef_Var@V_objref_AliasDef@CORBA@@VAliasDef_Helper@2@@@QAE@XZ
??1?$_CORBA_ObjRef_Var@V_objref_ArrayDef@CORBA@@VArrayDef_Helper@2@@@QAE@XZ
??1?$_CORBA_ObjRef_Var@V_objref_AttributeDef@CORBA@@VAttributeDef_Helper@2@@@QAE@XZ
??1?$_CORBA_ObjRef_Var@V_objref_ConstantDef@CORBA@@VConstantDef_Helper@2@@@QAE@XZ
??1?$_CORBA_ObjRef_Var@V_objref_Contained@CORBA@@VContained_Helper@2@@@QAE@XZ
??1?$_CORBA_ObjRef_Var@V_objref_Container@CORBA@@VContainer_Helper@2@@@QAE@XZ
??1?$_CORBA_ObjRef_Var@V_objref_EnumDef@CORBA@@VEnumDef_Helper@2@@@QAE@XZ
??1?$_CORBA_ObjRef_Var@V_objref_ExceptionDef@CORBA@@VExceptionDef_Helper@2@@@QAE@XZ
??1?$_CORBA_ObjRef_Var@V_objref_FixedDef@CORBA@@VFixedDef_Helper@2@@@QAE@XZ
??1?$_CORBA_ObjRef_Var@V_objref_IDLType@CORBA@@VIDLType_Helper@2@@@QAE@XZ
??1?$_CORBA_ObjRef_Var@V_objref_InterfaceDef@CORBA@@VInterfaceDef_Helper@2@@@QAE@XZ
??1?$_CORBA_ObjRef_Var@V_objref_ModuleDef@CORBA@@VModuleDef_Helper@2@@@QAE@XZ
??1?$_CORBA_ObjRef_Var@V_objref_NativeDef@CORBA@@VNativeDef_Helper@2@@@QAE@XZ
??1?$_CORBA_ObjRef_Var@V_objref_OperationDef@CORBA@@VOperationDef_Helper@2@@@QAE@XZ
??1?$_CORBA_ObjRef_Var@V_objref_PrimitiveDef@CORBA@@VPrimitiveDef_Helper@2@@@QAE@XZ
??1?$_CORBA_ObjRef_Var@V_objref_Repository@CORBA@@VRepository_Helper@2@@@QAE@XZ
??1?$_CORBA_ObjRef_Var@V_objref_SequenceDef@CORBA@@VSequenceDef_Helper@2@@@QAE@XZ
??1?$_CORBA_ObjRef_Var@V_objref_StringDef@CORBA@@VStringDef_Helper@2@@@QAE@XZ
??1?$_CORBA_ObjRef_Var@V_objref_StructDef@CORBA@@VStructDef_Helper@2@@@QAE@XZ
??1?$_CORBA_ObjRef_Var@V_objref_UnionDef@CORBA@@VUnionDef_Helper@2@@@QAE@XZ
??1?$_CORBA_ObjRef_Var@V_objref_ValueBoxDef@CORBA@@VValueBoxDef_Helper@2@@@QAE@XZ
??1?$_CORBA_ObjRef_Var@V_objref_ValueDef@CORBA@@VValueDef_Helper@2@@@QAE@XZ
??1?$_CORBA_ObjRef_Var@V_objref_ValueMemberDef@CORBA@@VValueMemberDef_Helper@2@@@QAE@XZ
??1?$_CORBA_ObjRef_Var@V_objref_WstringDef@CORBA@@VWstringDef_Helper@2@@@QAE@XZ
??1?$_CORBA_PseudoObj_Member@VDynAny@DynamicAny@@V?$_CORBA_PseudoObj_Var@VDynAny@DynamicAny@@@@@@QAE@XZ
??1?$_CORBA_PseudoObj_Member@VPolicy@CORBA@@V?$_CORBA_PseudoObj_Var@VPolicy@CORBA@@@@@@QAE@XZ
??1?$_CORBA_PseudoObj_Var@VContext@CORBA@@@@QAE@XZ
??1?$_CORBA_PseudoObj_Var@VContextList@CORBA@@@@QAE@XZ
??1?$_CORBA_PseudoObj_Var@VDynAny@DynamicAny@@@@QAE@XZ
??1?$_CORBA_PseudoObj_Var@VEnvironment@CORBA@@@@QAE@XZ
??1?$_CORBA_PseudoObj_Var@VExceptionList@CORBA@@@@QAE@XZ
??1?$_CORBA_PseudoObj_Var@VNVList@CORBA@@@@QAE@XZ
??1?$_CORBA_PseudoObj_Var@VNamedValue@CORBA@@@@QAE@XZ
??1?$_CORBA_PseudoValue_Sequence@PAD@@QAE@XZ
??1?$_CORBA_PseudoValue_Sequence@PAVNamedValue@CORBA@@@@QAE@XZ
??1?$_CORBA_PseudoValue_Sequence@PAVTypeCode@CORBA@@@@QAE@XZ
??1?$_CORBA_PseudoValue_Sequence@UEntry@ContextImpl@omni@@@@QAE@XZ
??1?$_CORBA_PseudoValue_Sequence@UTcUnionMember@TypeCode_union@omni@@@@QAE@XZ
??1?$_CORBA_Sequence@E@@QAE@XZ
??1?$_CORBA_Sequence@F@@QAE@XZ
??1?$_CORBA_Sequence@G@@QAE@XZ
??1?$_CORBA_Sequence@J@@QAE@XZ
??1?$_CORBA_Sequence@K@@QAE@XZ
??1?$_CORBA_Sequence@M@@QAE@XZ
??1?$_CORBA_Sequence@N@@QAE@XZ
??1?$_CORBA_Sequence@UAttributeDescription@CORBA@@@@QAE@XZ
??1?$_CORBA_Sequence@UBinding@CosNaming@@@@QAE@XZ
??1?$_CORBA_Sequence@UDescription@Container@CORBA@@@@QAE@XZ
??1?$_CORBA_Sequence@UExceptionDescription@CORBA@@@@QAE@XZ
??1?$_CORBA_Sequence@UInitializer@CORBA@@@@QAE@XZ
??1?$_CORBA_Sequence@UNameComponent@CosNaming@@@@QAE@XZ
??1?$_CORBA_Sequence@UNameValuePair@DynamicAny@@@@QAE@XZ
??1?$_CORBA_Sequence@UOperationDescription@CORBA@@@@QAE@XZ
??1?$_CORBA_Sequence@UParameterDescription@CORBA@@@@QAE@XZ
??1?$_CORBA_Sequence@UStructMember@CORBA@@@@QAE@XZ
??1?$_CORBA_Sequence@UUnionMember@CORBA@@@@QAE@XZ
??1?$_CORBA_Sequence@UValueMember@CORBA@@@@QAE@XZ
??1?$_CORBA_Sequence@VAny@CORBA@@@@QAE@XZ
??1?$_CORBA_Sequence@VTypeCode_member@CORBA@@@@QAE@XZ
??1?$_CORBA_Sequence@_J@@QAE@XZ
??1?$_CORBA_Sequence@_K@@QAE@XZ
??1?$_CORBA_Sequence@_N@@QAE@XZ
??1?$_CORBA_Sequence@_W@@QAE@XZ
??1?$_CORBA_Sequence_ObjRef@V_objref_AbstractInterfaceDef@CORBA@@V?$_CORBA_ObjRef_Element@V_objref_AbstractInterfaceDef@CORBA@@VAbstractInterfaceDef_Helper@2@@@VAbstractInterfaceDef_Helper@2@@@QAE@XZ
??1?$_CORBA_Sequence_ObjRef@V_objref_Contained@CORBA@@V?$_CORBA_ObjRef_Element@V_objref_Contained@CORBA@@VContained_Helper@2@@@VContained_Helper@2@@@QAE@XZ
??1?$_CORBA_Sequence_ObjRef@V_objref_ExceptionDef@CORBA@@V?$_CORBA_ObjRef_Element@V_objref_ExceptionDef@CORBA@@VExceptionDef_Helper@2@@@VExceptionDef_Helper@2@@@QAE@XZ
??1?$_CORBA_Sequence_ObjRef@V_objref_InterfaceDef@CORBA@@V?$_CORBA_ObjRef_Element@V_objref_InterfaceDef@CORBA@@VInterfaceDef_Helper@2@@@VInterfaceDef_Helper@2@@@QAE@XZ
??1?$_CORBA_Sequence_ObjRef@V_objref_ValueDef@CORBA@@V?$_CORBA_ObjRef_Element@V_objref_ValueDef@CORBA@@VValueDef_Helper@2@@@VValueDef_Helper@2@@@QAE@XZ
??1?$_CORBA_Sequence_Value@VPollerImpl@omniAMI@@V?$_CORBA_Value_Element@VPollerImpl@omniAMI@@VPoller_Helper@Messaging@@@@VPoller_Helper@Messaging@@@@QAE@XZ
??1?$_CORBA_Sequence_Value@VValueBase@CORBA@@V?$_CORBA_Value_Element@VValueBase@CORBA@@VValueBase_Helper@2@@@VValueBase_Helper@2@@@QAE@XZ
??1?$_CORBA_Unbounded_Sequence@F@@QAE@XZ
??1?$_CORBA_Unbounded_Sequence@G@@QAE@XZ
??1?$_CORBA_Unbounded_Sequence@J@@QAE@XZ
??1?$_CORBA_Unbounded_Sequence@K@@QAE@XZ
??1?$_CORBA_Unbounded_Sequence@M@@QAE@XZ
??1?$_CORBA_Unbounded_Sequence@N@@QAE@XZ
??1?$_CORBA_Unbounded_Sequence@UAttributeDescription@CORBA@@@@QAE@XZ
??1?$_CORBA_Unbounded_Sequence@UBinding@CosNaming@@@@QAE@XZ
??1?$_CORBA_Unbounded_Sequence@UDescription@Container@CORBA@@@@QAE@XZ
??1?$_CORBA_Unbounded_Sequence@UExceptionDescription@CORBA@@@@QAE@XZ
??1?$_CORBA_Unbounded_Sequence@UInitializer@CORBA@@@@QAE@XZ
??1?$_CORBA_Unbounded_Sequence@UNameComponent@CosNaming@@@@QAE@XZ
??1?$_CORBA_Unbounded_Sequence@UNameValuePair@DynamicAny@@@@QAE@XZ
??1?$_CORBA_Unbounded_Sequence@UOperationDescription@CORBA@@@@QAE@XZ
??1?$_CORBA_Unbounded_Sequence@UParameterDescription@CORBA@@@@QAE@XZ
??1?$_CORBA_Unbounded_Sequence@UStructMember@CORBA@@@@QAE@XZ
??1?$_CORBA_Unbounded_Sequence@UUnionMember@CORBA@@@@QAE@XZ
??1?$_CORBA_Unbounded_Sequence@UValueMember@CORBA@@@@QAE@XZ
??1?$_CORBA_Unbounded_Sequence@VAny@CORBA@@@@QAE@XZ
??1?$_CORBA_Unbounded_Sequence@VTypeCode_member@CORBA@@@@QAE@XZ
??1?$_CORBA_Unbounded_Sequence@_J@@QAE@XZ
??1?$_CORBA_Unbounded_Sequence@_K@@QAE@XZ
??1?$_CORBA_Unbounded_Sequence_ObjRef@V_objref_AbstractInterfaceDef@CORBA@@V?$_CORBA_ObjRef_Element@V_objref_AbstractInterfaceDef@CORBA@@VAbstractInterfaceDef_Helper@2@@@VAbstractInterfaceDef_Helper@2@@@QAE@XZ
??1?$_CORBA_Unbounded_Sequence_ObjRef@V_objref_Contained@CORBA@@V?$_CORBA_ObjRef_Element@V_objref_Contained@CORBA@@VContained_Helper@2@@@VContained_Helper@2@@@QAE@XZ
??1?$_CORBA_Unbounded_Sequence_ObjRef@V_objref_ExceptionDef@CORBA@@V?$_CORBA_ObjRef_Element@V_objref_ExceptionDef@CORBA@@VExceptionDef_Helper@2@@@VExceptionDef_Helper@2@@@QAE@XZ
??1?$_CORBA_Unbounded_Sequence_ObjRef@V_objref_InterfaceDef@CORBA@@V?$_CORBA_ObjRef_Element@V_objref_InterfaceDef@CORBA@@VInterfaceDef_Helper@2@@@VInterfaceDef_Helper@2@@@QAE@XZ
??1?$_CORBA_Unbounded_Sequence_ObjRef@V_objref_ValueDef@CORBA@@V?$_CORBA_ObjRef_Element@V_objref_ValueDef@CORBA@@VValueDef_Helper@2@@@VValueDef_Helper@2@@@QAE@XZ
??1?$_CORBA_Unbounded_Sequence_Value@VPollerImpl@omniAMI@@V?$_CORBA_Value_Element@VPollerImpl@omniAMI@@VPoller_Helper@Messaging@@@@VPoller_Helper@Messaging@@@@QAE@XZ
??1?$_CORBA_Unbounded_Sequence_Value@VValueBase@CORBA@@V?$_CORBA_Value_Element@VValueBase@CORBA@@VValueBase_Helper@2@@@VValueBase_Helper@2@@@QAE@XZ
??1?$_CORBA_Unbounded_Sequence_w_FixSizeElement@F$01$01@@QAE@XZ
??1?$_CORBA_Unbounded_Sequence_w_FixSizeElement@G$01$01@@QAE@XZ
??1?$_CORBA_Unbounded_Sequence_w_FixSizeElement@J$03$03@@QAE@XZ
??1?$_CORBA_Unbounded_Sequence_w_FixSizeElement@K$03$03@@QAE@XZ
??1?$_CORBA_Unbounded_Sequence_w_FixSizeElement@M$03$03@@QAE@XZ
??1?$_CORBA_Unbounded_Sequence_w_FixSizeElement@N$07$07@@QAE@XZ
??1?$_CORBA_Unbounded_Sequence_w_FixSizeElement@_J$07$07@@QAE@XZ
??1?$_CORBA_Unbounded_Sequence_w_FixSizeElement@_K$07$07@@QAE@XZ
??1?$_CORBA_Value_Element@VPollerImpl@omniAMI@@VPoller_Helper@Messaging@@@@QAE@XZ
??1?$_CORBA_Value_Element@VValueBase@CORBA@@VValueBase_Helper@2@@@QAE@XZ
??1?$omnivector@PAVDynAnyImplBase@omni@@@@QAE@XZ
??1AbstractBase@CORBA@@MAE@XZ
??1AbstractInterfaceDef@POA_CORBA@@UAE@XZ
??1AbstractInterfaceDefSeq@CORBA@@QAE@XZ
??1AbstractInterfaceDefSeq_var@CORBA@@QAE@XZ
??1AliasDef@POA_CORBA@@UAE@XZ
??1Any@CORBA@@QAE@XZ
??1AnySeq@CORBA@@QAE@XZ
??1AnySeq@DynamicAny@@QAE@XZ
??1Any_var@CORBA@@QAE@XZ
??1ArrayDef@POA_CORBA@@UAE@XZ
??1AttrDescriptionSeq@CORBA@@QAE@XZ
??1AttributeDef@POA_CORBA@@UAE@XZ
??1AttributeDescription@CORBA@@QAE@XZ
??1BadKind@TypeCode@CORBA@@UAE@XZ
??1Binding@CosNaming@@QAE@XZ
??1BindingList@CosNaming@@QAE@XZ
??1BooleanSeq@CORBA@@QAE@XZ
??1BooleanSeq_var@CORBA@@QAE@XZ
??1Bounds@ContextList@CORBA@@UAE@XZ
??1Bounds@ExceptionList@CORBA@@UAE@XZ
??1Bounds@NVList@CORBA@@UAE@XZ
??1Bounds@TypeCode@CORBA@@UAE@XZ
??1CharSeq@CORBA@@QAE@XZ
??1CharSeq_var@CORBA@@QAE@XZ
??1ConstantDef@POA_CORBA@@UAE@XZ
??1ConstantDescription@CORBA@@QAE@XZ
??1Contained@POA_CORBA@@UAE@XZ
??1ContainedSeq@CORBA@@QAE@XZ
??1ContainedSeq_var@CORBA@@QAE@XZ
??1Container@POA_CORBA@@UAE@XZ
??1Context@CORBA@@UAE@XZ
??1ContextIdSeq@CORBA@@QAE@XZ
??1ContextIdSeq_var@CORBA@@QAE@XZ
??1ContextImpl@omni@@UAE@XZ
??1ContextList@CORBA@@UAE@XZ
??1ContextListImpl@omni@@UAE@XZ
??1DIICallDescriptor@omni@@UAE@XZ
??1DIIPollable@CORBA@@MAE@XZ
??1DIIPollableImpl@omniAMI@@UAE@XZ
??1DefaultValueRefCountBase@CORBA@@MAE@XZ
??1Description@Contained@CORBA@@QAE@XZ
??1Description@Container@CORBA@@QAE@XZ
??1DescriptionSeq@Container@CORBA@@QAE@XZ
??1DescriptionSeq_var@Container@CORBA@@QAE@XZ
??1DoubleSeq@CORBA@@QAE@XZ
??1DoubleSeq_var@CORBA@@QAE@XZ
??1DynAny@DynamicAny@@MAE@XZ
??1DynAnyConstrBase@omni@@UAE@XZ
??1DynAnyFactory@DynamicAny@@UAE@XZ
??1DynAnyFactoryImpl@omni@@UAE@XZ
??1DynAnyImpl@omni@@UAE@XZ
??1DynAnyImplBase@omni@@UAE@XZ
??1DynArray@DynamicAny@@UAE@XZ
??1DynArrayImpl@omni@@UAE@XZ
??1DynEnum@DynamicAny@@UAE@XZ
??1DynEnumImpl@omni@@UAE@XZ
??1DynFixed@DynamicAny@@UAE@XZ
??1DynFixedImpl@omni@@UAE@XZ
??1DynSequence@DynamicAny@@UAE@XZ
??1DynSequenceImpl@omni@@UAE@XZ
??1DynStruct@DynamicAny@@UAE@XZ
??1DynStructImpl@omni@@UAE@XZ
??1DynUnion@DynamicAny@@UAE@XZ
??1DynUnionDisc@omni@@UAE@XZ
??1DynUnionEnumDisc@omni@@UAE@XZ
??1DynUnionImpl@omni@@UAE@XZ
??1DynValue@DynamicAny@@UAE@XZ
??1DynValueBox@DynamicAny@@UAE@XZ
??1DynValueBoxImpl@omni@@UAE@XZ
??1DynValueCommon@DynamicAny@@UAE@XZ
??1DynValueImpl@omni@@UAE@XZ
??1DynamicImplementation@PortableServer@@UAE@XZ
??1Entry@omniTypeCodeCollection@omni@@QAE@XZ
??1EnumDef@POA_CORBA@@UAE@XZ
??1EnumMemberSeq@CORBA@@QAE@XZ
??1EnumMemberSeq_var@CORBA@@QAE@XZ
??1Environment@CORBA@@UAE@XZ
??1EnvironmentImpl@omni@@UAE@XZ
??1ExcDescriptionSeq@CORBA@@QAE@XZ
??1ExceptionDef@POA_CORBA@@UAE@XZ
??1ExceptionDefSeq@CORBA@@QAE@XZ
??1ExceptionDefSeq_var@CORBA@@QAE@XZ
??1ExceptionDescription@CORBA@@QAE@XZ
??1ExceptionHolder@Messaging@@MAE@XZ
??1ExceptionHolder@OBV_Messaging@@MAE@XZ
??1ExceptionHolder@omniAMI@@UAE@XZ
??1ExceptionList@CORBA@@UAE@XZ
??1ExceptionListImpl@omni@@UAE@XZ
??1FixedDef@POA_CORBA@@UAE@XZ
??1FloatSeq@CORBA@@QAE@XZ
??1FloatSeq_var@CORBA@@QAE@XZ
??1FromAnyUserException@omni@@UAE@XZ
??1FullInterfaceDescription@InterfaceDef@CORBA@@QAE@XZ
??1FullValueDescription@ValueDef@CORBA@@QAE@XZ
??1HolderU@omniCodeSetUtil@omni@@QAE@XZ
??1IDLType@POA_CORBA@@UAE@XZ
??1IRObject@POA_CORBA@@UAE@XZ
??1InconsistentTypeCode@DynAnyFactory@DynamicAny@@UAE@XZ
??1InconsistentTypeCode@ORB@CORBA@@UAE@XZ
??1Initializer@CORBA@@QAE@XZ
??1InitializerSeq@CORBA@@QAE@XZ
??1InitializerSeq_var@CORBA@@QAE@XZ
??1InputValueTracker@omni@@UAE@XZ
??1InterfaceDef@POA_CORBA@@UAE@XZ
??1InterfaceDefSeq@CORBA@@QAE@XZ
??1InterfaceDefSeq_var@CORBA@@QAE@XZ
??1InterfaceDescription@CORBA@@QAE@XZ
??1InvalidValue@DynAny@DynamicAny@@UAE@XZ
??1LongLongSeq@CORBA@@QAE@XZ
??1LongLongSeq_var@CORBA@@QAE@XZ
??1LongSeq@CORBA@@QAE@XZ
??1LongSeq_var@CORBA@@QAE@XZ
??1ModuleDef@POA_CORBA@@UAE@XZ
??1ModuleDescription@CORBA@@QAE@XZ
??1NVList@CORBA@@UAE@XZ
??1NVListImpl@omni@@UAE@XZ
??1Name@CosNaming@@QAE@XZ
??1NameComponent@CosNaming@@QAE@XZ
??1NameDynAnyPair@DynamicAny@@QAE@XZ
??1NameValuePair@DynamicAny@@QAE@XZ
??1NameValuePairSeq@DynamicAny@@QAE@XZ
??1NamedValue@CORBA@@UAE@XZ
??1NamedValueImpl@omni@@UAE@XZ
??1NativeDef@POA_CORBA@@UAE@XZ
??1NoPossiblePollable@PollableSet@CORBA@@UAE@XZ
??1ObjIdList@CORBA_InitialReferences@@QAE@XZ
??1ObjectId@PortableServer@@QAE@XZ
??1Object_Member@CORBA@@QAE@XZ
??1Object_var@CORBA@@QAE@XZ
??1OctetSeq@CORBA@@QAE@XZ
??1OctetSeq_var@CORBA@@QAE@XZ
??1OpDescriptionSeq@CORBA@@QAE@XZ
??1OperationDef@POA_CORBA@@UAE@XZ
??1OperationDescription@CORBA@@QAE@XZ
??1OutputValueTracker@omni@@UAE@XZ
??1ParDescriptionSeq@CORBA@@QAE@XZ
??1ParDescriptionSeq_var@CORBA@@QAE@XZ
??1ParameterDescription@CORBA@@QAE@XZ
??1Pollable@CORBA@@MAE@XZ
??1PollableSet@CORBA@@MAE@XZ
??1PollableSetImpl@omniAMI@@UAE@XZ
??1Poller@Messaging@@MAE@XZ
??1PollerImpl@omniAMI@@UAE@XZ
??1PrimitiveDef@POA_CORBA@@UAE@XZ
??1PseudoObjBase@omni@@UAE@XZ
??1ReplyHandler@POA_Messaging@@UAE@XZ
??1Repository@POA_CORBA@@UAE@XZ
??1RepositoryIdSeq@CORBA@@QAE@XZ
??1Request@CORBA@@UAE@XZ
??1RequestImpl@omni@@UAE@XZ
??1SequenceDef@POA_CORBA@@UAE@XZ
??1ServerRequest@CORBA@@MAE@XZ
??1ServiceContext@IOP@@QAE@XZ
??1ShortSeq@CORBA@@QAE@XZ
??1ShortSeq_var@CORBA@@QAE@XZ
??1StringDef@POA_CORBA@@UAE@XZ
??1StringSeq@CORBA@@QAE@XZ
??1StringValue@CORBA@@MAE@XZ
??1StructDef@POA_CORBA@@UAE@XZ
??1StructMember@CORBA@@QAE@XZ
??1StructMemberSeq@CORBA@@QAE@XZ
??1StructMemberSeq_var@CORBA@@QAE@XZ
??1TaggedComponent@IOP@@QAE@XZ
??1TaggedProfile@IOP@@QAE@XZ
??1TcUnionMember@TypeCode_union@omni@@QAE@XZ
??1TypeCode@CORBA@@UAE@XZ
??1TypeCodeSeq@omniTypedefs@@QAE@XZ
??1TypeCode_abstract_interface@omni@@UAE@XZ
??1TypeCode_alias@omni@@UAE@XZ
??1TypeCode_alignTable@omni@@QAE@XZ
??1TypeCode_array@omni@@UAE@XZ
??1TypeCode_base@omni@@UAE@XZ
??1TypeCode_enum@omni@@UAE@XZ
??1TypeCode_except@omni@@UAE@XZ
??1TypeCode_fixed@omni@@UAE@XZ
??1TypeCode_indirect@omni@@UAE@XZ
??1TypeCode_local_interface@omni@@UAE@XZ
??1TypeCode_member@CORBA@@QAE@XZ
??1TypeCode_objref@omni@@UAE@XZ
??1TypeCode_offsetTable@omni@@QAE@XZ
??1TypeCode_sequence@omni@@UAE@XZ
??1TypeCode_string@omni@@UAE@XZ
??1TypeCode_struct@omni@@UAE@XZ
??1TypeCode_union@omni@@UAE@XZ
??1TypeCode_value@omni@@UAE@XZ
??1TypeCode_value_box@omni@@UAE@XZ
??1TypeCode_var@CORBA@@QAE@XZ
??1TypeCode_wstring@omni@@UAE@XZ
??1TypeDescription@CORBA@@QAE@XZ
??1TypeMismatch@DynAny@DynamicAny@@UAE@XZ
??1TypedefDef@POA_CORBA@@UAE@XZ
??1ULongLongSeq@CORBA@@QAE@XZ
??1ULongLongSeq_var@CORBA@@QAE@XZ
??1ULongSeq@CORBA@@QAE@XZ
??1ULongSeq_var@CORBA@@QAE@XZ
??1UShortSeq@CORBA@@QAE@XZ
??1UShortSeq_var@CORBA@@QAE@XZ
??1UnionDef@POA_CORBA@@UAE@XZ
??1UnionMember@CORBA@@QAE@XZ
??1UnionMemberSeq@CORBA@@QAE@XZ
??1UnionMemberSeq_var@CORBA@@QAE@XZ
??1UnknownPollable@PollableSet@CORBA@@UAE@XZ
??1UnknownUserException@CORBA@@UAE@XZ
??1UnknownValue@omni@@UAE@XZ
??1ValueBase@CORBA@@MAE@XZ
??1ValueBaseSeq@omniTypedefs@@QAE@XZ
??1ValueBaseSeq_var@omniTypedefs@@QAE@XZ
??1ValueBase_var@CORBA@@QAE@XZ
??1ValueBoxDef@POA_CORBA@@UAE@XZ
??1ValueDef@POA_CORBA@@UAE@XZ
??1ValueDefSeq@CORBA@@QAE@XZ
??1ValueDefSeq_var@CORBA@@QAE@XZ
??1ValueDescription@CORBA@@QAE@XZ
??1ValueFactoryBase@CORBA@@UAE@XZ
??1ValueMember@CORBA@@QAE@XZ
??1ValueMemberDef@POA_CORBA@@UAE@XZ
??1ValueMemberSeq@CORBA@@QAE@XZ
??1ValueRefCountBase@PortableServer@@MAE@XZ
??1WCharSeq@CORBA@@QAE@XZ
??1WCharSeq_var@CORBA@@QAE@XZ
??1WStringSeq@CORBA@@QAE@XZ
??1WStringValue@CORBA@@MAE@XZ
??1WrongTransaction@CORBA@@UAE@XZ
??1WstringDef@POA_CORBA@@UAE@XZ
??1_0RL_CORBA_StringValue_init@@UAE@XZ
??1_0RL_CORBA_StringValue_install@@QAE@XZ
??1_0RL_CORBA_WStringValue_init@@UAE@XZ
??1_0RL_CORBA_WStringValue_install@@QAE@XZ
??1_0RL_cd_7963219a43724a61_00000000@@UAE@XZ
??1_0RL_cd_7963219a43724a61_04000000@@UAE@XZ
??1_0RL_cd_7963219a43724a61_06000000@@UAE@XZ
??1_0RL_cd_7963219a43724a61_08000000@@UAE@XZ
??1_0RL_cd_7963219a43724a61_0b000000@@UAE@XZ
??1_0RL_cd_7963219a43724a61_11000000@@UAE@XZ
??1_0RL_cd_7963219a43724a61_12000000@@UAE@XZ
??1_0RL_cd_7963219a43724a61_13000000@@UAE@XZ
??1_0RL_cd_7963219a43724a61_15000000@@UAE@XZ
??1_0RL_cd_7963219a43724a61_19000000@@UAE@XZ
??1_0RL_cd_7963219a43724a61_1a000000@@UAE@XZ
??1_0RL_cd_7963219a43724a61_1c000000@@UAE@XZ
??1_0RL_cd_7963219a43724a61_20000000@@UAE@XZ
??1_0RL_cd_7963219a43724a61_24000000@@UAE@XZ
??1_0RL_cd_7963219a43724a61_26000000@@UAE@XZ
??1_0RL_cd_7963219a43724a61_28000000@@UAE@XZ
??1_0RL_cd_7963219a43724a61_2b000000@@UAE@XZ
??1_0RL_cd_7963219a43724a61_31000000@@UAE@XZ
??1_0RL_cd_7963219a43724a61_32000000@@UAE@XZ
??1_0RL_cd_7963219a43724a61_33000000@@UAE@XZ
??1_0RL_cd_7963219a43724a61_39000000@@UAE@XZ
??1_0RL_cd_7963219a43724a61_40000000@@UAE@XZ
??1_0RL_cd_7963219a43724a61_44000000@@UAE@XZ
??1_0RL_cd_7963219a43724a61_46000000@@UAE@XZ
??1_0RL_cd_7963219a43724a61_4b000000@@UAE@XZ
??1_0RL_cd_7963219a43724a61_51000000@@UAE@XZ
??1_0RL_cd_7963219a43724a61_52000000@@UAE@XZ
??1_0RL_cd_7963219a43724a61_53000000@@UAE@XZ
??1_0RL_cd_7963219a43724a61_59000000@@UAE@XZ
??1_0RL_cd_7963219a43724a61_60000000@@UAE@XZ
??1_0RL_cd_7963219a43724a61_65000000@@UAE@XZ
??1_0RL_cd_7963219a43724a61_6b000000@@UAE@XZ
??1_0RL_cd_7963219a43724a61_71000000@@UAE@XZ
??1_0RL_cd_7963219a43724a61_72000000@@UAE@XZ
??1_0RL_cd_7963219a43724a61_74000000@@UAE@XZ
??1_0RL_cd_7963219a43724a61_78000000@@UAE@XZ
??1_0RL_cd_7963219a43724a61_79000000@@UAE@XZ
??1_0RL_cd_7963219a43724a61_83000000@@UAE@XZ
??1_0RL_cd_7963219a43724a61_85000000@@UAE@XZ
??1_0RL_cd_7963219a43724a61_86000000@@UAE@XZ
??1_0RL_cd_7963219a43724a61_8b000000@@UAE@XZ
??1_0RL_cd_7963219a43724a61_91000000@@UAE@XZ
??1_0RL_cd_7963219a43724a61_92000000@@UAE@XZ
??1_0RL_cd_7963219a43724a61_94000000@@UAE@XZ
??1_0RL_cd_7963219a43724a61_98000000@@UAE@XZ
??1_0RL_cd_7963219a43724a61_99000000@@UAE@XZ
??1_0RL_cd_7963219a43724a61_a3000000@@UAE@XZ
??1_0RL_cd_7963219a43724a61_a5000000@@UAE@XZ
??1_0RL_cd_7963219a43724a61_a6000000@@UAE@XZ
??1_0RL_cd_7963219a43724a61_aa000000@@UAE@XZ
??1_0RL_cd_7963219a43724a61_b1000000@@UAE@XZ
??1_0RL_cd_7963219a43724a61_b2000000@@UAE@XZ
??1_0RL_cd_7963219a43724a61_b4000000@@UAE@XZ
??1_0RL_cd_7963219a43724a61_b8000000@@UAE@XZ
??1_0RL_cd_7963219a43724a61_b9000000@@UAE@XZ
??1_0RL_cd_7963219a43724a61_c0000000@@UAE@XZ
??1_0RL_cd_7963219a43724a61_c3000000@@UAE@XZ
??1_0RL_cd_7963219a43724a61_c5000000@@UAE@XZ
??1_0RL_cd_7963219a43724a61_c6000000@@UAE@XZ
??1_0RL_cd_7963219a43724a61_ca000000@@UAE@XZ
??1_0RL_cd_7963219a43724a61_d1000000@@UAE@XZ
??1_0RL_cd_7963219a43724a61_d2000000@@UAE@XZ
??1_0RL_cd_7963219a43724a61_d4000000@@UAE@XZ
??1_0RL_cd_7963219a43724a61_d8000000@@UAE@XZ
??1_0RL_cd_7963219a43724a61_d9000000@@UAE@XZ
??1_0RL_cd_7963219a43724a61_e3000000@@UAE@XZ
??1_0RL_cd_7963219a43724a61_e6000000@@UAE@XZ
??1_0RL_cd_7963219a43724a61_ea000000@@UAE@XZ
??1_0RL_cd_7963219a43724a61_f0000000@@UAE@XZ
??1_0RL_cd_7963219a43724a61_f1000000@@UAE@XZ
??1_0RL_cd_7963219a43724a61_f2000000@@UAE@XZ
??1_0RL_cd_7963219a43724a61_f4000000@@UAE@XZ
??1_0RL_cd_7963219a43724a61_f8000000@@UAE@XZ
??1_0RL_cd_7963219a43724a61_f9000000@@UAE@XZ
??1_0RL_cd_7963219a43724a61_fb000000@@UAE@XZ
??1_CORBA_Sequence_Boolean@@IAE@XZ
??1_CORBA_Sequence_Char@@IAE@XZ
??1_CORBA_Sequence_Octet@@IAE@XZ
??1_CORBA_Sequence_String@@QAE@XZ
??1_CORBA_Sequence_WChar@@IAE@XZ
??1_CORBA_Sequence_WString@@QAE@XZ
??1_CORBA_String_element@@QAE@XZ
??1_CORBA_String_member@@QAE@XZ
??1_CORBA_String_var@@QAE@XZ
??1_CORBA_Unbounded_Sequence_Boolean@@QAE@XZ
??1_CORBA_Unbounded_Sequence_Char@@QAE@XZ
??1_CORBA_Unbounded_Sequence_Octet@@QAE@XZ
??1_CORBA_Unbounded_Sequence_String@@QAE@XZ
??1_CORBA_Unbounded_Sequence_WChar@@QAE@XZ
??1_CORBA_Unbounded_Sequence_WString@@QAE@XZ
??1_CORBA_WString_element@@QAE@XZ
??1_Tracker@TypeCode@CORBA@@QAE@XZ
??1_cCORBA_mObject_i_cstring@omniStdCallDesc@@UAE@XZ
??1_impl_AbstractInterfaceDef@CORBA@@UAE@XZ
??1_impl_AliasDef@CORBA@@UAE@XZ
??1_impl_ArrayDef@CORBA@@UAE@XZ
??1_impl_AttributeDef@CORBA@@UAE@XZ
??1_impl_ConstantDef@CORBA@@UAE@XZ
??1_impl_Contained@CORBA@@UAE@XZ
??1_impl_Container@CORBA@@UAE@XZ
??1_impl_EnumDef@CORBA@@UAE@XZ
??1_impl_ExceptionDef@CORBA@@UAE@XZ
??1_impl_FixedDef@CORBA@@UAE@XZ
??1_impl_IDLType@CORBA@@UAE@XZ
??1_impl_IRObject@CORBA@@UAE@XZ
??1_impl_InterfaceDef@CORBA@@UAE@XZ
??1_impl_ModuleDef@CORBA@@UAE@XZ
??1_impl_NativeDef@CORBA@@UAE@XZ
??1_impl_OperationDef@CORBA@@UAE@XZ
??1_impl_PrimitiveDef@CORBA@@UAE@XZ
??1_impl_ReplyHandler@Messaging@@UAE@XZ
??1_impl_Repository@CORBA@@UAE@XZ
??1_impl_SequenceDef@CORBA@@UAE@XZ
??1_impl_StringDef@CORBA@@UAE@XZ
??1_impl_StructDef@CORBA@@UAE@XZ
??1_impl_TypedefDef@CORBA@@UAE@XZ
??1_impl_UnionDef@CORBA@@UAE@XZ
??1_impl_ValueBoxDef@CORBA@@UAE@XZ
??1_impl_ValueDef@CORBA@@UAE@XZ
??1_impl_ValueMemberDef@CORBA@@UAE@XZ
??1_impl_WstringDef@CORBA@@UAE@XZ
??1_nil_PollableSet@CORBA@@MAE@XZ
??1_objref_AbstractInterfaceDef@CORBA@@MAE@XZ
??1_objref_AliasDef@CORBA@@MAE@XZ
??1_objref_ArrayDef@CORBA@@MAE@XZ
??1_objref_AttributeDef@CORBA@@MAE@XZ
??1_objref_ConstantDef@CORBA@@MAE@XZ
??1_objref_Contained@CORBA@@MAE@XZ
??1_objref_Container@CORBA@@MAE@XZ
??1_objref_EnumDef@CORBA@@MAE@XZ
??1_objref_ExceptionDef@CORBA@@MAE@XZ
??1_objref_FixedDef@CORBA@@MAE@XZ
??1_objref_IDLType@CORBA@@MAE@XZ
??1_objref_IRObject@CORBA@@MAE@XZ
??1_objref_InterfaceDef@CORBA@@MAE@XZ
??1_objref_ModuleDef@CORBA@@MAE@XZ
??1_objref_NativeDef@CORBA@@MAE@XZ
??1_objref_OperationDef@CORBA@@MAE@XZ
??1_objref_PrimitiveDef@CORBA@@MAE@XZ
??1_objref_ReplyHandler@Messaging@@MAE@XZ
??1_objref_Repository@CORBA@@MAE@XZ
??1_objref_SequenceDef@CORBA@@MAE@XZ
??1_objref_StringDef@CORBA@@MAE@XZ
??1_objref_StructDef@CORBA@@MAE@XZ
??1_objref_TypedefDef@CORBA@@MAE@XZ
??1_objref_UnionDef@CORBA@@MAE@XZ
??1_objref_ValueBoxDef@CORBA@@MAE@XZ
??1_objref_ValueDef@CORBA@@MAE@XZ
??1_objref_ValueMemberDef@CORBA@@MAE@XZ
??1_objref_WstringDef@CORBA@@MAE@XZ
??1_pof_AbstractInterfaceDef@CORBA@@UAE@XZ
??1_pof_AliasDef@CORBA@@UAE@XZ
??1_pof_ArrayDef@CORBA@@UAE@XZ
??1_pof_AttributeDef@CORBA@@UAE@XZ
??1_pof_ConstantDef@CORBA@@UAE@XZ
??1_pof_Contained@CORBA@@UAE@XZ
??1_pof_Container@CORBA@@UAE@XZ
??1_pof_EnumDef@CORBA@@UAE@XZ
??1_pof_ExceptionDef@CORBA@@UAE@XZ
??1_pof_FixedDef@CORBA@@UAE@XZ
??1_pof_IDLType@CORBA@@UAE@XZ
??1_pof_IRObject@CORBA@@UAE@XZ
??1_pof_InterfaceDef@CORBA@@UAE@XZ
??1_pof_ModuleDef@CORBA@@UAE@XZ
??1_pof_NativeDef@CORBA@@UAE@XZ
??1_pof_OperationDef@CORBA@@UAE@XZ
??1_pof_PrimitiveDef@CORBA@@UAE@XZ
??1_pof_ReplyHandler@Messaging@@UAE@XZ
??1_pof_Repository@CORBA@@UAE@XZ
??1_pof_SequenceDef@CORBA@@UAE@XZ
??1_pof_StringDef@CORBA@@UAE@XZ
??1_pof_StructDef@CORBA@@UAE@XZ
??1_pof_TypedefDef@CORBA@@UAE@XZ
??1_pof_UnionDef@CORBA@@UAE@XZ
??1_pof_ValueBoxDef@CORBA@@UAE@XZ
??1_pof_ValueDef@CORBA@@UAE@XZ
??1_pof_ValueMemberDef@CORBA@@UAE@XZ
??1_pof_WstringDef@CORBA@@UAE@XZ
??1cdrAnyMemoryStream@@UAE@XZ
??1cdrEncapsulationStream@@UAE@XZ
??1dynException_Singleton@@QAE@XZ
??1fatalException@omniORB@@QAE@XZ
??1omniCallDescriptor@@UAE@XZ
??1omniNilContext@omni@@UAE@XZ
??1omniNilCtList@omni@@UAE@XZ
??1omniNilDynAny@omni@@UAE@XZ
??1omniNilDynAnyFactory@omni@@UAE@XZ
??1omniNilDynArray@omni@@UAE@XZ
??1omniNilDynEnum@omni@@UAE@XZ
??1omniNilDynFixed@omni@@UAE@XZ
??1omniNilDynSequence@omni@@UAE@XZ
??1omniNilDynStruct@omni@@UAE@XZ
??1omniNilDynUnion@omni@@UAE@XZ
??1omniNilDynValue@omni@@UAE@XZ
??1omniNilDynValueBox@omni@@UAE@XZ
??1omniNilDynValueCommon@omni@@UAE@XZ
??1omniNilEnv@omni@@UAE@XZ
??1omniNilExList@omni@@UAE@XZ
??1omniNilNV@omni@@UAE@XZ
??1omniNilNVList@omni@@UAE@XZ
??1omniNilRequest@omni@@UAE@XZ
??1omniNilTypeCodeHolder@omni@@UAE@XZ
??1omniServerRequest@omni@@UAE@XZ
??1omniTask@@UAE@XZ
??1omniTrackedObject@omni@@UAE@XZ
??1omniTypeCodeCollection@omni@@UAE@XZ
??1omni_interface_CallDesc@omni@@UAE@XZ
??1omni_mutex_lock@@QAE@XZ
??1omni_refcount@@QAE@XZ
??1omni_tracedcondition@@QAE@XZ
??1omni_tracedmutex@@QAE@XZ
??1poaCurrentStackInsert@omni@@QAE@XZ
??1serverRequestCallDescriptor@omni@@UAE@XZ
??4?$_CORBA_ConstrType_Variable_Var@UDescription@Contained@CORBA@@@@QAEAAV0@PAUDescription@Contained@CORBA@@@Z
??4?$_CORBA_ConstrType_Variable_Var@UFullInterfaceDescription@InterfaceDef@CORBA@@@@QAEAAV0@PAUFullInterfaceDescription@InterfaceDef@CORBA@@@Z
??4?$_CORBA_ConstrType_Variable_Var@UFullValueDescription@ValueDef@CORBA@@@@QAEAAV0@PAUFullValueDescription@ValueDef@CORBA@@@Z
??4?$_CORBA_ObjRef_Element@VDynAny@DynamicAny@@VDynAny_Helper@2@@@QAEAAV0@PAVDynAny@DynamicAny@@@Z
??4?$_CORBA_ObjRef_Member@V_objref_Contained@CORBA@@VContained_Helper@2@@@QAEAAV0@ABV0@@Z
??4?$_CORBA_ObjRef_Member@V_objref_Contained@CORBA@@VContained_Helper@2@@@QAEAAV0@PAV_objref_Contained@CORBA@@@Z
??4?$_CORBA_ObjRef_Member@V_objref_IDLType@CORBA@@VIDLType_Helper@2@@@QAEAAV0@ABV0@@Z
??4?$_CORBA_ObjRef_Member@V_objref_IDLType@CORBA@@VIDLType_Helper@2@@@QAEAAV0@PAV_objref_IDLType@CORBA@@@Z
??4?$_CORBA_ObjRef_Var@V_objref_AbstractInterfaceDef@CORBA@@VAbstractInterfaceDef_Helper@2@@@QAEAAV0@PAV_objref_AbstractInterfaceDef@CORBA@@@Z
??4?$_CORBA_ObjRef_Var@V_objref_AliasDef@CORBA@@VAliasDef_Helper@2@@@QAEAAV0@PAV_objref_AliasDef@CORBA@@@Z
??4?$_CORBA_ObjRef_Var@V_objref_ArrayDef@CORBA@@VArrayDef_Helper@2@@@QAEAAV0@PAV_objref_ArrayDef@CORBA@@@Z
??4?$_CORBA_ObjRef_Var@V_objref_AttributeDef@CORBA@@VAttributeDef_Helper@2@@@QAEAAV0@PAV_objref_AttributeDef@CORBA@@@Z
??4?$_CORBA_ObjRef_Var@V_objref_ConstantDef@CORBA@@VConstantDef_Helper@2@@@QAEAAV0@PAV_objref_ConstantDef@CORBA@@@Z
??4?$_CORBA_ObjRef_Var@V_objref_Contained@CORBA@@VContained_Helper@2@@@QAEAAV0@PAV_objref_Contained@CORBA@@@Z
??4?$_CORBA_ObjRef_Var@V_objref_Container@CORBA@@VContainer_Helper@2@@@QAEAAV0@PAV_objref_Container@CORBA@@@Z
??4?$_CORBA_ObjRef_Var@V_objref_EnumDef@CORBA@@VEnumDef_Helper@2@@@QAEAAV0@PAV_objref_EnumDef@CORBA@@@Z
??4?$_CORBA_ObjRef_Var@V_objref_ExceptionDef@CORBA@@VExceptionDef_Helper@2@@@QAEAAV0@PAV_objref_ExceptionDef@CORBA@@@Z
??4?$_CORBA_ObjRef_Var@V_objref_FixedDef@CORBA@@VFixedDef_Helper@2@@@QAEAAV0@PAV_objref_FixedDef@CORBA@@@Z
??4?$_CORBA_ObjRef_Var@V_objref_IDLType@CORBA@@VIDLType_Helper@2@@@QAEAAV0@PAV_objref_IDLType@CORBA@@@Z
??4?$_CORBA_ObjRef_Var@V_objref_InterfaceDef@CORBA@@VInterfaceDef_Helper@2@@@QAEAAV0@PAV_objref_InterfaceDef@CORBA@@@Z
??4?$_CORBA_ObjRef_Var@V_objref_ModuleDef@CORBA@@VModuleDef_Helper@2@@@QAEAAV0@PAV_objref_ModuleDef@CORBA@@@Z
??4?$_CORBA_ObjRef_Var@V_objref_NativeDef@CORBA@@VNativeDef_Helper@2@@@QAEAAV0@PAV_objref_NativeDef@CORBA@@@Z
??4?$_CORBA_ObjRef_Var@V_objref_OperationDef@CORBA@@VOperationDef_Helper@2@@@QAEAAV0@PAV_objref_OperationDef@CORBA@@@Z
??4?$_CORBA_ObjRef_Var@V_objref_PrimitiveDef@CORBA@@VPrimitiveDef_Helper@2@@@QAEAAV0@PAV_objref_PrimitiveDef@CORBA@@@Z
??4?$_CORBA_ObjRef_Var@V_objref_Repository@CORBA@@VRepository_Helper@2@@@QAEAAV0@PAV_objref_Repository@CORBA@@@Z
??4?$_CORBA_ObjRef_Var@V_objref_SequenceDef@CORBA@@VSequenceDef_Helper@2@@@QAEAAV0@PAV_objref_SequenceDef@CORBA@@@Z
??4?$_CORBA_ObjRef_Var@V_objref_StringDef@CORBA@@VStringDef_Helper@2@@@QAEAAV0@PAV_objref_StringDef@CORBA@@@Z
??4?$_CORBA_ObjRef_Var@V_objref_StructDef@CORBA@@VStructDef_Helper@2@@@QAEAAV0@PAV_objref_StructDef@CORBA@@@Z
??4?$_CORBA_ObjRef_Var@V_objref_UnionDef@CORBA@@VUnionDef_Helper@2@@@QAEAAV0@PAV_objref_UnionDef@CORBA@@@Z
??4?$_CORBA_ObjRef_Var@V_objref_ValueBoxDef@CORBA@@VValueBoxDef_Helper@2@@@QAEAAV0@PAV_objref_ValueBoxDef@CORBA@@@Z
??4?$_CORBA_ObjRef_Var@V_objref_ValueDef@CORBA@@VValueDef_Helper@2@@@QAEAAV0@PAV_objref_ValueDef@CORBA@@@Z
??4?$_CORBA_ObjRef_Var@V_objref_ValueMemberDef@CORBA@@VValueMemberDef_Helper@2@@@QAEAAV0@PAV_objref_ValueMemberDef@CORBA@@@Z
??4?$_CORBA_ObjRef_Var@V_objref_WstringDef@CORBA@@VWstringDef_Helper@2@@@QAEAAV0@PAV_objref_WstringDef@CORBA@@@Z
??4?$_CORBA_PseudoObj_Member@VDynAny@DynamicAny@@V?$_CORBA_PseudoObj_Var@VDynAny@DynamicAny@@@@@@QAEAAV0@ABV0@@Z
??4?$_CORBA_PseudoObj_Member@VDynAny@DynamicAny@@V?$_CORBA_PseudoObj_Var@VDynAny@DynamicAny@@@@@@QAEAAV0@PAVDynAny@DynamicAny@@@Z
??4?$_CORBA_PseudoObj_Out@VContext@CORBA@@V?$_CORBA_PseudoObj_Var@VContext@CORBA@@@@@@QAEAAV0@PAVContext@CORBA@@@Z
??4?$_CORBA_PseudoObj_Out@VContextList@CORBA@@V?$_CORBA_PseudoObj_Var@VContextList@CORBA@@@@@@QAEAAV0@PAVContextList@CORBA@@@Z
??4?$_CORBA_PseudoObj_Out@VEnvironment@CORBA@@V?$_CORBA_PseudoObj_Var@VEnvironment@CORBA@@@@@@QAEAAV0@PAVEnvironment@CORBA@@@Z
??4?$_CORBA_PseudoObj_Out@VExceptionList@CORBA@@V?$_CORBA_PseudoObj_Var@VExceptionList@CORBA@@@@@@QAEAAV0@PAVExceptionList@CORBA@@@Z
??4?$_CORBA_PseudoObj_Out@VNVList@CORBA@@V?$_CORBA_PseudoObj_Var@VNVList@CORBA@@@@@@QAEAAV0@PAVNVList@CORBA@@@Z
??4?$_CORBA_PseudoObj_Out@VNamedValue@CORBA@@V?$_CORBA_PseudoObj_Var@VNamedValue@CORBA@@@@@@QAEAAV0@PAVNamedValue@CORBA@@@Z
??4?$_CORBA_PseudoObj_Out@VRequest@CORBA@@V?$_CORBA_PseudoObj_Var@VRequest@CORBA@@@@@@QAEAAV0@PAVRequest@CORBA@@@Z
??4?$_CORBA_PseudoObj_Var@VContext@CORBA@@@@QAEAAV0@PAVContext@CORBA@@@Z
??4?$_CORBA_PseudoObj_Var@VContextList@CORBA@@@@QAEAAV0@PAVContextList@CORBA@@@Z
??4?$_CORBA_PseudoObj_Var@VExceptionList@CORBA@@@@QAEAAV0@PAVExceptionList@CORBA@@@Z
??4?$_CORBA_PseudoObj_Var@VNVList@CORBA@@@@QAEAAV0@PAVNVList@CORBA@@@Z
??4?$_CORBA_PseudoObj_Var@VNamedValue@CORBA@@@@QAEAAV0@PAVNamedValue@CORBA@@@Z
??4?$_CORBA_Sequence@UExceptionDescription@CORBA@@@@IAEAAV0@ABV0@@Z
??4?$_CORBA_Sequence@UNameComponent@CosNaming@@@@IAEAAV0@ABV0@@Z
??4?$_CORBA_Sequence@UParameterDescription@CORBA@@@@IAEAAV0@ABV0@@Z
??4?$_CORBA_Sequence@UStructMember@CORBA@@@@IAEAAV0@ABV0@@Z
??4?$_CORBA_Unbounded_Sequence@UExceptionDescription@CORBA@@@@QAEAAV0@ABV0@@Z
??4?$_CORBA_Unbounded_Sequence@UNameComponent@CosNaming@@@@QAEAAV0@ABV0@@Z
??4?$_CORBA_Unbounded_Sequence@UParameterDescription@CORBA@@@@QAEAAV0@ABV0@@Z
??4?$_CORBA_Unbounded_Sequence@UStructMember@CORBA@@@@QAEAAV0@ABV0@@Z
??4?$_CORBA_Value_Element@VPollerImpl@omniAMI@@VPoller_Helper@Messaging@@@@QAEAAV0@ABV0@@Z
??4?$_CORBA_Value_Element@VPollerImpl@omniAMI@@VPoller_Helper@Messaging@@@@QAEAAV0@PAVPollerImpl@omniAMI@@@Z
??4?$_CORBA_Value_Element@VValueBase@CORBA@@VValueBase_Helper@2@@@QAEAAV0@PAVValueBase@CORBA@@@Z
??4AbstractInterfaceDefSeq_var@CORBA@@QAEAAV01@PAVAbstractInterfaceDefSeq@1@@Z
??4Any@CORBA@@QAEAAV01@ABV01@@Z
??4Any_var@CORBA@@QAEAAV01@PAVAny@1@@Z
??4AttributeDescription@CORBA@@QAEAAU01@ABU01@@Z
??4Binding@CosNaming@@QAEAAU01@ABU01@@Z
??4ContainedSeq_var@CORBA@@QAEAAV01@PAVContainedSeq@1@@Z
??4ContextIdSeq@CORBA@@QAEAAV01@ABV01@@Z
??4ContextIdSeq_var@CORBA@@QAEAAV01@PAVContextIdSeq@1@@Z
??4Description@Container@CORBA@@QAEAAU012@ABU012@@Z
??4DescriptionSeq_var@Container@CORBA@@QAEAAV012@PAVDescriptionSeq@12@@Z
??4EnumMemberSeq@CORBA@@QAEAAV01@ABV01@@Z
??4EnumMemberSeq_var@CORBA@@QAEAAV01@PAVEnumMemberSeq@1@@Z
??4ExcDescriptionSeq@CORBA@@QAEAAV01@ABV01@@Z
??4Exception@CORBA@@IAEAAV01@ABV01@@Z
??4ExceptionDefSeq_var@CORBA@@QAEAAV01@PAVExceptionDefSeq@1@@Z
??4ExceptionDescription@CORBA@@QAEAAU01@ABU01@@Z
??4Initializer@CORBA@@QAEAAU01@ABU01@@Z
??4InitializerSeq_var@CORBA@@QAEAAV01@PAVInitializerSeq@1@@Z
??4InterfaceDefSeq_var@CORBA@@QAEAAV01@PAVInterfaceDefSeq@1@@Z
??4Name@CosNaming@@QAEAAV01@ABV01@@Z
??4NameComponent@CosNaming@@QAEAAU01@ABU01@@Z
??4NameDynAnyPair@DynamicAny@@QAEAAU01@ABU01@@Z
??4NameValuePair@DynamicAny@@QAEAAU01@ABU01@@Z
??4NoPossiblePollable@PollableSet@CORBA@@QAEAAV012@ABV012@@Z
??4Object_var@CORBA@@QAEAAV01@PAVObject@1@@Z
??4OperationDescription@CORBA@@QAEAAU01@ABU01@@Z
??4ParDescriptionSeq@CORBA@@QAEAAV01@ABV01@@Z
??4ParDescriptionSeq_var@CORBA@@QAEAAV01@PAVParDescriptionSeq@1@@Z
??4ParameterDescription@CORBA@@QAEAAU01@ABU01@@Z
??4StructMember@CORBA@@QAEAAU01@ABU01@@Z
??4StructMemberSeq@CORBA@@QAEAAV01@ABV01@@Z
??4StructMemberSeq_var@CORBA@@QAEAAV01@PAVStructMemberSeq@1@@Z
??4TcUnionMember@TypeCode_union@omni@@QAEAAU012@ABU012@@Z
??4TypeCode_member@CORBA@@QAEAAV01@ABV01@@Z
??4TypeCode_member@CORBA@@QAEAAV01@ABVTypeCode_var@1@@Z
??4TypeCode_member@CORBA@@QAEAAV01@PAVTypeCode@1@@Z
??4TypeCode_var@CORBA@@QAEAAV01@PAVTypeCode@1@@Z
??4UnionMember@CORBA@@QAEAAU01@ABU01@@Z
??4UnionMemberSeq_var@CORBA@@QAEAAV01@PAVUnionMemberSeq@1@@Z
??4UnknownPollable@PollableSet@CORBA@@QAEAAV012@ABV012@@Z
??4UserException@CORBA@@QAEAAV01@ABV01@@Z
??4ValueBaseSeq_var@omniTypedefs@@QAEAAV01@PAVValueBaseSeq@1@@Z
??4ValueBase_var@CORBA@@QAEAAV01@PAVValueBase@1@@Z
??4ValueDefSeq_var@CORBA@@QAEAAV01@PAVValueDefSeq@1@@Z
??4ValueMember@CORBA@@QAEAAU01@ABU01@@Z
??4_CORBA_Sequence_String@@IAEAAV0@ABV0@@Z
??4_CORBA_String_element@@QAEAAV0@ABV0@@Z
??4_CORBA_String_element@@QAEAAV0@PAD@Z
??4_CORBA_String_element@@QAEAAV0@PBD@Z
??4_CORBA_String_member@@QAEAAV0@ABV0@@Z
??4_CORBA_String_member@@QAEAAV0@PAD@Z
??4_CORBA_String_member@@QAEAAV0@PBD@Z
??4_CORBA_String_var@@QAEAAV0@PAD@Z
??4_CORBA_Unbounded_Sequence_String@@QAEAAV0@ABV0@@Z
??4_CORBA_WString_element@@QAEAAV0@ABV0@@Z
??4_CORBA_WString_element@@QAEAAV0@PA_W@Z
??A?$_CORBA_PseudoValue_Sequence@PAD@@QAEAAPADK@Z
??A?$_CORBA_PseudoValue_Sequence@PAVNamedValue@CORBA@@@@QAEAAPAVNamedValue@CORBA@@K@Z
??A?$_CORBA_PseudoValue_Sequence@PAVTypeCode@CORBA@@@@QAEAAPAVTypeCode@CORBA@@K@Z
??A?$_CORBA_PseudoValue_Sequence@UEntry@ContextImpl@omni@@@@QAEAAUEntry@ContextImpl@omni@@K@Z
??A?$_CORBA_PseudoValue_Sequence@UEntry@ContextImpl@omni@@@@QBEABUEntry@ContextImpl@omni@@K@Z
??A?$_CORBA_PseudoValue_Sequence@UTcUnionMember@TypeCode_union@omni@@@@QAEAAUTcUnionMember@TypeCode_union@omni@@K@Z
??A?$_CORBA_PseudoValue_Sequence@UTcUnionMember@TypeCode_union@omni@@@@QBEABUTcUnionMember@TypeCode_union@omni@@K@Z
??A?$_CORBA_Pseudo_Unbounded_Sequence@VRequest@CORBA@@V?$_CORBA_PseudoObj_Member@VRequest@CORBA@@V?$_CORBA_PseudoObj_Var@VRequest@CORBA@@@@@@@@QBEABV?$_CORBA_PseudoObj_Member@VRequest@CORBA@@V?$_CORBA_PseudoObj_Var@VRequest@CORBA@@@@@@K@Z
??A?$_CORBA_Sequence@UNameDynAnyPair@DynamicAny@@@@QAEAAUNameDynAnyPair@DynamicAny@@K@Z
??A?$_CORBA_Sequence@UNameDynAnyPair@DynamicAny@@@@QBEABUNameDynAnyPair@DynamicAny@@K@Z
??A?$_CORBA_Sequence@UNameValuePair@DynamicAny@@@@QAEAAUNameValuePair@DynamicAny@@K@Z
??A?$_CORBA_Sequence@UNameValuePair@DynamicAny@@@@QBEABUNameValuePair@DynamicAny@@K@Z
??A?$_CORBA_Sequence@UStructMember@CORBA@@@@QBEABUStructMember@CORBA@@K@Z
??A?$_CORBA_Sequence@UUnionMember@CORBA@@@@QBEABUUnionMember@CORBA@@K@Z
??A?$_CORBA_Sequence@UValueMember@CORBA@@@@QBEABUValueMember@CORBA@@K@Z
??A?$_CORBA_Sequence@VAny@CORBA@@@@QAEAAVAny@CORBA@@K@Z
??A?$_CORBA_Sequence@VAny@CORBA@@@@QBEABVAny@CORBA@@K@Z
??A?$_CORBA_Sequence@VTypeCode_member@CORBA@@@@QAEAAVTypeCode_member@CORBA@@K@Z
??A?$_CORBA_Sequence_ObjRef@VDynAny@DynamicAny@@V?$_CORBA_ObjRef_Element@VDynAny@DynamicAny@@VDynAny_Helper@2@@@VDynAny_Helper@2@@@QAE?AV?$_CORBA_ObjRef_Element@VDynAny@DynamicAny@@VDynAny_Helper@2@@@K@Z
??A?$_CORBA_Sequence_ObjRef@VDynAny@DynamicAny@@V?$_CORBA_ObjRef_Element@VDynAny@DynamicAny@@VDynAny_Helper@2@@@VDynAny_Helper@2@@@QBE?AV?$_CORBA_ObjRef_Element@VDynAny@DynamicAny@@VDynAny_Helper@2@@@K@Z
??A?$_CORBA_Sequence_Value@VPollerImpl@omniAMI@@V?$_CORBA_Value_Element@VPollerImpl@omniAMI@@VPoller_Helper@Messaging@@@@VPoller_Helper@Messaging@@@@QAE?AV?$_CORBA_Value_Element@VPollerImpl@omniAMI@@VPoller_Helper@Messaging@@@@K@Z
??A?$_CORBA_Sequence_Value@VValueBase@CORBA@@V?$_CORBA_Value_Element@VValueBase@CORBA@@VValueBase_Helper@2@@@VValueBase_Helper@2@@@QAE?AV?$_CORBA_Value_Element@VValueBase@CORBA@@VValueBase_Helper@2@@@K@Z
??A?$omnivector@PAVDynAnyImplBase@omni@@@@QAEAAPAVDynAnyImplBase@omni@@I@Z
??ATypeCode_alignTable@omni@@QBEABUAlignment@01@I@Z
??A_CORBA_Sequence_String@@QAE?AV_CORBA_String_element@@K@Z
??A_CORBA_Sequence_String@@QBE?BV_CORBA_String_element@@K@Z
??A_CORBA_Sequence_WString@@QAE?AV_CORBA_WString_element@@K@Z
??A_CORBA_Sequence_WString@@QBE?BV_CORBA_WString_element@@K@Z
??B?$_CORBA_ConstrType_Variable_Var@UDescription@Contained@CORBA@@@@QAEAAUDescription@Contained@CORBA@@XZ
??B?$_CORBA_ConstrType_Variable_Var@UFullInterfaceDescription@InterfaceDef@CORBA@@@@QAEAAUFullInterfaceDescription@InterfaceDef@CORBA@@XZ
??B?$_CORBA_ConstrType_Variable_Var@UFullValueDescription@ValueDef@CORBA@@@@QAEAAUFullValueDescription@ValueDef@CORBA@@XZ
??B?$_CORBA_ObjRef_Element@VDynAny@DynamicAny@@VDynAny_Helper@2@@@QBEPAVDynAny@DynamicAny@@XZ
??B?$_CORBA_ObjRef_Member@V_objref_Contained@CORBA@@VContained_Helper@2@@@QBEPAV_objref_Contained@CORBA@@XZ
??B?$_CORBA_ObjRef_Member@V_objref_IDLType@CORBA@@VIDLType_Helper@2@@@QBEPAV_objref_IDLType@CORBA@@XZ
??B?$_CORBA_ObjRef_Var@V_objref_AbstractInterfaceDef@CORBA@@VAbstractInterfaceDef_Helper@2@@@QBEPAV_objref_AbstractInterfaceDef@CORBA@@XZ
??B?$_CORBA_ObjRef_Var@V_objref_AliasDef@CORBA@@VAliasDef_Helper@2@@@QBEPAV_objref_AliasDef@CORBA@@XZ
??B?$_CORBA_ObjRef_Var@V_objref_ArrayDef@CORBA@@VArrayDef_Helper@2@@@QBEPAV_objref_ArrayDef@CORBA@@XZ
??B?$_CORBA_ObjRef_Var@V_objref_AttributeDef@CORBA@@VAttributeDef_Helper@2@@@QBEPAV_objref_AttributeDef@CORBA@@XZ
??B?$_CORBA_ObjRef_Var@V_objref_ConstantDef@CORBA@@VConstantDef_Helper@2@@@QBEPAV_objref_ConstantDef@CORBA@@XZ
??B?$_CORBA_ObjRef_Var@V_objref_Contained@CORBA@@VContained_Helper@2@@@QBEPAV_objref_Contained@CORBA@@XZ
??B?$_CORBA_ObjRef_Var@V_objref_Container@CORBA@@VContainer_Helper@2@@@QBEPAV_objref_Container@CORBA@@XZ
??B?$_CORBA_ObjRef_Var@V_objref_EnumDef@CORBA@@VEnumDef_Helper@2@@@QBEPAV_objref_EnumDef@CORBA@@XZ
??B?$_CORBA_ObjRef_Var@V_objref_ExceptionDef@CORBA@@VExceptionDef_Helper@2@@@QBEPAV_objref_ExceptionDef@CORBA@@XZ
??B?$_CORBA_ObjRef_Var@V_objref_FixedDef@CORBA@@VFixedDef_Helper@2@@@QBEPAV_objref_FixedDef@CORBA@@XZ
??B?$_CORBA_ObjRef_Var@V_objref_IDLType@CORBA@@VIDLType_Helper@2@@@QBEPAV_objref_IDLType@CORBA@@XZ
??B?$_CORBA_ObjRef_Var@V_objref_InterfaceDef@CORBA@@VInterfaceDef_Helper@2@@@QBEPAV_objref_InterfaceDef@CORBA@@XZ
??B?$_CORBA_ObjRef_Var@V_objref_ModuleDef@CORBA@@VModuleDef_Helper@2@@@QBEPAV_objref_ModuleDef@CORBA@@XZ
??B?$_CORBA_ObjRef_Var@V_objref_NativeDef@CORBA@@VNativeDef_Helper@2@@@QBEPAV_objref_NativeDef@CORBA@@XZ
??B?$_CORBA_ObjRef_Var@V_objref_OperationDef@CORBA@@VOperationDef_Helper@2@@@QBEPAV_objref_OperationDef@CORBA@@XZ
??B?$_CORBA_ObjRef_Var@V_objref_PrimitiveDef@CORBA@@VPrimitiveDef_Helper@2@@@QBEPAV_objref_PrimitiveDef@CORBA@@XZ
??B?$_CORBA_ObjRef_Var@V_objref_Repository@CORBA@@VRepository_Helper@2@@@QBEPAV_objref_Repository@CORBA@@XZ
??B?$_CORBA_ObjRef_Var@V_objref_SequenceDef@CORBA@@VSequenceDef_Helper@2@@@QBEPAV_objref_SequenceDef@CORBA@@XZ
??B?$_CORBA_ObjRef_Var@V_objref_StringDef@CORBA@@VStringDef_Helper@2@@@QBEPAV_objref_StringDef@CORBA@@XZ
??B?$_CORBA_ObjRef_Var@V_objref_StructDef@CORBA@@VStructDef_Helper@2@@@QBEPAV_objref_StructDef@CORBA@@XZ
??B?$_CORBA_ObjRef_Var@V_objref_UnionDef@CORBA@@VUnionDef_Helper@2@@@QBEPAV_objref_UnionDef@CORBA@@XZ
??B?$_CORBA_ObjRef_Var@V_objref_ValueBoxDef@CORBA@@VValueBoxDef_Helper@2@@@QBEPAV_objref_ValueBoxDef@CORBA@@XZ
??B?$_CORBA_ObjRef_Var@V_objref_ValueDef@CORBA@@VValueDef_Helper@2@@@QBEPAV_objref_ValueDef@CORBA@@XZ
??B?$_CORBA_ObjRef_Var@V_objref_ValueMemberDef@CORBA@@VValueMemberDef_Helper@2@@@QBEPAV_objref_ValueMemberDef@CORBA@@XZ
??B?$_CORBA_ObjRef_Var@V_objref_WstringDef@CORBA@@VWstringDef_Helper@2@@@QBEPAV_objref_WstringDef@CORBA@@XZ
??B?$_CORBA_PseudoObj_Member@VDynAny@DynamicAny@@V?$_CORBA_PseudoObj_Var@VDynAny@DynamicAny@@@@@@QBEPAVDynAny@DynamicAny@@XZ
??B?$_CORBA_PseudoObj_Member@VRequest@CORBA@@V?$_CORBA_PseudoObj_Var@VRequest@CORBA@@@@@@QBEPAVRequest@CORBA@@XZ
??B?$_CORBA_PseudoObj_Var@VContext@CORBA@@@@QBEPAVContext@CORBA@@XZ
??B?$_CORBA_PseudoObj_Var@VContextList@CORBA@@@@QBEPAVContextList@CORBA@@XZ
??B?$_CORBA_PseudoObj_Var@VDynAny@DynamicAny@@@@QBEPAVDynAny@DynamicAny@@XZ
??B?$_CORBA_PseudoObj_Var@VEnvironment@CORBA@@@@QBEPAVEnvironment@CORBA@@XZ
??B?$_CORBA_PseudoObj_Var@VExceptionList@CORBA@@@@QBEPAVExceptionList@CORBA@@XZ
??B?$_CORBA_PseudoObj_Var@VNVList@CORBA@@@@QBEPAVNVList@CORBA@@XZ
??B?$_CORBA_PseudoObj_Var@VNamedValue@CORBA@@@@QBEPAVNamedValue@CORBA@@XZ
??B?$_CORBA_Value_Element@VPollerImpl@omniAMI@@VPoller_Helper@Messaging@@@@QBEPAVPollerImpl@omniAMI@@XZ
??B?$_CORBA_Value_Element@VValueBase@CORBA@@VValueBase_Helper@2@@@QBEPAVValueBase@CORBA@@XZ
??BAbstractInterfaceDefSeq_var@CORBA@@QAEAAVAbstractInterfaceDefSeq@1@XZ
??BAny_var@CORBA@@QAEAAVAny@1@XZ
??BContainedSeq_var@CORBA@@QAEAAVContainedSeq@1@XZ
??BContextIdSeq_var@CORBA@@QAEAAVContextIdSeq@1@XZ
??BDescriptionSeq_var@Container@CORBA@@QAEAAVDescriptionSeq@12@XZ
??BEnumMemberSeq_var@CORBA@@QAEAAVEnumMemberSeq@1@XZ
??BExceptionDefSeq_var@CORBA@@QAEAAVExceptionDefSeq@1@XZ
??BInitializerSeq_var@CORBA@@QAEAAVInitializerSeq@1@XZ
??BInterfaceDefSeq_var@CORBA@@QAEAAVInterfaceDefSeq@1@XZ
??BObject_var@CORBA@@QBEPAVObject@1@XZ
??BParDescriptionSeq_var@CORBA@@QAEAAVParDescriptionSeq@1@XZ
??BStructMemberSeq_var@CORBA@@QAEAAVStructMemberSeq@1@XZ
??BTypeCode_member@CORBA@@QBEPAVTypeCode@1@XZ
??BTypeCode_var@CORBA@@QBEPAVTypeCode@1@XZ
??BUnionMemberSeq_var@CORBA@@QAEAAVUnionMemberSeq@1@XZ
??BValueBaseSeq_var@omniTypedefs@@QAEAAVValueBaseSeq@1@XZ
??BValueBase_var@CORBA@@QBEPAVValueBase@1@XZ
??BValueDefSeq_var@CORBA@@QAEAAVValueDefSeq@1@XZ
??B_CORBA_String_element@@QAEPADXZ
??B_CORBA_String_element@@QBEPBDXZ
??B_CORBA_String_member@@QAEPADXZ
??B_CORBA_String_member@@QBEPBDXZ
??B_CORBA_String_var@@QAEPADXZ
??B_CORBA_String_var@@QBEPBDXZ
??C?$_CORBA_ObjRef_Element@VDynAny@DynamicAny@@VDynAny_Helper@2@@@QBEPAVDynAny@DynamicAny@@XZ
??C?$_CORBA_PseudoObj_Member@VDynAny@DynamicAny@@V?$_CORBA_PseudoObj_Var@VDynAny@DynamicAny@@@@@@QBEPAVDynAny@DynamicAny@@XZ
??C?$_CORBA_PseudoObj_Member@VRequest@CORBA@@V?$_CORBA_PseudoObj_Var@VRequest@CORBA@@@@@@QBEPAVRequest@CORBA@@XZ
??C?$_CORBA_PseudoObj_Var@VDynAny@DynamicAny@@@@QBEPAVDynAny@DynamicAny@@XZ
??C?$_CORBA_PseudoObj_Var@VEnvironment@CORBA@@@@QBEPAVEnvironment@CORBA@@XZ
??C?$_CORBA_PseudoObj_Var@VExceptionList@CORBA@@@@QBEPAVExceptionList@CORBA@@XZ
??C?$_CORBA_PseudoObj_Var@VNVList@CORBA@@@@QBEPAVNVList@CORBA@@XZ
??C?$_CORBA_PseudoObj_Var@VNamedValue@CORBA@@@@QBEPAVNamedValue@CORBA@@XZ
??C?$_CORBA_Value_Element@VPollerImpl@omniAMI@@VPoller_Helper@Messaging@@@@QBEPAVPollerImpl@omniAMI@@XZ
??CAny_var@CORBA@@QBEPAVAny@1@XZ
??CBooleanSeq_var@CORBA@@QAEPAVBooleanSeq@1@XZ
??CCharSeq_var@CORBA@@QAEPAVCharSeq@1@XZ
??CDoubleSeq_var@CORBA@@QAEPAVDoubleSeq@1@XZ
??CFloatSeq_var@CORBA@@QAEPAVFloatSeq@1@XZ
??CLongLongSeq_var@CORBA@@QAEPAVLongLongSeq@1@XZ
??CLongSeq_var@CORBA@@QAEPAVLongSeq@1@XZ
??CObject_var@CORBA@@QBEPAVObject@1@XZ
??COctetSeq_var@CORBA@@QAEPAVOctetSeq@1@XZ
??CShortSeq_var@CORBA@@QAEPAVShortSeq@1@XZ
??CTypeCode_member@CORBA@@QBEPAVTypeCode@1@XZ
??CTypeCode_var@CORBA@@QBEPAVTypeCode@1@XZ
??CULongLongSeq_var@CORBA@@QAEPAVULongLongSeq@1@XZ
??CULongSeq_var@CORBA@@QAEPAVULongSeq@1@XZ
??CUShortSeq_var@CORBA@@QAEPAVUShortSeq@1@XZ
??CValueBaseSeq_var@omniTypedefs@@QAEPAVValueBaseSeq@1@XZ
??CValueBase_var@CORBA@@QBEPAVValueBase@1@XZ
??CWCharSeq_var@CORBA@@QAEPAVWCharSeq@1@XZ
??Momni_time_t@@QBEHABU0@@Z
??_2?$_CORBA_Sequence_ObjRef@V_objref_AbstractInterfaceDef@CORBA@@V?$_CORBA_ObjRef_Element@V_objref_AbstractInterfaceDef@CORBA@@VAbstractInterfaceDef_Helper@2@@@VAbstractInterfaceDef_Helper@2@@@QBEXAAVcdrStream@@@Z
??_2?$_CORBA_Sequence_ObjRef@V_objref_Contained@CORBA@@V?$_CORBA_ObjRef_Element@V_objref_Contained@CORBA@@VContained_Helper@2@@@VContained_Helper@2@@@QBEXAAVcdrStream@@@Z
??_2?$_CORBA_Sequence_ObjRef@V_objref_ExceptionDef@CORBA@@V?$_CORBA_ObjRef_Element@V_objref_ExceptionDef@CORBA@@VExceptionDef_Helper@2@@@VExceptionDef_Helper@2@@@QBEXAAVcdrStream@@@Z
??_2?$_CORBA_Sequence_ObjRef@V_objref_InterfaceDef@CORBA@@V?$_CORBA_ObjRef_Element@V_objref_InterfaceDef@CORBA@@VInterfaceDef_Helper@2@@@VInterfaceDef_Helper@2@@@QBEXAAVcdrStream@@@Z
??_2?$_CORBA_Sequence_ObjRef@V_objref_ValueDef@CORBA@@V?$_CORBA_ObjRef_Element@V_objref_ValueDef@CORBA@@VValueDef_Helper@2@@@VValueDef_Helper@2@@@QBEXAAVcdrStream@@@Z
??_2?$_CORBA_Unbounded_Sequence@F@@QBEXAAVcdrStream@@@Z
??_2?$_CORBA_Unbounded_Sequence@G@@QBEXAAVcdrStream@@@Z
??_2?$_CORBA_Unbounded_Sequence@J@@QBEXAAVcdrStream@@@Z
??_2?$_CORBA_Unbounded_Sequence@K@@QBEXAAVcdrStream@@@Z
??_2?$_CORBA_Unbounded_Sequence@M@@QBEXAAVcdrStream@@@Z
??_2?$_CORBA_Unbounded_Sequence@N@@QBEXAAVcdrStream@@@Z
??_2?$_CORBA_Unbounded_Sequence@UAttributeDescription@CORBA@@@@QBEXAAVcdrStream@@@Z
??_2?$_CORBA_Unbounded_Sequence@UBinding@CosNaming@@@@QBEXAAVcdrStream@@@Z
??_2?$_CORBA_Unbounded_Sequence@UDescription@Container@CORBA@@@@QBEXAAVcdrStream@@@Z
??_2?$_CORBA_Unbounded_Sequence@UExceptionDescription@CORBA@@@@QBEXAAVcdrStream@@@Z
??_2?$_CORBA_Unbounded_Sequence@UInitializer@CORBA@@@@QBEXAAVcdrStream@@@Z
??_2?$_CORBA_Unbounded_Sequence@UNameComponent@CosNaming@@@@QBEXAAVcdrStream@@@Z
??_2?$_CORBA_Unbounded_Sequence@UOperationDescription@CORBA@@@@QBEXAAVcdrStream@@@Z
??_2?$_CORBA_Unbounded_Sequence@UParameterDescription@CORBA@@@@QBEXAAVcdrStream@@@Z
??_2?$_CORBA_Unbounded_Sequence@UStructMember@CORBA@@@@QBEXAAVcdrStream@@@Z
??_2?$_CORBA_Unbounded_Sequence@UUnionMember@CORBA@@@@QBEXAAVcdrStream@@@Z
??_2?$_CORBA_Unbounded_Sequence@UValueMember@CORBA@@@@QBEXAAVcdrStream@@@Z
??_2?$_CORBA_Unbounded_Sequence@VAny@CORBA@@@@QBEXAAVcdrStream@@@Z
??_2?$_CORBA_Unbounded_Sequence@_J@@QBEXAAVcdrStream@@@Z
??_2?$_CORBA_Unbounded_Sequence@_K@@QBEXAAVcdrStream@@@Z
??_2?$_CORBA_Unbounded_Sequence_w_FixSizeElement@F$01$01@@QBEXAAVcdrStream@@@Z
??_2?$_CORBA_Unbounded_Sequence_w_FixSizeElement@G$01$01@@QBEXAAVcdrStream@@@Z
??_2?$_CORBA_Unbounded_Sequence_w_FixSizeElement@J$03$03@@QBEXAAVcdrStream@@@Z
??_2?$_CORBA_Unbounded_Sequence_w_FixSizeElement@K$03$03@@QBEXAAVcdrStream@@@Z
??_2?$_CORBA_Unbounded_Sequence_w_FixSizeElement@M$03$03@@QBEXAAVcdrStream@@@Z
??_2?$_CORBA_Unbounded_Sequence_w_FixSizeElement@N$07$07@@QBEXAAVcdrStream@@@Z
??_2?$_CORBA_Unbounded_Sequence_w_FixSizeElement@_J$07$07@@QBEXAAVcdrStream@@@Z
??_2?$_CORBA_Unbounded_Sequence_w_FixSizeElement@_K$07$07@@QBEXAAVcdrStream@@@Z
??_2@YAXFAAVcdrStream@@@Z
??_2@YAXGAAVcdrStream@@@Z
??_2@YAXJAAVcdrStream@@@Z
??_2@YAXKAAVcdrStream@@@Z
??_2@YAXMAAVcdrStream@@@Z
??_2@YAXNAAVcdrStream@@@Z
??_2@YAXW4AttributeMode@CORBA@@AAVcdrStream@@@Z
??_2@YAXW4BindingType@CosNaming@@AAVcdrStream@@@Z
??_2@YAXW4DefinitionKind@CORBA@@AAVcdrStream@@@Z
??_2@YAXW4IdAssignmentPolicyValue@PortableServer@@AAVcdrStream@@@Z
??_2@YAXW4IdUniquenessPolicyValue@PortableServer@@AAVcdrStream@@@Z
??_2@YAXW4ImplicitActivationPolicyValue@PortableServer@@AAVcdrStream@@@Z
??_2@YAXW4LifespanPolicyValue@PortableServer@@AAVcdrStream@@@Z
??_2@YAXW4NotFoundReason@NamingContext@CosNaming@@AAVcdrStream@@@Z
??_2@YAXW4OperationMode@CORBA@@AAVcdrStream@@@Z
??_2@YAXW4ParameterMode@CORBA@@AAVcdrStream@@@Z
??_2@YAXW4PrimitiveKind@CORBA@@AAVcdrStream@@@Z
??_2@YAXW4RequestProcessingPolicyValue@PortableServer@@AAVcdrStream@@@Z
??_2@YAXW4ServantRetentionPolicyValue@PortableServer@@AAVcdrStream@@@Z
??_2@YAXW4ThreadPolicyValue@PortableServer@@AAVcdrStream@@@Z
??_2@YAX_JAAVcdrStream@@@Z
??_2@YAX_KAAVcdrStream@@@Z
??_2@YA_NABVAny@CORBA@@AAPAUAttributeDescription@1@@Z
??_2@YA_NABVAny@CORBA@@AAPAUBinding@CosNaming@@@Z
??_2@YA_NABVAny@CORBA@@AAPAUConstantDescription@1@@Z
??_2@YA_NABVAny@CORBA@@AAPAUDescription@Contained@1@@Z
??_2@YA_NABVAny@CORBA@@AAPAUDescription@Container@1@@Z
??_2@YA_NABVAny@CORBA@@AAPAUExceptionDescription@1@@Z
??_2@YA_NABVAny@CORBA@@AAPAUFullInterfaceDescription@InterfaceDef@1@@Z
??_2@YA_NABVAny@CORBA@@AAPAUFullValueDescription@ValueDef@1@@Z
??_2@YA_NABVAny@CORBA@@AAPAUInitializer@1@@Z
??_2@YA_NABVAny@CORBA@@AAPAUInterfaceDescription@1@@Z
??_2@YA_NABVAny@CORBA@@AAPAUModuleDescription@1@@Z
??_2@YA_NABVAny@CORBA@@AAPAUNameComponent@CosNaming@@@Z
??_2@YA_NABVAny@CORBA@@AAPAUOperationDescription@1@@Z
??_2@YA_NABVAny@CORBA@@AAPAUParameterDescription@1@@Z
??_2@YA_NABVAny@CORBA@@AAPAUStructMember@1@@Z
??_2@YA_NABVAny@CORBA@@AAPAUTypeDescription@1@@Z
??_2@YA_NABVAny@CORBA@@AAPAUUnionMember@1@@Z
??_2@YA_NABVAny@CORBA@@AAPAUValueDescription@1@@Z
??_2@YA_NABVAny@CORBA@@AAPAUValueMember@1@@Z
??_2@YA_NABVAny@CORBA@@AAPAVAbstractInterfaceDefSeq@1@@Z
??_2@YA_NABVAny@CORBA@@AAPAVAnySeq@1@@Z
??_2@YA_NABVAny@CORBA@@AAPAVAttrDescriptionSeq@1@@Z
??_2@YA_NABVAny@CORBA@@AAPAVBAD_CONTEXT@1@@Z
??_2@YA_NABVAny@CORBA@@AAPAVBAD_INV_ORDER@1@@Z
??_2@YA_NABVAny@CORBA@@AAPAVBAD_OPERATION@1@@Z
??_2@YA_NABVAny@CORBA@@AAPAVBAD_PARAM@1@@Z
??_2@YA_NABVAny@CORBA@@AAPAVBAD_QOS@1@@Z
??_2@YA_NABVAny@CORBA@@AAPAVBAD_TYPECODE@1@@Z
??_2@YA_NABVAny@CORBA@@AAPAVBindingList@CosNaming@@@Z
??_2@YA_NABVAny@CORBA@@AAPAVBooleanSeq@1@@Z
??_2@YA_NABVAny@CORBA@@AAPAVCODESET_INCOMPATIBLE@1@@Z
??_2@YA_NABVAny@CORBA@@AAPAVCOMM_FAILURE@1@@Z
??_2@YA_NABVAny@CORBA@@AAPAVCharSeq@1@@Z
??_2@YA_NABVAny@CORBA@@AAPAVContainedSeq@1@@Z
??_2@YA_NABVAny@CORBA@@AAPAVContextIdSeq@1@@Z
??_2@YA_NABVAny@CORBA@@AAPAVDATA_CONVERSION@1@@Z
??_2@YA_NABVAny@CORBA@@AAPAVDIIPollable@1@@Z
??_2@YA_NABVAny@CORBA@@AAPAVDescriptionSeq@Container@1@@Z
??_2@YA_NABVAny@CORBA@@AAPAVDoubleSeq@1@@Z
??_2@YA_NABVAny@CORBA@@AAPAVEnumMemberSeq@1@@Z
??_2@YA_NABVAny@CORBA@@AAPAVExcDescriptionSeq@1@@Z
??_2@YA_NABVAny@CORBA@@AAPAVExceptionDefSeq@1@@Z
??_2@YA_NABVAny@CORBA@@AAPAVFREE_MEM@1@@Z
??_2@YA_NABVAny@CORBA@@AAPAVFloatSeq@1@@Z
??_2@YA_NABVAny@CORBA@@AAPAVIMP_LIMIT@1@@Z
??_2@YA_NABVAny@CORBA@@AAPAVINITIALIZE@1@@Z
??_2@YA_NABVAny@CORBA@@AAPAVINTERNAL@1@@Z
??_2@YA_NABVAny@CORBA@@AAPAVINTF_REPOS@1@@Z
??_2@YA_NABVAny@CORBA@@AAPAVINVALID_TRANSACTION@1@@Z
??_2@YA_NABVAny@CORBA@@AAPAVINV_FLAG@1@@Z
??_2@YA_NABVAny@CORBA@@AAPAVINV_IDENT@1@@Z
??_2@YA_NABVAny@CORBA@@AAPAVINV_OBJREF@1@@Z
??_2@YA_NABVAny@CORBA@@AAPAVINV_POLICY@1@@Z
??_2@YA_NABVAny@CORBA@@AAPAVInitializerSeq@1@@Z
??_2@YA_NABVAny@CORBA@@AAPAVInterfaceDefSeq@1@@Z
??_2@YA_NABVAny@CORBA@@AAPAVLongLongSeq@1@@Z
??_2@YA_NABVAny@CORBA@@AAPAVLongSeq@1@@Z
??_2@YA_NABVAny@CORBA@@AAPAVMARSHAL@1@@Z
??_2@YA_NABVAny@CORBA@@AAPAVNO_IMPLEMENT@1@@Z
??_2@YA_NABVAny@CORBA@@AAPAVNO_MEMORY@1@@Z
??_2@YA_NABVAny@CORBA@@AAPAVNO_PERMISSION@1@@Z
??_2@YA_NABVAny@CORBA@@AAPAVNO_RESOURCES@1@@Z
??_2@YA_NABVAny@CORBA@@AAPAVNO_RESPONSE@1@@Z
??_2@YA_NABVAny@CORBA@@AAPAVName@CosNaming@@@Z
??_2@YA_NABVAny@CORBA@@AAPAVOBJECT_NOT_EXIST@1@@Z
??_2@YA_NABVAny@CORBA@@AAPAVOBJ_ADAPTER@1@@Z
??_2@YA_NABVAny@CORBA@@AAPAVObjIdList@CORBA_InitialReferences@@@Z
??_2@YA_NABVAny@CORBA@@AAPAVOctetSeq@1@@Z
??_2@YA_NABVAny@CORBA@@AAPAVOpDescriptionSeq@1@@Z
??_2@YA_NABVAny@CORBA@@AAPAVPERSIST_STORE@1@@Z
??_2@YA_NABVAny@CORBA@@AAPAVParDescriptionSeq@1@@Z
??_2@YA_NABVAny@CORBA@@AAPAVPollable@1@@Z
??_2@YA_NABVAny@CORBA@@AAPAVPollableSet@1@@Z
??_2@YA_NABVAny@CORBA@@AAPAVREBIND@1@@Z
??_2@YA_NABVAny@CORBA@@AAPAVRepositoryIdSeq@1@@Z
??_2@YA_NABVAny@CORBA@@AAPAVShortSeq@1@@Z
??_2@YA_NABVAny@CORBA@@AAPAVStringSeq@1@@Z
??_2@YA_NABVAny@CORBA@@AAPAVStringValue@1@@Z
??_2@YA_NABVAny@CORBA@@AAPAVStructMemberSeq@1@@Z
??_2@YA_NABVAny@CORBA@@AAPAVTIMEOUT@1@@Z
??_2@YA_NABVAny@CORBA@@AAPAVTRANSACTION_MODE@1@@Z
??_2@YA_NABVAny@CORBA@@AAPAVTRANSACTION_REQUIRED@1@@Z
??_2@YA_NABVAny@CORBA@@AAPAVTRANSACTION_ROLLEDBACK@1@@Z
??_2@YA_NABVAny@CORBA@@AAPAVTRANSACTION_UNAVAILABLE@1@@Z
??_2@YA_NABVAny@CORBA@@AAPAVTRANSIENT@1@@Z
??_2@YA_NABVAny@CORBA@@AAPAVULongLongSeq@1@@Z
??_2@YA_NABVAny@CORBA@@AAPAVULongSeq@1@@Z
??_2@YA_NABVAny@CORBA@@AAPAVUNKNOWN@1@@Z
??_2@YA_NABVAny@CORBA@@AAPAVUShortSeq@1@@Z
??_2@YA_NABVAny@CORBA@@AAPAVUnionMemberSeq@1@@Z
??_2@YA_NABVAny@CORBA@@AAPAVValueDefSeq@1@@Z
??_2@YA_NABVAny@CORBA@@AAPAVValueMemberSeq@1@@Z
??_2@YA_NABVAny@CORBA@@AAPAVWCharSeq@1@@Z
??_2@YA_NABVAny@CORBA@@AAPAVWStringSeq@1@@Z
??_2@YA_NABVAny@CORBA@@AAPAVWStringValue@1@@Z
??_2@YA_NABVAny@CORBA@@AAPAV_objref_AbstractInterfaceDef@1@@Z
??_2@YA_NABVAny@CORBA@@AAPAV_objref_AliasDef@1@@Z
??_2@YA_NABVAny@CORBA@@AAPAV_objref_ArrayDef@1@@Z
??_2@YA_NABVAny@CORBA@@AAPAV_objref_AttributeDef@1@@Z
??_2@YA_NABVAny@CORBA@@AAPAV_objref_BindingIterator@CosNaming@@@Z
??_2@YA_NABVAny@CORBA@@AAPAV_objref_CORBA_InitialReferences@@@Z
??_2@YA_NABVAny@CORBA@@AAPAV_objref_ConstantDef@1@@Z
??_2@YA_NABVAny@CORBA@@AAPAV_objref_Contained@1@@Z
??_2@YA_NABVAny@CORBA@@AAPAV_objref_Container@1@@Z
??_2@YA_NABVAny@CORBA@@AAPAV_objref_EnumDef@1@@Z
??_2@YA_NABVAny@CORBA@@AAPAV_objref_ExceptionDef@1@@Z
??_2@YA_NABVAny@CORBA@@AAPAV_objref_FixedDef@1@@Z
??_2@YA_NABVAny@CORBA@@AAPAV_objref_IDLType@1@@Z
??_2@YA_NABVAny@CORBA@@AAPAV_objref_IRObject@1@@Z
??_2@YA_NABVAny@CORBA@@AAPAV_objref_InterfaceDef@1@@Z
??_2@YA_NABVAny@CORBA@@AAPAV_objref_ModuleDef@1@@Z
??_2@YA_NABVAny@CORBA@@AAPAV_objref_NamingContext@CosNaming@@@Z
??_2@YA_NABVAny@CORBA@@AAPAV_objref_NamingContextExt@CosNaming@@@Z
??_2@YA_NABVAny@CORBA@@AAPAV_objref_NativeDef@1@@Z
??_2@YA_NABVAny@CORBA@@AAPAV_objref_OperationDef@1@@Z
??_2@YA_NABVAny@CORBA@@AAPAV_objref_PrimitiveDef@1@@Z
??_2@YA_NABVAny@CORBA@@AAPAV_objref_Repository@1@@Z
??_2@YA_NABVAny@CORBA@@AAPAV_objref_SequenceDef@1@@Z
??_2@YA_NABVAny@CORBA@@AAPAV_objref_StringDef@1@@Z
??_2@YA_NABVAny@CORBA@@AAPAV_objref_StructDef@1@@Z
??_2@YA_NABVAny@CORBA@@AAPAV_objref_TypedefDef@1@@Z
??_2@YA_NABVAny@CORBA@@AAPAV_objref_UnionDef@1@@Z
??_2@YA_NABVAny@CORBA@@AAPAV_objref_ValueBoxDef@1@@Z
??_2@YA_NABVAny@CORBA@@AAPAV_objref_ValueDef@1@@Z
??_2@YA_NABVAny@CORBA@@AAPAV_objref_ValueMemberDef@1@@Z
??_2@YA_NABVAny@CORBA@@AAPAV_objref_WstringDef@1@@Z
??_2@YA_NABVAny@CORBA@@AAPBUAttributeDescription@1@@Z
??_2@YA_NABVAny@CORBA@@AAPBUBinding@CosNaming@@@Z
??_2@YA_NABVAny@CORBA@@AAPBUConstantDescription@1@@Z
??_2@YA_NABVAny@CORBA@@AAPBUDescription@Contained@1@@Z
??_2@YA_NABVAny@CORBA@@AAPBUDescription@Container@1@@Z
??_2@YA_NABVAny@CORBA@@AAPBUExceptionDescription@1@@Z
??_2@YA_NABVAny@CORBA@@AAPBUFullInterfaceDescription@InterfaceDef@1@@Z
??_2@YA_NABVAny@CORBA@@AAPBUFullValueDescription@ValueDef@1@@Z
??_2@YA_NABVAny@CORBA@@AAPBUInitializer@1@@Z
??_2@YA_NABVAny@CORBA@@AAPBUInterfaceDescription@1@@Z
??_2@YA_NABVAny@CORBA@@AAPBUModuleDescription@1@@Z
??_2@YA_NABVAny@CORBA@@AAPBUNameComponent@CosNaming@@@Z
??_2@YA_NABVAny@CORBA@@AAPBUOperationDescription@1@@Z
??_2@YA_NABVAny@CORBA@@AAPBUParameterDescription@1@@Z
??_2@YA_NABVAny@CORBA@@AAPBUStructMember@1@@Z
??_2@YA_NABVAny@CORBA@@AAPBUTypeDescription@1@@Z
??_2@YA_NABVAny@CORBA@@AAPBUUnionMember@1@@Z
??_2@YA_NABVAny@CORBA@@AAPBUValueDescription@1@@Z
??_2@YA_NABVAny@CORBA@@AAPBUValueMember@1@@Z
??_2@YA_NABVAny@CORBA@@AAPBVAbstractInterfaceDefSeq@1@@Z
??_2@YA_NABVAny@CORBA@@AAPBVAdapterAlreadyExists@POA@PortableServer@@@Z
??_2@YA_NABVAny@CORBA@@AAPBVAdapterInactive@POAManager@PortableServer@@@Z
??_2@YA_NABVAny@CORBA@@AAPBVAdapterNonExistent@POA@PortableServer@@@Z
??_2@YA_NABVAny@CORBA@@AAPBVAlreadyBound@NamingContext@CosNaming@@@Z
??_2@YA_NABVAny@CORBA@@AAPBVAnySeq@1@@Z
??_2@YA_NABVAny@CORBA@@AAPBVAttrDescriptionSeq@1@@Z
??_2@YA_NABVAny@CORBA@@AAPBVBAD_CONTEXT@1@@Z
??_2@YA_NABVAny@CORBA@@AAPBVBAD_INV_ORDER@1@@Z
??_2@YA_NABVAny@CORBA@@AAPBVBAD_OPERATION@1@@Z
??_2@YA_NABVAny@CORBA@@AAPBVBAD_PARAM@1@@Z
??_2@YA_NABVAny@CORBA@@AAPBVBAD_QOS@1@@Z
??_2@YA_NABVAny@CORBA@@AAPBVBAD_TYPECODE@1@@Z
??_2@YA_NABVAny@CORBA@@AAPBVBadKind@TypeCode@1@@Z
??_2@YA_NABVAny@CORBA@@AAPBVBindingList@CosNaming@@@Z
??_2@YA_NABVAny@CORBA@@AAPBVBooleanSeq@1@@Z
??_2@YA_NABVAny@CORBA@@AAPBVBounds@ContextList@1@@Z
??_2@YA_NABVAny@CORBA@@AAPBVBounds@ExceptionList@1@@Z
??_2@YA_NABVAny@CORBA@@AAPBVBounds@NVList@1@@Z
??_2@YA_NABVAny@CORBA@@AAPBVBounds@TypeCode@1@@Z
??_2@YA_NABVAny@CORBA@@AAPBVCODESET_INCOMPATIBLE@1@@Z
??_2@YA_NABVAny@CORBA@@AAPBVCOMM_FAILURE@1@@Z
??_2@YA_NABVAny@CORBA@@AAPBVCannotProceed@NamingContext@CosNaming@@@Z
??_2@YA_NABVAny@CORBA@@AAPBVCharSeq@1@@Z
??_2@YA_NABVAny@CORBA@@AAPBVContainedSeq@1@@Z
??_2@YA_NABVAny@CORBA@@AAPBVContextIdSeq@1@@Z
??_2@YA_NABVAny@CORBA@@AAPBVDATA_CONVERSION@1@@Z
??_2@YA_NABVAny@CORBA@@AAPBVDescriptionSeq@Container@1@@Z
??_2@YA_NABVAny@CORBA@@AAPBVDoubleSeq@1@@Z
??_2@YA_NABVAny@CORBA@@AAPBVEnumMemberSeq@1@@Z
??_2@YA_NABVAny@CORBA@@AAPBVExcDescriptionSeq@1@@Z
??_2@YA_NABVAny@CORBA@@AAPBVExceptionDefSeq@1@@Z
??_2@YA_NABVAny@CORBA@@AAPBVFREE_MEM@1@@Z
??_2@YA_NABVAny@CORBA@@AAPBVFloatSeq@1@@Z
??_2@YA_NABVAny@CORBA@@AAPBVForwardRequest@PortableServer@@@Z
??_2@YA_NABVAny@CORBA@@AAPBVIMP_LIMIT@1@@Z
??_2@YA_NABVAny@CORBA@@AAPBVINITIALIZE@1@@Z
??_2@YA_NABVAny@CORBA@@AAPBVINTERNAL@1@@Z
??_2@YA_NABVAny@CORBA@@AAPBVINTF_REPOS@1@@Z
??_2@YA_NABVAny@CORBA@@AAPBVINVALID_TRANSACTION@1@@Z
??_2@YA_NABVAny@CORBA@@AAPBVINV_FLAG@1@@Z
??_2@YA_NABVAny@CORBA@@AAPBVINV_IDENT@1@@Z
??_2@YA_NABVAny@CORBA@@AAPBVINV_OBJREF@1@@Z
??_2@YA_NABVAny@CORBA@@AAPBVINV_POLICY@1@@Z
??_2@YA_NABVAny@CORBA@@AAPBVInconsistentTypeCode@DynAnyFactory@DynamicAny@@@Z
??_2@YA_NABVAny@CORBA@@AAPBVInconsistentTypeCode@ORB@1@@Z
??_2@YA_NABVAny@CORBA@@AAPBVInitializerSeq@1@@Z
??_2@YA_NABVAny@CORBA@@AAPBVInterfaceDefSeq@1@@Z
??_2@YA_NABVAny@CORBA@@AAPBVInvalidAddress@NamingContextExt@CosNaming@@@Z
??_2@YA_NABVAny@CORBA@@AAPBVInvalidName@NamingContext@CosNaming@@@Z
??_2@YA_NABVAny@CORBA@@AAPBVInvalidName@ORB@1@@Z
??_2@YA_NABVAny@CORBA@@AAPBVInvalidPolicy@POA@PortableServer@@@Z
??_2@YA_NABVAny@CORBA@@AAPBVInvalidValue@DynAny@DynamicAny@@@Z
??_2@YA_NABVAny@CORBA@@AAPBVLongLongSeq@1@@Z
??_2@YA_NABVAny@CORBA@@AAPBVLongSeq@1@@Z
??_2@YA_NABVAny@CORBA@@AAPBVMARSHAL@1@@Z
??_2@YA_NABVAny@CORBA@@AAPBVNO_IMPLEMENT@1@@Z
??_2@YA_NABVAny@CORBA@@AAPBVNO_MEMORY@1@@Z
??_2@YA_NABVAny@CORBA@@AAPBVNO_PERMISSION@1@@Z
??_2@YA_NABVAny@CORBA@@AAPBVNO_RESOURCES@1@@Z
??_2@YA_NABVAny@CORBA@@AAPBVNO_RESPONSE@1@@Z
??_2@YA_NABVAny@CORBA@@AAPBVName@CosNaming@@@Z
??_2@YA_NABVAny@CORBA@@AAPBVNoPossiblePollable@PollableSet@1@@Z
??_2@YA_NABVAny@CORBA@@AAPBVNoServant@POA@PortableServer@@@Z
??_2@YA_NABVAny@CORBA@@AAPBVNotEmpty@NamingContext@CosNaming@@@Z
??_2@YA_NABVAny@CORBA@@AAPBVNotFound@NamingContext@CosNaming@@@Z
??_2@YA_NABVAny@CORBA@@AAPBVOBJECT_NOT_EXIST@1@@Z
??_2@YA_NABVAny@CORBA@@AAPBVOBJ_ADAPTER@1@@Z
??_2@YA_NABVAny@CORBA@@AAPBVObjIdList@CORBA_InitialReferences@@@Z
??_2@YA_NABVAny@CORBA@@AAPBVObjectAlreadyActive@POA@PortableServer@@@Z
??_2@YA_NABVAny@CORBA@@AAPBVObjectNotActive@POA@PortableServer@@@Z
??_2@YA_NABVAny@CORBA@@AAPBVOctetSeq@1@@Z
??_2@YA_NABVAny@CORBA@@AAPBVOpDescriptionSeq@1@@Z
??_2@YA_NABVAny@CORBA@@AAPBVPERSIST_STORE@1@@Z
??_2@YA_NABVAny@CORBA@@AAPBVParDescriptionSeq@1@@Z
??_2@YA_NABVAny@CORBA@@AAPBVPolicyError@1@@Z
??_2@YA_NABVAny@CORBA@@AAPBVREBIND@1@@Z
??_2@YA_NABVAny@CORBA@@AAPBVRepositoryIdSeq@1@@Z
??_2@YA_NABVAny@CORBA@@AAPBVServantAlreadyActive@POA@PortableServer@@@Z
??_2@YA_NABVAny@CORBA@@AAPBVServantNotActive@POA@PortableServer@@@Z
??_2@YA_NABVAny@CORBA@@AAPBVShortSeq@1@@Z
??_2@YA_NABVAny@CORBA@@AAPBVStringSeq@1@@Z
??_2@YA_NABVAny@CORBA@@AAPBVStructMemberSeq@1@@Z
??_2@YA_NABVAny@CORBA@@AAPBVTIMEOUT@1@@Z
??_2@YA_NABVAny@CORBA@@AAPBVTRANSACTION_MODE@1@@Z
??_2@YA_NABVAny@CORBA@@AAPBVTRANSACTION_REQUIRED@1@@Z
??_2@YA_NABVAny@CORBA@@AAPBVTRANSACTION_ROLLEDBACK@1@@Z
??_2@YA_NABVAny@CORBA@@AAPBVTRANSACTION_UNAVAILABLE@1@@Z
??_2@YA_NABVAny@CORBA@@AAPBVTRANSIENT@1@@Z
??_2@YA_NABVAny@CORBA@@AAPBVTypeMismatch@DynAny@DynamicAny@@@Z
??_2@YA_NABVAny@CORBA@@AAPBVULongLongSeq@1@@Z
??_2@YA_NABVAny@CORBA@@AAPBVULongSeq@1@@Z
??_2@YA_NABVAny@CORBA@@AAPBVUNKNOWN@1@@Z
??_2@YA_NABVAny@CORBA@@AAPBVUShortSeq@1@@Z
??_2@YA_NABVAny@CORBA@@AAPBVUnionMemberSeq@1@@Z
??_2@YA_NABVAny@CORBA@@AAPBVUnknownPollable@PollableSet@1@@Z
??_2@YA_NABVAny@CORBA@@AAPBVUnknownUserException@1@@Z
??_2@YA_NABVAny@CORBA@@AAPBVValueDefSeq@1@@Z
??_2@YA_NABVAny@CORBA@@AAPBVValueMemberSeq@1@@Z
??_2@YA_NABVAny@CORBA@@AAPBVWCharSeq@1@@Z
??_2@YA_NABVAny@CORBA@@AAPBVWStringSeq@1@@Z
??_2@YA_NABVAny@CORBA@@AAPBVWrongAdapter@POA@PortableServer@@@Z
??_2@YA_NABVAny@CORBA@@AAPBVWrongPolicy@POA@PortableServer@@@Z
??_2@YA_NABVAny@CORBA@@AAPBVWrongTransaction@1@@Z
??_2@YA_NABVAny@CORBA@@AAW4AttributeMode@1@@Z
??_2@YA_NABVAny@CORBA@@AAW4BindingType@CosNaming@@@Z
??_2@YA_NABVAny@CORBA@@AAW4DefinitionKind@1@@Z
??_2@YA_NABVAny@CORBA@@AAW4IdAssignmentPolicyValue@PortableServer@@@Z
??_2@YA_NABVAny@CORBA@@AAW4IdUniquenessPolicyValue@PortableServer@@@Z
??_2@YA_NABVAny@CORBA@@AAW4ImplicitActivationPolicyValue@PortableServer@@@Z
??_2@YA_NABVAny@CORBA@@AAW4LifespanPolicyValue@PortableServer@@@Z
??_2@YA_NABVAny@CORBA@@AAW4NotFoundReason@NamingContext@CosNaming@@@Z
??_2@YA_NABVAny@CORBA@@AAW4OperationMode@1@@Z
??_2@YA_NABVAny@CORBA@@AAW4ParameterMode@1@@Z
??_2@YA_NABVAny@CORBA@@AAW4PrimitiveKind@1@@Z
??_2@YA_NABVAny@CORBA@@AAW4RequestProcessingPolicyValue@PortableServer@@@Z
??_2@YA_NABVAny@CORBA@@AAW4ServantRetentionPolicyValue@PortableServer@@@Z
??_2@YA_NABVAny@CORBA@@AAW4ThreadPolicyValue@PortableServer@@@Z
??_2AlreadyBound@NamingContext@CosNaming@@QBEXAAVcdrStream@@@Z
??_2Any@CORBA@@QBEXAAVcdrStream@@@Z
??_2Any@CORBA@@QBE_NAAF@Z
??_2Any@CORBA@@QBE_NAAG@Z
??_2Any@CORBA@@QBE_NAAJ@Z
??_2Any@CORBA@@QBE_NAAK@Z
??_2Any@CORBA@@QBE_NAAM@Z
??_2Any@CORBA@@QBE_NAAN@Z
??_2Any@CORBA@@QBE_NAAPAV01@@Z
??_2Any@CORBA@@QBE_NAAPAVObject@1@@Z
??_2Any@CORBA@@QBE_NAAPAVTypeCode@1@@Z
??_2Any@CORBA@@QBE_NAAPBD@Z
??_2Any@CORBA@@QBE_NAAPBV01@@Z
??_2Any@CORBA@@QBE_NAAPBVSystemException@1@@Z
??_2Any@CORBA@@QBE_NAAPB_W@Z
??_2Any@CORBA@@QBE_NAAV01@@Z
??_2Any@CORBA@@QBE_NAA_J@Z
??_2Any@CORBA@@QBE_NAA_K@Z
??_2Any@CORBA@@QBE_NUto_abstract_base@01@@Z
??_2Any@CORBA@@QBE_NUto_boolean@01@@Z
??_2Any@CORBA@@QBE_NUto_char@01@@Z
??_2Any@CORBA@@QBE_NUto_fixed@01@@Z
??_2Any@CORBA@@QBE_NUto_object@01@@Z
??_2Any@CORBA@@QBE_NUto_octet@01@@Z
??_2Any@CORBA@@QBE_NUto_string@01@@Z
??_2Any@CORBA@@QBE_NUto_value@01@@Z
??_2Any@CORBA@@QBE_NUto_wchar@01@@Z
??_2Any@CORBA@@QBE_NUto_wstring@01@@Z
??_2Any_var@CORBA@@QBE_NUto_value@Any@1@@Z
??_2AttributeDescription@CORBA@@QBEXAAVcdrStream@@@Z
??_2BadKind@TypeCode@CORBA@@QBEXAAVcdrStream@@@Z
??_2Bounds@ContextList@CORBA@@QBEXAAVcdrStream@@@Z
??_2Bounds@ExceptionList@CORBA@@QBEXAAVcdrStream@@@Z
??_2Bounds@NVList@CORBA@@QBEXAAVcdrStream@@@Z
??_2Bounds@TypeCode@CORBA@@QBEXAAVcdrStream@@@Z
??_2ConstantDescription@CORBA@@QBEXAAVcdrStream@@@Z
??_2Description@Contained@CORBA@@QBEXAAVcdrStream@@@Z
??_2Description@Container@CORBA@@QBEXAAVcdrStream@@@Z
??_2ExceptionDescription@CORBA@@QBEXAAVcdrStream@@@Z
??_2FullInterfaceDescription@InterfaceDef@CORBA@@QBEXAAVcdrStream@@@Z
??_2FullValueDescription@ValueDef@CORBA@@QBEXAAVcdrStream@@@Z
??_2InconsistentTypeCode@DynAnyFactory@DynamicAny@@QBEXAAVcdrStream@@@Z
??_2InconsistentTypeCode@ORB@CORBA@@QBEXAAVcdrStream@@@Z
??_2Initializer@CORBA@@QBEXAAVcdrStream@@@Z
??_2InterfaceDescription@CORBA@@QBEXAAVcdrStream@@@Z
??_2InvalidAddress@NamingContextExt@CosNaming@@QBEXAAVcdrStream@@@Z
??_2InvalidName@NamingContext@CosNaming@@QBEXAAVcdrStream@@@Z
??_2InvalidValue@DynAny@DynamicAny@@QBEXAAVcdrStream@@@Z
??_2ModuleDescription@CORBA@@QBEXAAVcdrStream@@@Z
??_2NoPossiblePollable@PollableSet@CORBA@@QBEXAAVcdrStream@@@Z
??_2NotEmpty@NamingContext@CosNaming@@QBEXAAVcdrStream@@@Z
??_2Object_Member@CORBA@@QBEXAAVcdrStream@@@Z
??_2OperationDescription@CORBA@@QBEXAAVcdrStream@@@Z
??_2ParameterDescription@CORBA@@QBEXAAVcdrStream@@@Z
??_2StructMember@CORBA@@QBEXAAVcdrStream@@@Z
??_2TypeCode_member@CORBA@@QBEXAAVcdrStream@@@Z
??_2TypeDescription@CORBA@@QBEXAAVcdrStream@@@Z
??_2TypeMismatch@DynAny@DynamicAny@@QBEXAAVcdrStream@@@Z
??_2UnionMember@CORBA@@QBEXAAVcdrStream@@@Z
??_2UnknownPollable@PollableSet@CORBA@@QBEXAAVcdrStream@@@Z
??_2ValueDescription@CORBA@@QBEXAAVcdrStream@@@Z
??_2ValueMember@CORBA@@QBEXAAVcdrStream@@@Z
??_2WrongTransaction@CORBA@@QBEXAAVcdrStream@@@Z
??_2_CORBA_Sequence_Boolean@@QBEXAAVcdrStream@@@Z
??_2_CORBA_Sequence_Char@@QBEXAAVcdrStream@@@Z
??_2_CORBA_Sequence_Octet@@QBEXAAVcdrStream@@@Z
??_2_CORBA_Sequence_WChar@@QBEXAAVcdrStream@@@Z
??_3?$_CORBA_Sequence_ObjRef@V_objref_AbstractInterfaceDef@CORBA@@V?$_CORBA_ObjRef_Element@V_objref_AbstractInterfaceDef@CORBA@@VAbstractInterfaceDef_Helper@2@@@VAbstractInterfaceDef_Helper@2@@@QAEXAAVcdrStream@@@Z
??_3?$_CORBA_Sequence_ObjRef@V_objref_Contained@CORBA@@V?$_CORBA_ObjRef_Element@V_objref_Contained@CORBA@@VContained_Helper@2@@@VContained_Helper@2@@@QAEXAAVcdrStream@@@Z
??_3?$_CORBA_Sequence_ObjRef@V_objref_ExceptionDef@CORBA@@V?$_CORBA_ObjRef_Element@V_objref_ExceptionDef@CORBA@@VExceptionDef_Helper@2@@@VExceptionDef_Helper@2@@@QAEXAAVcdrStream@@@Z
??_3?$_CORBA_Sequence_ObjRef@V_objref_InterfaceDef@CORBA@@V?$_CORBA_ObjRef_Element@V_objref_InterfaceDef@CORBA@@VInterfaceDef_Helper@2@@@VInterfaceDef_Helper@2@@@QAEXAAVcdrStream@@@Z
??_3?$_CORBA_Sequence_ObjRef@V_objref_ValueDef@CORBA@@V?$_CORBA_ObjRef_Element@V_objref_ValueDef@CORBA@@VValueDef_Helper@2@@@VValueDef_Helper@2@@@QAEXAAVcdrStream@@@Z
??_3?$_CORBA_Unbounded_Sequence@UAttributeDescription@CORBA@@@@QAEXAAVcdrStream@@@Z
??_3?$_CORBA_Unbounded_Sequence@UBinding@CosNaming@@@@QAEXAAVcdrStream@@@Z
??_3?$_CORBA_Unbounded_Sequence@UDescription@Container@CORBA@@@@QAEXAAVcdrStream@@@Z
??_3?$_CORBA_Unbounded_Sequence@UExceptionDescription@CORBA@@@@QAEXAAVcdrStream@@@Z
??_3?$_CORBA_Unbounded_Sequence@UInitializer@CORBA@@@@QAEXAAVcdrStream@@@Z
??_3?$_CORBA_Unbounded_Sequence@UNameComponent@CosNaming@@@@QAEXAAVcdrStream@@@Z
??_3?$_CORBA_Unbounded_Sequence@UOperationDescription@CORBA@@@@QAEXAAVcdrStream@@@Z
??_3?$_CORBA_Unbounded_Sequence@UParameterDescription@CORBA@@@@QAEXAAVcdrStream@@@Z
??_3?$_CORBA_Unbounded_Sequence@UStructMember@CORBA@@@@QAEXAAVcdrStream@@@Z
??_3?$_CORBA_Unbounded_Sequence@UUnionMember@CORBA@@@@QAEXAAVcdrStream@@@Z
??_3?$_CORBA_Unbounded_Sequence@UValueMember@CORBA@@@@QAEXAAVcdrStream@@@Z
??_3?$_CORBA_Unbounded_Sequence@VAny@CORBA@@@@QAEXAAVcdrStream@@@Z
??_3?$_CORBA_Unbounded_Sequence_w_FixSizeElement@F$01$01@@QAEXAAVcdrStream@@@Z
??_3?$_CORBA_Unbounded_Sequence_w_FixSizeElement@G$01$01@@QAEXAAVcdrStream@@@Z
??_3?$_CORBA_Unbounded_Sequence_w_FixSizeElement@J$03$03@@QAEXAAVcdrStream@@@Z
??_3?$_CORBA_Unbounded_Sequence_w_FixSizeElement@K$03$03@@QAEXAAVcdrStream@@@Z
??_3?$_CORBA_Unbounded_Sequence_w_FixSizeElement@M$03$03@@QAEXAAVcdrStream@@@Z
??_3?$_CORBA_Unbounded_Sequence_w_FixSizeElement@N$07$07@@QAEXAAVcdrStream@@@Z
??_3?$_CORBA_Unbounded_Sequence_w_FixSizeElement@_J$07$07@@QAEXAAVcdrStream@@@Z
??_3?$_CORBA_Unbounded_Sequence_w_FixSizeElement@_K$07$07@@QAEXAAVcdrStream@@@Z
??_3@YAXAAFAAVcdrStream@@@Z
??_3@YAXAAGAAVcdrStream@@@Z
??_3@YAXAAJAAVcdrStream@@@Z
??_3@YAXAAKAAVcdrStream@@@Z
??_3@YAXAAMAAVcdrStream@@@Z
??_3@YAXAANAAVcdrStream@@@Z
??_3@YAXAAVAny@CORBA@@ABUAttributeDescription@1@@Z
??_3@YAXAAVAny@CORBA@@ABUBinding@CosNaming@@@Z
??_3@YAXAAVAny@CORBA@@ABUConstantDescription@1@@Z
??_3@YAXAAVAny@CORBA@@ABUDescription@Contained@1@@Z
??_3@YAXAAVAny@CORBA@@ABUDescription@Container@1@@Z
??_3@YAXAAVAny@CORBA@@ABUExceptionDescription@1@@Z
??_3@YAXAAVAny@CORBA@@ABUFullInterfaceDescription@InterfaceDef@1@@Z
??_3@YAXAAVAny@CORBA@@ABUFullValueDescription@ValueDef@1@@Z
??_3@YAXAAVAny@CORBA@@ABUInitializer@1@@Z
??_3@YAXAAVAny@CORBA@@ABUInterfaceDescription@1@@Z
??_3@YAXAAVAny@CORBA@@ABUModuleDescription@1@@Z
??_3@YAXAAVAny@CORBA@@ABUNameComponent@CosNaming@@@Z
??_3@YAXAAVAny@CORBA@@ABUOperationDescription@1@@Z
??_3@YAXAAVAny@CORBA@@ABUParameterDescription@1@@Z
??_3@YAXAAVAny@CORBA@@ABUStructMember@1@@Z
??_3@YAXAAVAny@CORBA@@ABUTypeDescription@1@@Z
??_3@YAXAAVAny@CORBA@@ABUUnionMember@1@@Z
??_3@YAXAAVAny@CORBA@@ABUValueDescription@1@@Z
??_3@YAXAAVAny@CORBA@@ABUValueMember@1@@Z
??_3@YAXAAVAny@CORBA@@ABVAbstractInterfaceDefSeq@1@@Z
??_3@YAXAAVAny@CORBA@@ABVAdapterAlreadyExists@POA@PortableServer@@@Z
??_3@YAXAAVAny@CORBA@@ABVAdapterInactive@POAManager@PortableServer@@@Z
??_3@YAXAAVAny@CORBA@@ABVAdapterNonExistent@POA@PortableServer@@@Z
??_3@YAXAAVAny@CORBA@@ABVAlreadyBound@NamingContext@CosNaming@@@Z
??_3@YAXAAVAny@CORBA@@ABVAnySeq@1@@Z
??_3@YAXAAVAny@CORBA@@ABVAttrDescriptionSeq@1@@Z
??_3@YAXAAVAny@CORBA@@ABVBAD_CONTEXT@1@@Z
??_3@YAXAAVAny@CORBA@@ABVBAD_INV_ORDER@1@@Z
??_3@YAXAAVAny@CORBA@@ABVBAD_OPERATION@1@@Z
??_3@YAXAAVAny@CORBA@@ABVBAD_PARAM@1@@Z
??_3@YAXAAVAny@CORBA@@ABVBAD_QOS@1@@Z
??_3@YAXAAVAny@CORBA@@ABVBAD_TYPECODE@1@@Z
??_3@YAXAAVAny@CORBA@@ABVBadKind@TypeCode@1@@Z
??_3@YAXAAVAny@CORBA@@ABVBindingList@CosNaming@@@Z
??_3@YAXAAVAny@CORBA@@ABVBooleanSeq@1@@Z
??_3@YAXAAVAny@CORBA@@ABVBounds@ContextList@1@@Z
??_3@YAXAAVAny@CORBA@@ABVBounds@ExceptionList@1@@Z
??_3@YAXAAVAny@CORBA@@ABVBounds@NVList@1@@Z
??_3@YAXAAVAny@CORBA@@ABVBounds@TypeCode@1@@Z
??_3@YAXAAVAny@CORBA@@ABVCODESET_INCOMPATIBLE@1@@Z
??_3@YAXAAVAny@CORBA@@ABVCOMM_FAILURE@1@@Z
??_3@YAXAAVAny@CORBA@@ABVCannotProceed@NamingContext@CosNaming@@@Z
??_3@YAXAAVAny@CORBA@@ABVCharSeq@1@@Z
??_3@YAXAAVAny@CORBA@@ABVContainedSeq@1@@Z
??_3@YAXAAVAny@CORBA@@ABVContextIdSeq@1@@Z
??_3@YAXAAVAny@CORBA@@ABVDATA_CONVERSION@1@@Z
??_3@YAXAAVAny@CORBA@@ABVDescriptionSeq@Container@1@@Z
??_3@YAXAAVAny@CORBA@@ABVDoubleSeq@1@@Z
??_3@YAXAAVAny@CORBA@@ABVEnumMemberSeq@1@@Z
??_3@YAXAAVAny@CORBA@@ABVExcDescriptionSeq@1@@Z
??_3@YAXAAVAny@CORBA@@ABVException@1@@Z
??_3@YAXAAVAny@CORBA@@ABVExceptionDefSeq@1@@Z
??_3@YAXAAVAny@CORBA@@ABVFREE_MEM@1@@Z
??_3@YAXAAVAny@CORBA@@ABVFloatSeq@1@@Z
??_3@YAXAAVAny@CORBA@@ABVForwardRequest@PortableServer@@@Z
??_3@YAXAAVAny@CORBA@@ABVIMP_LIMIT@1@@Z
??_3@YAXAAVAny@CORBA@@ABVINITIALIZE@1@@Z
??_3@YAXAAVAny@CORBA@@ABVINTERNAL@1@@Z
??_3@YAXAAVAny@CORBA@@ABVINTF_REPOS@1@@Z
??_3@YAXAAVAny@CORBA@@ABVINVALID_TRANSACTION@1@@Z
??_3@YAXAAVAny@CORBA@@ABVINV_FLAG@1@@Z
??_3@YAXAAVAny@CORBA@@ABVINV_IDENT@1@@Z
??_3@YAXAAVAny@CORBA@@ABVINV_OBJREF@1@@Z
??_3@YAXAAVAny@CORBA@@ABVINV_POLICY@1@@Z
??_3@YAXAAVAny@CORBA@@ABVInconsistentTypeCode@DynAnyFactory@DynamicAny@@@Z
??_3@YAXAAVAny@CORBA@@ABVInconsistentTypeCode@ORB@1@@Z
??_3@YAXAAVAny@CORBA@@ABVInitializerSeq@1@@Z
??_3@YAXAAVAny@CORBA@@ABVInterfaceDefSeq@1@@Z
??_3@YAXAAVAny@CORBA@@ABVInvalidAddress@NamingContextExt@CosNaming@@@Z
??_3@YAXAAVAny@CORBA@@ABVInvalidName@NamingContext@CosNaming@@@Z
??_3@YAXAAVAny@CORBA@@ABVInvalidName@ORB@1@@Z
??_3@YAXAAVAny@CORBA@@ABVInvalidPolicy@POA@PortableServer@@@Z
??_3@YAXAAVAny@CORBA@@ABVInvalidValue@DynAny@DynamicAny@@@Z
??_3@YAXAAVAny@CORBA@@ABVLongLongSeq@1@@Z
??_3@YAXAAVAny@CORBA@@ABVLongSeq@1@@Z
??_3@YAXAAVAny@CORBA@@ABVMARSHAL@1@@Z
??_3@YAXAAVAny@CORBA@@ABVNO_IMPLEMENT@1@@Z
??_3@YAXAAVAny@CORBA@@ABVNO_MEMORY@1@@Z
??_3@YAXAAVAny@CORBA@@ABVNO_PERMISSION@1@@Z
??_3@YAXAAVAny@CORBA@@ABVNO_RESOURCES@1@@Z
??_3@YAXAAVAny@CORBA@@ABVNO_RESPONSE@1@@Z
??_3@YAXAAVAny@CORBA@@ABVName@CosNaming@@@Z
??_3@YAXAAVAny@CORBA@@ABVNoPossiblePollable@PollableSet@1@@Z
??_3@YAXAAVAny@CORBA@@ABVNoServant@POA@PortableServer@@@Z
??_3@YAXAAVAny@CORBA@@ABVNotEmpty@NamingContext@CosNaming@@@Z
??_3@YAXAAVAny@CORBA@@ABVNotFound@NamingContext@CosNaming@@@Z
??_3@YAXAAVAny@CORBA@@ABVOBJECT_NOT_EXIST@1@@Z
??_3@YAXAAVAny@CORBA@@ABVOBJ_ADAPTER@1@@Z
??_3@YAXAAVAny@CORBA@@ABVObjIdList@CORBA_InitialReferences@@@Z
??_3@YAXAAVAny@CORBA@@ABVObjectAlreadyActive@POA@PortableServer@@@Z
??_3@YAXAAVAny@CORBA@@ABVObjectNotActive@POA@PortableServer@@@Z
??_3@YAXAAVAny@CORBA@@ABVOctetSeq@1@@Z
??_3@YAXAAVAny@CORBA@@ABVOpDescriptionSeq@1@@Z
??_3@YAXAAVAny@CORBA@@ABVPERSIST_STORE@1@@Z
??_3@YAXAAVAny@CORBA@@ABVParDescriptionSeq@1@@Z
??_3@YAXAAVAny@CORBA@@ABVPolicyError@1@@Z
??_3@YAXAAVAny@CORBA@@ABVREBIND@1@@Z
??_3@YAXAAVAny@CORBA@@ABVRepositoryIdSeq@1@@Z
??_3@YAXAAVAny@CORBA@@ABVServantAlreadyActive@POA@PortableServer@@@Z
??_3@YAXAAVAny@CORBA@@ABVServantNotActive@POA@PortableServer@@@Z
??_3@YAXAAVAny@CORBA@@ABVShortSeq@1@@Z
??_3@YAXAAVAny@CORBA@@ABVStringSeq@1@@Z
??_3@YAXAAVAny@CORBA@@ABVStructMemberSeq@1@@Z
??_3@YAXAAVAny@CORBA@@ABVTIMEOUT@1@@Z
??_3@YAXAAVAny@CORBA@@ABVTRANSACTION_MODE@1@@Z
??_3@YAXAAVAny@CORBA@@ABVTRANSACTION_REQUIRED@1@@Z
??_3@YAXAAVAny@CORBA@@ABVTRANSACTION_ROLLEDBACK@1@@Z
??_3@YAXAAVAny@CORBA@@ABVTRANSACTION_UNAVAILABLE@1@@Z
??_3@YAXAAVAny@CORBA@@ABVTRANSIENT@1@@Z
??_3@YAXAAVAny@CORBA@@ABVTypeMismatch@DynAny@DynamicAny@@@Z
??_3@YAXAAVAny@CORBA@@ABVULongLongSeq@1@@Z
??_3@YAXAAVAny@CORBA@@ABVULongSeq@1@@Z
??_3@YAXAAVAny@CORBA@@ABVUNKNOWN@1@@Z
??_3@YAXAAVAny@CORBA@@ABVUShortSeq@1@@Z
??_3@YAXAAVAny@CORBA@@ABVUnionMemberSeq@1@@Z
??_3@YAXAAVAny@CORBA@@ABVUnknownPollable@PollableSet@1@@Z
??_3@YAXAAVAny@CORBA@@ABVUnknownUserException@1@@Z
??_3@YAXAAVAny@CORBA@@ABVValueDefSeq@1@@Z
??_3@YAXAAVAny@CORBA@@ABVValueMemberSeq@1@@Z
??_3@YAXAAVAny@CORBA@@ABVWCharSeq@1@@Z
??_3@YAXAAVAny@CORBA@@ABVWStringSeq@1@@Z
??_3@YAXAAVAny@CORBA@@ABVWrongAdapter@POA@PortableServer@@@Z
??_3@YAXAAVAny@CORBA@@ABVWrongPolicy@POA@PortableServer@@@Z
??_3@YAXAAVAny@CORBA@@ABVWrongTransaction@1@@Z
??_3@YAXAAVAny@CORBA@@PAPAVDIIPollable@1@@Z
??_3@YAXAAVAny@CORBA@@PAPAVPollable@1@@Z
??_3@YAXAAVAny@CORBA@@PAPAVPollableSet@1@@Z
??_3@YAXAAVAny@CORBA@@PAPAVStringValue@1@@Z
??_3@YAXAAVAny@CORBA@@PAPAVWStringValue@1@@Z
??_3@YAXAAVAny@CORBA@@PAPAV_objref_AbstractInterfaceDef@1@@Z
??_3@YAXAAVAny@CORBA@@PAPAV_objref_AliasDef@1@@Z
??_3@YAXAAVAny@CORBA@@PAPAV_objref_ArrayDef@1@@Z
??_3@YAXAAVAny@CORBA@@PAPAV_objref_AttributeDef@1@@Z
??_3@YAXAAVAny@CORBA@@PAPAV_objref_BindingIterator@CosNaming@@@Z
??_3@YAXAAVAny@CORBA@@PAPAV_objref_CORBA_InitialReferences@@@Z
??_3@YAXAAVAny@CORBA@@PAPAV_objref_ConstantDef@1@@Z
??_3@YAXAAVAny@CORBA@@PAPAV_objref_Contained@1@@Z
??_3@YAXAAVAny@CORBA@@PAPAV_objref_Container@1@@Z
??_3@YAXAAVAny@CORBA@@PAPAV_objref_EnumDef@1@@Z
??_3@YAXAAVAny@CORBA@@PAPAV_objref_ExceptionDef@1@@Z
??_3@YAXAAVAny@CORBA@@PAPAV_objref_FixedDef@1@@Z
??_3@YAXAAVAny@CORBA@@PAPAV_objref_IDLType@1@@Z
??_3@YAXAAVAny@CORBA@@PAPAV_objref_IRObject@1@@Z
??_3@YAXAAVAny@CORBA@@PAPAV_objref_InterfaceDef@1@@Z
??_3@YAXAAVAny@CORBA@@PAPAV_objref_ModuleDef@1@@Z
??_3@YAXAAVAny@CORBA@@PAPAV_objref_NamingContext@CosNaming@@@Z
??_3@YAXAAVAny@CORBA@@PAPAV_objref_NamingContextExt@CosNaming@@@Z
??_3@YAXAAVAny@CORBA@@PAPAV_objref_NativeDef@1@@Z
??_3@YAXAAVAny@CORBA@@PAPAV_objref_OperationDef@1@@Z
??_3@YAXAAVAny@CORBA@@PAPAV_objref_PrimitiveDef@1@@Z
??_3@YAXAAVAny@CORBA@@PAPAV_objref_Repository@1@@Z
??_3@YAXAAVAny@CORBA@@PAPAV_objref_SequenceDef@1@@Z
??_3@YAXAAVAny@CORBA@@PAPAV_objref_StringDef@1@@Z
??_3@YAXAAVAny@CORBA@@PAPAV_objref_StructDef@1@@Z
??_3@YAXAAVAny@CORBA@@PAPAV_objref_TypedefDef@1@@Z
??_3@YAXAAVAny@CORBA@@PAPAV_objref_UnionDef@1@@Z
??_3@YAXAAVAny@CORBA@@PAPAV_objref_ValueBoxDef@1@@Z
??_3@YAXAAVAny@CORBA@@PAPAV_objref_ValueDef@1@@Z
??_3@YAXAAVAny@CORBA@@PAPAV_objref_ValueMemberDef@1@@Z
??_3@YAXAAVAny@CORBA@@PAPAV_objref_WstringDef@1@@Z
??_3@YAXAAVAny@CORBA@@PAUAttributeDescription@1@@Z
??_3@YAXAAVAny@CORBA@@PAUBinding@CosNaming@@@Z
??_3@YAXAAVAny@CORBA@@PAUConstantDescription@1@@Z
??_3@YAXAAVAny@CORBA@@PAUDescription@Contained@1@@Z
??_3@YAXAAVAny@CORBA@@PAUDescription@Container@1@@Z
??_3@YAXAAVAny@CORBA@@PAUExceptionDescription@1@@Z
??_3@YAXAAVAny@CORBA@@PAUFullInterfaceDescription@InterfaceDef@1@@Z
??_3@YAXAAVAny@CORBA@@PAUFullValueDescription@ValueDef@1@@Z
??_3@YAXAAVAny@CORBA@@PAUInitializer@1@@Z
??_3@YAXAAVAny@CORBA@@PAUInterfaceDescription@1@@Z
??_3@YAXAAVAny@CORBA@@PAUModuleDescription@1@@Z
??_3@YAXAAVAny@CORBA@@PAUNameComponent@CosNaming@@@Z
??_3@YAXAAVAny@CORBA@@PAUOperationDescription@1@@Z
??_3@YAXAAVAny@CORBA@@PAUParameterDescription@1@@Z
??_3@YAXAAVAny@CORBA@@PAUStructMember@1@@Z
??_3@YAXAAVAny@CORBA@@PAUTypeDescription@1@@Z
??_3@YAXAAVAny@CORBA@@PAUUnionMember@1@@Z
??_3@YAXAAVAny@CORBA@@PAUValueDescription@1@@Z
??_3@YAXAAVAny@CORBA@@PAUValueMember@1@@Z
??_3@YAXAAVAny@CORBA@@PAVAbstractInterfaceDefSeq@1@@Z
??_3@YAXAAVAny@CORBA@@PAVAnySeq@1@@Z
??_3@YAXAAVAny@CORBA@@PAVAttrDescriptionSeq@1@@Z
??_3@YAXAAVAny@CORBA@@PAVBindingList@CosNaming@@@Z
??_3@YAXAAVAny@CORBA@@PAVBooleanSeq@1@@Z
??_3@YAXAAVAny@CORBA@@PAVCharSeq@1@@Z
??_3@YAXAAVAny@CORBA@@PAVContainedSeq@1@@Z
??_3@YAXAAVAny@CORBA@@PAVContextIdSeq@1@@Z
??_3@YAXAAVAny@CORBA@@PAVDIIPollable@1@@Z
??_3@YAXAAVAny@CORBA@@PAVDescriptionSeq@Container@1@@Z
??_3@YAXAAVAny@CORBA@@PAVDoubleSeq@1@@Z
??_3@YAXAAVAny@CORBA@@PAVEnumMemberSeq@1@@Z
??_3@YAXAAVAny@CORBA@@PAVExcDescriptionSeq@1@@Z
??_3@YAXAAVAny@CORBA@@PAVExceptionDefSeq@1@@Z
??_3@YAXAAVAny@CORBA@@PAVFloatSeq@1@@Z
??_3@YAXAAVAny@CORBA@@PAVInitializerSeq@1@@Z
??_3@YAXAAVAny@CORBA@@PAVInterfaceDefSeq@1@@Z
??_3@YAXAAVAny@CORBA@@PAVLongLongSeq@1@@Z
??_3@YAXAAVAny@CORBA@@PAVLongSeq@1@@Z
??_3@YAXAAVAny@CORBA@@PAVName@CosNaming@@@Z
??_3@YAXAAVAny@CORBA@@PAVObjIdList@CORBA_InitialReferences@@@Z
??_3@YAXAAVAny@CORBA@@PAVOctetSeq@1@@Z
??_3@YAXAAVAny@CORBA@@PAVOpDescriptionSeq@1@@Z
??_3@YAXAAVAny@CORBA@@PAVParDescriptionSeq@1@@Z
??_3@YAXAAVAny@CORBA@@PAVPollable@1@@Z
??_3@YAXAAVAny@CORBA@@PAVPollableSet@1@@Z
??_3@YAXAAVAny@CORBA@@PAVRepositoryIdSeq@1@@Z
??_3@YAXAAVAny@CORBA@@PAVShortSeq@1@@Z
??_3@YAXAAVAny@CORBA@@PAVStringSeq@1@@Z
??_3@YAXAAVAny@CORBA@@PAVStringValue@1@@Z
??_3@YAXAAVAny@CORBA@@PAVStructMemberSeq@1@@Z
??_3@YAXAAVAny@CORBA@@PAVULongLongSeq@1@@Z
??_3@YAXAAVAny@CORBA@@PAVULongSeq@1@@Z
??_3@YAXAAVAny@CORBA@@PAVUShortSeq@1@@Z
??_3@YAXAAVAny@CORBA@@PAVUnionMemberSeq@1@@Z
??_3@YAXAAVAny@CORBA@@PAVValueDefSeq@1@@Z
??_3@YAXAAVAny@CORBA@@PAVValueMemberSeq@1@@Z
??_3@YAXAAVAny@CORBA@@PAVWCharSeq@1@@Z
??_3@YAXAAVAny@CORBA@@PAVWStringSeq@1@@Z
??_3@YAXAAVAny@CORBA@@PAVWStringValue@1@@Z
??_3@YAXAAVAny@CORBA@@PAV_objref_AbstractInterfaceDef@1@@Z
??_3@YAXAAVAny@CORBA@@PAV_objref_AliasDef@1@@Z
??_3@YAXAAVAny@CORBA@@PAV_objref_ArrayDef@1@@Z
??_3@YAXAAVAny@CORBA@@PAV_objref_AttributeDef@1@@Z
??_3@YAXAAVAny@CORBA@@PAV_objref_BindingIterator@CosNaming@@@Z
??_3@YAXAAVAny@CORBA@@PAV_objref_CORBA_InitialReferences@@@Z
??_3@YAXAAVAny@CORBA@@PAV_objref_ConstantDef@1@@Z
??_3@YAXAAVAny@CORBA@@PAV_objref_Contained@1@@Z
??_3@YAXAAVAny@CORBA@@PAV_objref_Container@1@@Z
??_3@YAXAAVAny@CORBA@@PAV_objref_EnumDef@1@@Z
??_3@YAXAAVAny@CORBA@@PAV_objref_ExceptionDef@1@@Z
??_3@YAXAAVAny@CORBA@@PAV_objref_FixedDef@1@@Z
??_3@YAXAAVAny@CORBA@@PAV_objref_IDLType@1@@Z
??_3@YAXAAVAny@CORBA@@PAV_objref_IRObject@1@@Z
??_3@YAXAAVAny@CORBA@@PAV_objref_InterfaceDef@1@@Z
??_3@YAXAAVAny@CORBA@@PAV_objref_ModuleDef@1@@Z
??_3@YAXAAVAny@CORBA@@PAV_objref_NamingContext@CosNaming@@@Z
??_3@YAXAAVAny@CORBA@@PAV_objref_NamingContextExt@CosNaming@@@Z
??_3@YAXAAVAny@CORBA@@PAV_objref_NativeDef@1@@Z
??_3@YAXAAVAny@CORBA@@PAV_objref_OperationDef@1@@Z
??_3@YAXAAVAny@CORBA@@PAV_objref_PrimitiveDef@1@@Z
??_3@YAXAAVAny@CORBA@@PAV_objref_Repository@1@@Z
??_3@YAXAAVAny@CORBA@@PAV_objref_SequenceDef@1@@Z
??_3@YAXAAVAny@CORBA@@PAV_objref_StringDef@1@@Z
??_3@YAXAAVAny@CORBA@@PAV_objref_StructDef@1@@Z
??_3@YAXAAVAny@CORBA@@PAV_objref_TypedefDef@1@@Z
??_3@YAXAAVAny@CORBA@@PAV_objref_UnionDef@1@@Z
??_3@YAXAAVAny@CORBA@@PAV_objref_ValueBoxDef@1@@Z
??_3@YAXAAVAny@CORBA@@PAV_objref_ValueDef@1@@Z
??_3@YAXAAVAny@CORBA@@PAV_objref_ValueMemberDef@1@@Z
??_3@YAXAAVAny@CORBA@@PAV_objref_WstringDef@1@@Z
??_3@YAXAAVAny@CORBA@@PBVAdapterAlreadyExists@POA@PortableServer@@@Z
??_3@YAXAAVAny@CORBA@@PBVAdapterInactive@POAManager@PortableServer@@@Z
??_3@YAXAAVAny@CORBA@@PBVAdapterNonExistent@POA@PortableServer@@@Z
??_3@YAXAAVAny@CORBA@@PBVAlreadyBound@NamingContext@CosNaming@@@Z
??_3@YAXAAVAny@CORBA@@PBVBAD_CONTEXT@1@@Z
??_3@YAXAAVAny@CORBA@@PBVBAD_INV_ORDER@1@@Z
??_3@YAXAAVAny@CORBA@@PBVBAD_OPERATION@1@@Z
??_3@YAXAAVAny@CORBA@@PBVBAD_PARAM@1@@Z
??_3@YAXAAVAny@CORBA@@PBVBAD_QOS@1@@Z
??_3@YAXAAVAny@CORBA@@PBVBAD_TYPECODE@1@@Z
??_3@YAXAAVAny@CORBA@@PBVBadKind@TypeCode@1@@Z
??_3@YAXAAVAny@CORBA@@PBVBounds@ContextList@1@@Z
??_3@YAXAAVAny@CORBA@@PBVBounds@ExceptionList@1@@Z
??_3@YAXAAVAny@CORBA@@PBVBounds@NVList@1@@Z
??_3@YAXAAVAny@CORBA@@PBVBounds@TypeCode@1@@Z
??_3@YAXAAVAny@CORBA@@PBVCODESET_INCOMPATIBLE@1@@Z
??_3@YAXAAVAny@CORBA@@PBVCOMM_FAILURE@1@@Z
??_3@YAXAAVAny@CORBA@@PBVCannotProceed@NamingContext@CosNaming@@@Z
??_3@YAXAAVAny@CORBA@@PBVDATA_CONVERSION@1@@Z
??_3@YAXAAVAny@CORBA@@PBVException@1@@Z
??_3@YAXAAVAny@CORBA@@PBVFREE_MEM@1@@Z
??_3@YAXAAVAny@CORBA@@PBVForwardRequest@PortableServer@@@Z
??_3@YAXAAVAny@CORBA@@PBVIMP_LIMIT@1@@Z
??_3@YAXAAVAny@CORBA@@PBVINITIALIZE@1@@Z
??_3@YAXAAVAny@CORBA@@PBVINTERNAL@1@@Z
??_3@YAXAAVAny@CORBA@@PBVINTF_REPOS@1@@Z
??_3@YAXAAVAny@CORBA@@PBVINVALID_TRANSACTION@1@@Z
??_3@YAXAAVAny@CORBA@@PBVINV_FLAG@1@@Z
??_3@YAXAAVAny@CORBA@@PBVINV_IDENT@1@@Z
??_3@YAXAAVAny@CORBA@@PBVINV_OBJREF@1@@Z
??_3@YAXAAVAny@CORBA@@PBVINV_POLICY@1@@Z
??_3@YAXAAVAny@CORBA@@PBVInconsistentTypeCode@DynAnyFactory@DynamicAny@@@Z
??_3@YAXAAVAny@CORBA@@PBVInconsistentTypeCode@ORB@1@@Z
??_3@YAXAAVAny@CORBA@@PBVInvalidAddress@NamingContextExt@CosNaming@@@Z
??_3@YAXAAVAny@CORBA@@PBVInvalidName@NamingContext@CosNaming@@@Z
??_3@YAXAAVAny@CORBA@@PBVInvalidName@ORB@1@@Z
??_3@YAXAAVAny@CORBA@@PBVInvalidPolicy@POA@PortableServer@@@Z
??_3@YAXAAVAny@CORBA@@PBVInvalidValue@DynAny@DynamicAny@@@Z
??_3@YAXAAVAny@CORBA@@PBVMARSHAL@1@@Z
??_3@YAXAAVAny@CORBA@@PBVNO_IMPLEMENT@1@@Z
??_3@YAXAAVAny@CORBA@@PBVNO_MEMORY@1@@Z
??_3@YAXAAVAny@CORBA@@PBVNO_PERMISSION@1@@Z
??_3@YAXAAVAny@CORBA@@PBVNO_RESOURCES@1@@Z
??_3@YAXAAVAny@CORBA@@PBVNO_RESPONSE@1@@Z
??_3@YAXAAVAny@CORBA@@PBVNoPossiblePollable@PollableSet@1@@Z
??_3@YAXAAVAny@CORBA@@PBVNoServant@POA@PortableServer@@@Z
??_3@YAXAAVAny@CORBA@@PBVNotEmpty@NamingContext@CosNaming@@@Z
??_3@YAXAAVAny@CORBA@@PBVNotFound@NamingContext@CosNaming@@@Z
??_3@YAXAAVAny@CORBA@@PBVOBJECT_NOT_EXIST@1@@Z
??_3@YAXAAVAny@CORBA@@PBVOBJ_ADAPTER@1@@Z
??_3@YAXAAVAny@CORBA@@PBVObjectAlreadyActive@POA@PortableServer@@@Z
??_3@YAXAAVAny@CORBA@@PBVObjectNotActive@POA@PortableServer@@@Z
??_3@YAXAAVAny@CORBA@@PBVPERSIST_STORE@1@@Z
??_3@YAXAAVAny@CORBA@@PBVPolicyError@1@@Z
??_3@YAXAAVAny@CORBA@@PBVREBIND@1@@Z
??_3@YAXAAVAny@CORBA@@PBVServantAlreadyActive@POA@PortableServer@@@Z
??_3@YAXAAVAny@CORBA@@PBVServantNotActive@POA@PortableServer@@@Z
??_3@YAXAAVAny@CORBA@@PBVTIMEOUT@1@@Z
??_3@YAXAAVAny@CORBA@@PBVTRANSACTION_MODE@1@@Z
??_3@YAXAAVAny@CORBA@@PBVTRANSACTION_REQUIRED@1@@Z
??_3@YAXAAVAny@CORBA@@PBVTRANSACTION_ROLLEDBACK@1@@Z
??_3@YAXAAVAny@CORBA@@PBVTRANSACTION_UNAVAILABLE@1@@Z
??_3@YAXAAVAny@CORBA@@PBVTRANSIENT@1@@Z
??_3@YAXAAVAny@CORBA@@PBVTypeMismatch@DynAny@DynamicAny@@@Z
??_3@YAXAAVAny@CORBA@@PBVUNKNOWN@1@@Z
??_3@YAXAAVAny@CORBA@@PBVUnknownPollable@PollableSet@1@@Z
??_3@YAXAAVAny@CORBA@@PBVUnknownUserException@1@@Z
??_3@YAXAAVAny@CORBA@@PBVWrongAdapter@POA@PortableServer@@@Z
??_3@YAXAAVAny@CORBA@@PBVWrongPolicy@POA@PortableServer@@@Z
??_3@YAXAAVAny@CORBA@@PBVWrongTransaction@1@@Z
??_3@YAXAAVAny@CORBA@@W4AttributeMode@1@@Z
??_3@YAXAAVAny@CORBA@@W4BindingType@CosNaming@@@Z
??_3@YAXAAVAny@CORBA@@W4DefinitionKind@1@@Z
??_3@YAXAAVAny@CORBA@@W4IdAssignmentPolicyValue@PortableServer@@@Z
??_3@YAXAAVAny@CORBA@@W4IdUniquenessPolicyValue@PortableServer@@@Z
??_3@YAXAAVAny@CORBA@@W4ImplicitActivationPolicyValue@PortableServer@@@Z
??_3@YAXAAVAny@CORBA@@W4LifespanPolicyValue@PortableServer@@@Z
??_3@YAXAAVAny@CORBA@@W4NotFoundReason@NamingContext@CosNaming@@@Z
??_3@YAXAAVAny@CORBA@@W4OperationMode@1@@Z
??_3@YAXAAVAny@CORBA@@W4ParameterMode@1@@Z
??_3@YAXAAVAny@CORBA@@W4PrimitiveKind@1@@Z
??_3@YAXAAVAny@CORBA@@W4RequestProcessingPolicyValue@PortableServer@@@Z
??_3@YAXAAVAny@CORBA@@W4ServantRetentionPolicyValue@PortableServer@@@Z
??_3@YAXAAVAny@CORBA@@W4ThreadPolicyValue@PortableServer@@@Z
??_3@YAXAAW4AttributeMode@CORBA@@AAVcdrStream@@@Z
??_3@YAXAAW4BindingType@CosNaming@@AAVcdrStream@@@Z
??_3@YAXAAW4DefinitionKind@CORBA@@AAVcdrStream@@@Z
??_3@YAXAAW4IdAssignmentPolicyValue@PortableServer@@AAVcdrStream@@@Z
??_3@YAXAAW4IdUniquenessPolicyValue@PortableServer@@AAVcdrStream@@@Z
??_3@YAXAAW4ImplicitActivationPolicyValue@PortableServer@@AAVcdrStream@@@Z
??_3@YAXAAW4LifespanPolicyValue@PortableServer@@AAVcdrStream@@@Z
??_3@YAXAAW4NotFoundReason@NamingContext@CosNaming@@AAVcdrStream@@@Z
??_3@YAXAAW4OperationMode@CORBA@@AAVcdrStream@@@Z
??_3@YAXAAW4ParameterMode@CORBA@@AAVcdrStream@@@Z
??_3@YAXAAW4PrimitiveKind@CORBA@@AAVcdrStream@@@Z
??_3@YAXAAW4RequestProcessingPolicyValue@PortableServer@@AAVcdrStream@@@Z
??_3@YAXAAW4ServantRetentionPolicyValue@PortableServer@@AAVcdrStream@@@Z
??_3@YAXAAW4ThreadPolicyValue@PortableServer@@AAVcdrStream@@@Z
??_3@YAXAA_JAAVcdrStream@@@Z
??_3@YAXAA_KAAVcdrStream@@@Z
??_3AdapterAlreadyExists@POA@PortableServer@@QAEXAAVcdrStream@@@Z
??_3AdapterInactive@POAManager@PortableServer@@QAEXAAVcdrStream@@@Z
??_3AdapterNonExistent@POA@PortableServer@@QAEXAAVcdrStream@@@Z
??_3AlreadyBound@NamingContext@CosNaming@@QAEXAAVcdrStream@@@Z
??_3Any@CORBA@@QAEXAAVcdrStream@@@Z
??_3Any@CORBA@@QAEXABV01@@Z
??_3Any@CORBA@@QAEXF@Z
??_3Any@CORBA@@QAEXG@Z
??_3Any@CORBA@@QAEXJ@Z
??_3Any@CORBA@@QAEXK@Z
??_3Any@CORBA@@QAEXM@Z
??_3Any@CORBA@@QAEXN@Z
??_3Any@CORBA@@QAEXPAPAVObject@1@@Z
??_3Any@CORBA@@QAEXPAPAVTypeCode@1@@Z
??_3Any@CORBA@@QAEXPAV01@@Z
??_3Any@CORBA@@QAEXPAVObject@1@@Z
??_3Any@CORBA@@QAEXPAVTypeCode@1@@Z
??_3Any@CORBA@@QAEXPBD@Z
??_3Any@CORBA@@QAEXPB_W@Z
??_3Any@CORBA@@QAEXUfrom_boolean@01@@Z
??_3Any@CORBA@@QAEXUfrom_char@01@@Z
??_3Any@CORBA@@QAEXUfrom_fixed@01@@Z
??_3Any@CORBA@@QAEXUfrom_octet@01@@Z
??_3Any@CORBA@@QAEXUfrom_string@01@@Z
??_3Any@CORBA@@QAEXUfrom_wchar@01@@Z
??_3Any@CORBA@@QAEXUfrom_wstring@01@@Z
??_3Any@CORBA@@QAEX_J@Z
??_3Any@CORBA@@QAEX_K@Z
??_3AttributeDescription@CORBA@@QAEXAAVcdrStream@@@Z
??_3BadKind@TypeCode@CORBA@@QAEXAAVcdrStream@@@Z
??_3Bounds@ContextList@CORBA@@QAEXAAVcdrStream@@@Z
??_3Bounds@ExceptionList@CORBA@@QAEXAAVcdrStream@@@Z
??_3Bounds@NVList@CORBA@@QAEXAAVcdrStream@@@Z
??_3Bounds@TypeCode@CORBA@@QAEXAAVcdrStream@@@Z
??_3ConstantDescription@CORBA@@QAEXAAVcdrStream@@@Z
??_3Description@Contained@CORBA@@QAEXAAVcdrStream@@@Z
??_3Description@Container@CORBA@@QAEXAAVcdrStream@@@Z
??_3ExceptionDescription@CORBA@@QAEXAAVcdrStream@@@Z
??_3FullInterfaceDescription@InterfaceDef@CORBA@@QAEXAAVcdrStream@@@Z
??_3FullValueDescription@ValueDef@CORBA@@QAEXAAVcdrStream@@@Z
??_3InconsistentTypeCode@DynAnyFactory@DynamicAny@@QAEXAAVcdrStream@@@Z
??_3InconsistentTypeCode@ORB@CORBA@@QAEXAAVcdrStream@@@Z
??_3Initializer@CORBA@@QAEXAAVcdrStream@@@Z
??_3InterfaceDescription@CORBA@@QAEXAAVcdrStream@@@Z
??_3InvalidAddress@NamingContextExt@CosNaming@@QAEXAAVcdrStream@@@Z
??_3InvalidName@NamingContext@CosNaming@@QAEXAAVcdrStream@@@Z
??_3InvalidName@ORB@CORBA@@QAEXAAVcdrStream@@@Z
??_3InvalidValue@DynAny@DynamicAny@@QAEXAAVcdrStream@@@Z
??_3ModuleDescription@CORBA@@QAEXAAVcdrStream@@@Z
??_3NoPossiblePollable@PollableSet@CORBA@@QAEXAAVcdrStream@@@Z
??_3NoServant@POA@PortableServer@@QAEXAAVcdrStream@@@Z
??_3NotEmpty@NamingContext@CosNaming@@QAEXAAVcdrStream@@@Z
??_3ObjectAlreadyActive@POA@PortableServer@@QAEXAAVcdrStream@@@Z
??_3ObjectNotActive@POA@PortableServer@@QAEXAAVcdrStream@@@Z
??_3Object_Member@CORBA@@QAEXAAVcdrStream@@@Z
??_3OperationDescription@CORBA@@QAEXAAVcdrStream@@@Z
??_3ParameterDescription@CORBA@@QAEXAAVcdrStream@@@Z
??_3ServantAlreadyActive@POA@PortableServer@@QAEXAAVcdrStream@@@Z
??_3ServantNotActive@POA@PortableServer@@QAEXAAVcdrStream@@@Z
??_3StructMember@CORBA@@QAEXAAVcdrStream@@@Z
??_3TypeCode_member@CORBA@@QAEXAAVcdrStream@@@Z
??_3TypeDescription@CORBA@@QAEXAAVcdrStream@@@Z
??_3TypeMismatch@DynAny@DynamicAny@@QAEXAAVcdrStream@@@Z
??_3UnionMember@CORBA@@QAEXAAVcdrStream@@@Z
??_3UnknownPollable@PollableSet@CORBA@@QAEXAAVcdrStream@@@Z
??_3ValueDescription@CORBA@@QAEXAAVcdrStream@@@Z
??_3ValueMember@CORBA@@QAEXAAVcdrStream@@@Z
??_3WrongAdapter@POA@PortableServer@@QAEXAAVcdrStream@@@Z
??_3WrongPolicy@POA@PortableServer@@QAEXAAVcdrStream@@@Z
??_3WrongTransaction@CORBA@@QAEXAAVcdrStream@@@Z
??_3_CORBA_Sequence_Boolean@@QAEXAAVcdrStream@@@Z
??_3_CORBA_Sequence_Char@@QAEXAAVcdrStream@@@Z
??_3_CORBA_Sequence_Octet@@QAEXAAVcdrStream@@@Z
??_3_CORBA_Sequence_WChar@@QAEXAAVcdrStream@@@Z
??_DAbstractInterfaceDef@POA_CORBA@@QAEXXZ
??_DAliasDef@POA_CORBA@@QAEXXZ
??_DArrayDef@POA_CORBA@@QAEXXZ
??_DAttributeDef@POA_CORBA@@QAEXXZ
??_DBidirectionalPolicy@BiDirPolicy@@QAEXXZ
??_DConstantDef@POA_CORBA@@QAEXXZ
??_DContained@POA_CORBA@@QAEXXZ
??_DContainer@POA_CORBA@@QAEXXZ
??_DDIIPollable@CORBA@@IAEXXZ
??_DDIIPollableImpl@omniAMI@@QAEXXZ
??_DDefaultValueRefCountBase@CORBA@@IAEXXZ
??_DDynAnyConstrBase@omni@@QAEXXZ
??_DDynAnyImpl@omni@@QAEXXZ
??_DDynAnyImplBase@omni@@QAEXXZ
??_DDynArray@DynamicAny@@QAEXXZ
??_DDynArrayImpl@omni@@QAEXXZ
??_DDynEnum@DynamicAny@@QAEXXZ
??_DDynEnumImpl@omni@@QAEXXZ
??_DDynFixed@DynamicAny@@QAEXXZ
??_DDynFixedImpl@omni@@QAEXXZ
??_DDynSequence@DynamicAny@@QAEXXZ
??_DDynSequenceImpl@omni@@QAEXXZ
??_DDynStruct@DynamicAny@@QAEXXZ
??_DDynStructImpl@omni@@QAEXXZ
??_DDynUnion@DynamicAny@@QAEXXZ
??_DDynUnionDisc@omni@@QAEXXZ
??_DDynUnionEnumDisc@omni@@QAEXXZ
??_DDynUnionImpl@omni@@QAEXXZ
??_DDynValue@DynamicAny@@QAEXXZ
??_DDynValueBox@DynamicAny@@QAEXXZ
??_DDynValueBoxImpl@omni@@QAEXXZ
??_DDynValueCommon@DynamicAny@@QAEXXZ
??_DDynValueImpl@omni@@QAEXXZ
??_DDynamicImplementation@PortableServer@@QAEXXZ
??_DEnumDef@POA_CORBA@@QAEXXZ
??_DExceptionDef@POA_CORBA@@QAEXXZ
??_DExceptionHolder@Messaging@@IAEXXZ
??_DExceptionHolder@OBV_Messaging@@IAEXXZ
??_DExceptionHolder@omniAMI@@QAEXXZ
??_DFixedDef@POA_CORBA@@QAEXXZ
??_DIDLType@POA_CORBA@@QAEXXZ
??_DIRObject@POA_CORBA@@QAEXXZ
??_DIdAssignmentPolicy@PortableServer@@QAEXXZ
??_DIdUniquenessPolicy@PortableServer@@QAEXXZ
??_DImplicitActivationPolicy@PortableServer@@QAEXXZ
??_DInterfaceDef@POA_CORBA@@QAEXXZ
??_DLifespanPolicy@PortableServer@@QAEXXZ
??_DLocalObject@CORBA@@QAEXXZ
??_DLocalShortcutPolicy@omniPolicy@@QAEXXZ
??_DModuleDef@POA_CORBA@@QAEXXZ
??_DNativeDef@POA_CORBA@@QAEXXZ
??_DOperationDef@POA_CORBA@@QAEXXZ
??_DPollable@CORBA@@IAEXXZ
??_DPollableSet@CORBA@@IAEXXZ
??_DPollableSetImpl@omniAMI@@QAEXXZ
??_DPoller@Messaging@@IAEXXZ
??_DPollerImpl@omniAMI@@QAEXXZ
??_DPrimitiveDef@POA_CORBA@@QAEXXZ
??_DReplyHandler@POA_Messaging@@QAEXXZ
??_DRepository@POA_CORBA@@QAEXXZ
??_DRequestProcessingPolicy@PortableServer@@QAEXXZ
??_DSequenceDef@POA_CORBA@@QAEXXZ
??_DServantRetentionPolicy@PortableServer@@QAEXXZ
??_DStringDef@POA_CORBA@@QAEXXZ
??_DStringValue@CORBA@@IAEXXZ
??_DStructDef@POA_CORBA@@QAEXXZ
??_DThreadPolicy@PortableServer@@QAEXXZ
??_DTypedefDef@POA_CORBA@@QAEXXZ
??_DUnionDef@POA_CORBA@@QAEXXZ
??_DUnknownValue@omni@@QAEXXZ
??_DValueBoxDef@POA_CORBA@@QAEXXZ
??_DValueDef@POA_CORBA@@QAEXXZ
??_DValueMemberDef@POA_CORBA@@QAEXXZ
??_DValueRefCountBase@PortableServer@@IAEXXZ
??_DWStringValue@CORBA@@IAEXXZ
??_DWstringDef@POA_CORBA@@QAEXXZ
??_D_impl_AbstractInterfaceDef@CORBA@@QAEXXZ
??_D_impl_AliasDef@CORBA@@QAEXXZ
??_D_impl_ArrayDef@CORBA@@QAEXXZ
??_D_impl_AttributeDef@CORBA@@QAEXXZ
??_D_impl_ConstantDef@CORBA@@QAEXXZ
??_D_impl_Contained@CORBA@@QAEXXZ
??_D_impl_Container@CORBA@@QAEXXZ
??_D_impl_EnumDef@CORBA@@QAEXXZ
??_D_impl_ExceptionDef@CORBA@@QAEXXZ
??_D_impl_FixedDef@CORBA@@QAEXXZ
??_D_impl_IDLType@CORBA@@QAEXXZ
??_D_impl_IRObject@CORBA@@QAEXXZ
??_D_impl_InterfaceDef@CORBA@@QAEXXZ
??_D_impl_ModuleDef@CORBA@@QAEXXZ
??_D_impl_NativeDef@CORBA@@QAEXXZ
??_D_impl_OperationDef@CORBA@@QAEXXZ
??_D_impl_PrimitiveDef@CORBA@@QAEXXZ
??_D_impl_ReplyHandler@Messaging@@QAEXXZ
??_D_impl_Repository@CORBA@@QAEXXZ
??_D_impl_SequenceDef@CORBA@@QAEXXZ
??_D_impl_StringDef@CORBA@@QAEXXZ
??_D_impl_StructDef@CORBA@@QAEXXZ
??_D_impl_TypedefDef@CORBA@@QAEXXZ
??_D_impl_UnionDef@CORBA@@QAEXXZ
??_D_impl_ValueBoxDef@CORBA@@QAEXXZ
??_D_impl_ValueDef@CORBA@@QAEXXZ
??_D_impl_ValueMemberDef@CORBA@@QAEXXZ
??_D_impl_WstringDef@CORBA@@QAEXXZ
??_D_nil_PollableSet@CORBA@@IAEXXZ
??_D_objref_AbstractInterfaceDef@CORBA@@IAEXXZ
??_D_objref_AliasDef@CORBA@@IAEXXZ
??_D_objref_ArrayDef@CORBA@@IAEXXZ
??_D_objref_AttributeDef@CORBA@@IAEXXZ
??_D_objref_ConstantDef@CORBA@@IAEXXZ
??_D_objref_Contained@CORBA@@IAEXXZ
??_D_objref_Container@CORBA@@IAEXXZ
??_D_objref_EnumDef@CORBA@@IAEXXZ
??_D_objref_ExceptionDef@CORBA@@IAEXXZ
??_D_objref_FixedDef@CORBA@@IAEXXZ
??_D_objref_IDLType@CORBA@@IAEXXZ
??_D_objref_IRObject@CORBA@@IAEXXZ
??_D_objref_InterfaceDef@CORBA@@IAEXXZ
??_D_objref_ModuleDef@CORBA@@IAEXXZ
??_D_objref_NativeDef@CORBA@@IAEXXZ
??_D_objref_OperationDef@CORBA@@IAEXXZ
??_D_objref_PrimitiveDef@CORBA@@IAEXXZ
??_D_objref_ReplyHandler@Messaging@@IAEXXZ
??_D_objref_Repository@CORBA@@IAEXXZ
??_D_objref_SequenceDef@CORBA@@IAEXXZ
??_D_objref_StringDef@CORBA@@IAEXXZ
??_D_objref_StructDef@CORBA@@IAEXXZ
??_D_objref_TypedefDef@CORBA@@IAEXXZ
??_D_objref_UnionDef@CORBA@@IAEXXZ
??_D_objref_ValueBoxDef@CORBA@@IAEXXZ
??_D_objref_ValueDef@CORBA@@IAEXXZ
??_D_objref_ValueMemberDef@CORBA@@IAEXXZ
??_D_objref_WstringDef@CORBA@@IAEXXZ
??_DomniNilDynAny@omni@@QAEXXZ
??_DomniNilDynAnyFactory@omni@@QAEXXZ
??_DomniNilDynArray@omni@@QAEXXZ
??_DomniNilDynEnum@omni@@QAEXXZ
??_DomniNilDynFixed@omni@@QAEXXZ
??_DomniNilDynSequence@omni@@QAEXXZ
??_DomniNilDynStruct@omni@@QAEXXZ
??_DomniNilDynUnion@omni@@QAEXXZ
??_DomniNilDynValue@omni@@QAEXXZ
??_DomniNilDynValueBox@omni@@QAEXXZ
??_DomniNilDynValueCommon@omni@@QAEXXZ
?NP_aliasExpand@TypeCode_alias@omni@@UAEPAVTypeCode_base@2@PAVTypeCode_pairlist@2@@Z
?NP_aliasExpand@TypeCode_array@omni@@UAEPAVTypeCode_base@2@PAVTypeCode_pairlist@2@@Z
?NP_aliasExpand@TypeCode_base@omni@@UAEPAV12@PAVTypeCode_pairlist@2@@Z
?NP_aliasExpand@TypeCode_except@omni@@UAEPAVTypeCode_base@2@PAVTypeCode_pairlist@2@@Z
?NP_aliasExpand@TypeCode_indirect@omni@@UAEPAVTypeCode_base@2@PAVTypeCode_pairlist@2@@Z
?NP_aliasExpand@TypeCode_sequence@omni@@UAEPAVTypeCode_base@2@PAVTypeCode_pairlist@2@@Z
?NP_aliasExpand@TypeCode_struct@omni@@UAEPAVTypeCode_base@2@PAVTypeCode_pairlist@2@@Z
?NP_aliasExpand@TypeCode_union@omni@@UAEPAVTypeCode_base@2@PAVTypeCode_pairlist@2@@Z
?NP_aliasExpand@TypeCode_value@omni@@UAEPAVTypeCode_base@2@PAVTypeCode_pairlist@2@@Z
?NP_aliasExpand@TypeCode_value_box@omni@@UAEPAVTypeCode_base@2@PAVTypeCode_pairlist@2@@Z
?NP_alias_tc@TypeCode@CORBA@@SAPAV12@PBD0PAV12@@Z
?NP_array_tc@TypeCode@CORBA@@SAPAV12@KPAV12@@Z
?NP_compactTc@TypeCode_base@omni@@QAEPAV12@XZ
?NP_complete_recursive@TypeCode_alias@omni@@UAE_NPAVTypeCode_base@2@PBD@Z
?NP_complete_recursive@TypeCode_array@omni@@UAE_NPAVTypeCode_base@2@PBD@Z
?NP_complete_recursive@TypeCode_base@omni@@UAE_NPAV12@PBD@Z
?NP_complete_recursive@TypeCode_except@omni@@UAE_NPAVTypeCode_base@2@PBD@Z
?NP_complete_recursive@TypeCode_indirect@omni@@UAE_NPAVTypeCode_base@2@PBD@Z
?NP_complete_recursive@TypeCode_sequence@omni@@UAE_NPAVTypeCode_base@2@PBD@Z
?NP_complete_recursive@TypeCode_struct@omni@@UAE_NPAVTypeCode_base@2@PBD@Z
?NP_complete_recursive@TypeCode_union@omni@@UAE_NPAVTypeCode_base@2@PBD@Z
?NP_complete_recursive@TypeCode_value@omni@@UAE_NPAVTypeCode_base@2@PBD@Z
?NP_complete_recursive_sequences@TypeCode_alias@omni@@UAE_NPAVTypeCode_base@2@K@Z
?NP_complete_recursive_sequences@TypeCode_array@omni@@UAE_NPAVTypeCode_base@2@K@Z
?NP_complete_recursive_sequences@TypeCode_base@omni@@UAE_NPAV12@K@Z
?NP_complete_recursive_sequences@TypeCode_except@omni@@UAE_NPAVTypeCode_base@2@K@Z
?NP_complete_recursive_sequences@TypeCode_indirect@omni@@UAE_NPAVTypeCode_base@2@K@Z
?NP_complete_recursive_sequences@TypeCode_sequence@omni@@UAE_NPAVTypeCode_base@2@K@Z
?NP_complete_recursive_sequences@TypeCode_struct@omni@@UAE_NPAVTypeCode_base@2@K@Z
?NP_complete_recursive_sequences@TypeCode_union@omni@@UAE_NPAVTypeCode_base@2@K@Z
?NP_complete_recursive_sequences@TypeCode_value@omni@@UAE_NPAVTypeCode_base@2@K@Z
?NP_concrete_base_type@TypeCode_base@omni@@UBEPAV12@XZ
?NP_concrete_base_type@TypeCode_indirect@omni@@UBEPAVTypeCode_base@2@XZ
?NP_concrete_base_type@TypeCode_value@omni@@UBEPAVTypeCode_base@2@XZ
?NP_containsAnAlias@TypeCode_alias@omni@@UAE_NXZ
?NP_containsAnAlias@TypeCode_array@omni@@UAE_NXZ
?NP_containsAnAlias@TypeCode_base@omni@@UAE_NXZ
?NP_containsAnAlias@TypeCode_except@omni@@UAE_NXZ
?NP_containsAnAlias@TypeCode_indirect@omni@@UAE_NXZ
?NP_containsAnAlias@TypeCode_sequence@omni@@UAE_NXZ
?NP_containsAnAlias@TypeCode_struct@omni@@UAE_NXZ
?NP_containsAnAlias@TypeCode_union@omni@@UAE_NXZ
?NP_containsAnAlias@TypeCode_value@omni@@UAE_NXZ
?NP_containsAnAlias@TypeCode_value_box@omni@@UAE_NXZ
?NP_content_type@TypeCode_alias@omni@@UBEPAVTypeCode_base@2@XZ
?NP_content_type@TypeCode_array@omni@@UBEPAVTypeCode_base@2@XZ
?NP_content_type@TypeCode_base@omni@@UBEPAV12@XZ
?NP_content_type@TypeCode_indirect@omni@@UBEPAVTypeCode_base@2@XZ
?NP_content_type@TypeCode_sequence@omni@@UBEPAVTypeCode_base@2@XZ
?NP_content_type@TypeCode_value_box@omni@@UBEPAVTypeCode_base@2@XZ
?NP_data@?$_CORBA_PseudoValue_Sequence@PAD@@QAEPAPADXZ
?NP_data@?$_CORBA_Sequence@E@@QBEPAEXZ
?NP_data@?$_CORBA_Sequence@F@@QBEPAFXZ
?NP_data@?$_CORBA_Sequence@G@@QBEPAGXZ
?NP_data@?$_CORBA_Sequence@J@@QBEPAJXZ
?NP_data@?$_CORBA_Sequence@K@@QBEPAKXZ
?NP_data@?$_CORBA_Sequence@M@@QBEPAMXZ
?NP_data@?$_CORBA_Sequence@N@@QBEPANXZ
?NP_data@?$_CORBA_Sequence@_J@@QBEPA_JXZ
?NP_data@?$_CORBA_Sequence@_K@@QBEPA_KXZ
?NP_data@?$_CORBA_Sequence@_N@@QBEPA_NXZ
?NP_data@?$_CORBA_Sequence@_W@@QBEPA_WXZ
?NP_data@?$_CORBA_Sequence_Value@VValueBase@CORBA@@V?$_CORBA_Value_Element@VValueBase@CORBA@@VValueBase_Helper@2@@@VValueBase_Helper@2@@@QBEPAPAVValueBase@CORBA@@XZ
?NP_default_index@TypeCode_base@omni@@UBEJXZ
?NP_default_index@TypeCode_indirect@omni@@UBEJXZ
?NP_default_index@TypeCode_union@omni@@UBEJXZ
?NP_default_value@TypeCode_union@omni@@QAE_KXZ
?NP_discriminator_type@TypeCode_base@omni@@UBEPAV12@XZ
?NP_discriminator_type@TypeCode_indirect@omni@@UBEPAVTypeCode_base@2@XZ
?NP_discriminator_type@TypeCode_union@omni@@UBEPAVTypeCode_base@2@XZ
?NP_duplicate@ContextImpl@omni@@UAEPAVContext@CORBA@@XZ
?NP_duplicate@ContextListImpl@omni@@UAEPAVContextList@CORBA@@XZ
?NP_duplicate@Environment@CORBA@@UAEPAV12@XZ
?NP_duplicate@EnvironmentImpl@omni@@UAEPAVEnvironment@CORBA@@XZ
?NP_duplicate@ExceptionListImpl@omni@@UAEPAVExceptionList@CORBA@@XZ
?NP_duplicate@NVListImpl@omni@@UAEPAVNVList@CORBA@@XZ
?NP_duplicate@NamedValueImpl@omni@@UAEPAVNamedValue@CORBA@@XZ
?NP_duplicate@RequestImpl@omni@@UAEPAVRequest@CORBA@@XZ
?NP_duplicate@omniNilContext@omni@@UAEPAVContext@CORBA@@XZ
?NP_duplicate@omniNilCtList@omni@@UAEPAVContextList@CORBA@@XZ
?NP_duplicate@omniNilEnv@omni@@UAEPAVEnvironment@CORBA@@XZ
?NP_duplicate@omniNilExList@omni@@UAEPAVExceptionList@CORBA@@XZ
?NP_duplicate@omniNilNV@omni@@UAEPAVNamedValue@CORBA@@XZ
?NP_duplicate@omniNilNVList@omni@@UAEPAVNVList@CORBA@@XZ
?NP_duplicate@omniNilRequest@omni@@UAEPAVRequest@CORBA@@XZ
?NP_enum_tc@TypeCode@CORBA@@SAPAV12@PBD0ABVEnumMemberSeq@2@@Z
?NP_equal@TypeCode_base@omni@@QBE_NPBV12@_NPBVTypeCode_pairlist@2@@Z
?NP_expand@TypeCode_base@omni@@SAPBV12@PBV12@@Z
?NP_extendedEqual@TypeCode_alias@omni@@UBE_NPBVTypeCode_base@2@_NPBVTypeCode_pairlist@2@@Z
?NP_extendedEqual@TypeCode_array@omni@@UBE_NPBVTypeCode_base@2@_NPBVTypeCode_pairlist@2@@Z
?NP_extendedEqual@TypeCode_base@omni@@UBE_NPBV12@_NPBVTypeCode_pairlist@2@@Z
?NP_extendedEqual@TypeCode_enum@omni@@UBE_NPBVTypeCode_base@2@_NPBVTypeCode_pairlist@2@@Z
?NP_extendedEqual@TypeCode_except@omni@@UBE_NPBVTypeCode_base@2@_NPBVTypeCode_pairlist@2@@Z
?NP_extendedEqual@TypeCode_fixed@omni@@UBE_NPBVTypeCode_base@2@_NPBVTypeCode_pairlist@2@@Z
?NP_extendedEqual@TypeCode_indirect@omni@@UBE_NPBVTypeCode_base@2@_NPBVTypeCode_pairlist@2@@Z
?NP_extendedEqual@TypeCode_objref@omni@@UBE_NPBVTypeCode_base@2@_NPBVTypeCode_pairlist@2@@Z
?NP_extendedEqual@TypeCode_sequence@omni@@UBE_NPBVTypeCode_base@2@_NPBVTypeCode_pairlist@2@@Z
?NP_extendedEqual@TypeCode_string@omni@@UBE_NPBVTypeCode_base@2@_NPBVTypeCode_pairlist@2@@Z
?NP_extendedEqual@TypeCode_struct@omni@@UBE_NPBVTypeCode_base@2@_NPBVTypeCode_pairlist@2@@Z
?NP_extendedEqual@TypeCode_union@omni@@UBE_NPBVTypeCode_base@2@_NPBVTypeCode_pairlist@2@@Z
?NP_extendedEqual@TypeCode_value@omni@@UBE_NPBVTypeCode_base@2@_NPBVTypeCode_pairlist@2@@Z
?NP_extendedEqual@TypeCode_value_box@omni@@UBE_NPBVTypeCode_base@2@_NPBVTypeCode_pairlist@2@@Z
?NP_extendedEqual@TypeCode_wstring@omni@@UBE_NPBVTypeCode_base@2@_NPBVTypeCode_pairlist@2@@Z
?NP_fixed_digits@TypeCode_base@omni@@UBEGXZ
?NP_fixed_digits@TypeCode_fixed@omni@@UBEGXZ
?NP_fixed_digits@TypeCode_indirect@omni@@UBEGXZ
?NP_fixed_scale@TypeCode_base@omni@@UBEFXZ
?NP_fixed_scale@TypeCode_fixed@omni@@UBEFXZ
?NP_fixed_scale@TypeCode_indirect@omni@@UBEFXZ
?NP_fixed_tc@TypeCode@CORBA@@SAPAV12@GF@Z
?NP_id@TypeCode_alias@omni@@UBEPBDXZ
?NP_id@TypeCode_base@omni@@UBEPBDXZ
?NP_id@TypeCode_enum@omni@@UBEPBDXZ
?NP_id@TypeCode_except@omni@@UBEPBDXZ
?NP_id@TypeCode_indirect@omni@@UBEPBDXZ
?NP_id@TypeCode_objref@omni@@UBEPBDXZ
?NP_id@TypeCode_struct@omni@@UBEPBDXZ
?NP_id@TypeCode_union@omni@@UBEPBDXZ
?NP_id@TypeCode_value@omni@@UBEPBDXZ
?NP_id@TypeCode_value_box@omni@@UBEPBDXZ
?NP_index_from_discriminator@TypeCode_union@omni@@QBEJ_K@Z
?NP_interface_tc@TypeCode@CORBA@@SAPAV12@PBD0@Z
?NP_is_nil@ContextImpl@omni@@UBE_NXZ
?NP_is_nil@ContextListImpl@omni@@UBE_NXZ
?NP_is_nil@Environment@CORBA@@UBE_NXZ
?NP_is_nil@ExceptionListImpl@omni@@UBE_NXZ
?NP_is_nil@NVListImpl@omni@@UBE_NXZ
?NP_is_nil@NamedValueImpl@omni@@UBE_NXZ
?NP_is_nil@RequestImpl@omni@@UBE_NXZ
?NP_is_nil@TypeCode@CORBA@@UBE_NXZ
?NP_is_nil@TypeCode_base@omni@@UBE_NXZ
?NP_is_nil@omniNilContext@omni@@UBE_NXZ
?NP_is_nil@omniNilCtList@omni@@UBE_NXZ
?NP_is_nil@omniNilEnv@omni@@UBE_NXZ
?NP_is_nil@omniNilExList@omni@@UBE_NXZ
?NP_is_nil@omniNilNV@omni@@UBE_NXZ
?NP_is_nil@omniNilNVList@omni@@UBE_NXZ
?NP_is_nil@omniNilRequest@omni@@UBE_NXZ
?NP_kind@TypeCode_base@omni@@QBE?AW4TCKind@CORBA@@XZ
?NP_length@TypeCode_array@omni@@UBEKXZ
?NP_length@TypeCode_base@omni@@UBEKXZ
?NP_length@TypeCode_indirect@omni@@UBEKXZ
?NP_length@TypeCode_sequence@omni@@UBEKXZ
?NP_length@TypeCode_string@omni@@UBEKXZ
?NP_length@TypeCode_wstring@omni@@UBEKXZ
?NP_list@ContextListImpl@omni@@QAEPBQBDXZ
?NP_marshalComplexParams@TypeCode_alias@omni@@UBEXAAVcdrStream@@PAVTypeCode_offsetTable@2@@Z
?NP_marshalComplexParams@TypeCode_array@omni@@UBEXAAVcdrStream@@PAVTypeCode_offsetTable@2@@Z
?NP_marshalComplexParams@TypeCode_base@omni@@UBEXAAVcdrStream@@PAVTypeCode_offsetTable@2@@Z
?NP_marshalComplexParams@TypeCode_enum@omni@@UBEXAAVcdrStream@@PAVTypeCode_offsetTable@2@@Z
?NP_marshalComplexParams@TypeCode_except@omni@@UBEXAAVcdrStream@@PAVTypeCode_offsetTable@2@@Z
?NP_marshalComplexParams@TypeCode_indirect@omni@@UBEXAAVcdrStream@@PAVTypeCode_offsetTable@2@@Z
?NP_marshalComplexParams@TypeCode_objref@omni@@UBEXAAVcdrStream@@PAVTypeCode_offsetTable@2@@Z
?NP_marshalComplexParams@TypeCode_sequence@omni@@UBEXAAVcdrStream@@PAVTypeCode_offsetTable@2@@Z
?NP_marshalComplexParams@TypeCode_struct@omni@@UBEXAAVcdrStream@@PAVTypeCode_offsetTable@2@@Z
?NP_marshalComplexParams@TypeCode_union@omni@@UBEXAAVcdrStream@@PAVTypeCode_offsetTable@2@@Z
?NP_marshalComplexParams@TypeCode_value@omni@@UBEXAAVcdrStream@@PAVTypeCode_offsetTable@2@@Z
?NP_marshalComplexParams@TypeCode_value_box@omni@@UBEXAAVcdrStream@@PAVTypeCode_offsetTable@2@@Z
?NP_marshalDataOnly@Any@CORBA@@QBEXAAVcdrStream@@@Z
?NP_marshalSimpleParams@TypeCode_base@omni@@UBEXAAVcdrStream@@PAVTypeCode_offsetTable@2@@Z
?NP_marshalSimpleParams@TypeCode_fixed@omni@@UBEXAAVcdrStream@@PAVTypeCode_offsetTable@2@@Z
?NP_marshalSimpleParams@TypeCode_indirect@omni@@UBEXAAVcdrStream@@PAVTypeCode_offsetTable@2@@Z
?NP_marshalSimpleParams@TypeCode_string@omni@@UBEXAAVcdrStream@@PAVTypeCode_offsetTable@2@@Z
?NP_marshalSimpleParams@TypeCode_wstring@omni@@UBEXAAVcdrStream@@PAVTypeCode_offsetTable@2@@Z
?NP_member_count@TypeCode_base@omni@@UBEKXZ
?NP_member_count@TypeCode_enum@omni@@UBEKXZ
?NP_member_count@TypeCode_except@omni@@UBEKXZ
?NP_member_count@TypeCode_indirect@omni@@UBEKXZ
?NP_member_count@TypeCode_struct@omni@@UBEKXZ
?NP_member_count@TypeCode_union@omni@@UBEKXZ
?NP_member_count@TypeCode_value@omni@@UBEKXZ
?NP_member_index@TypeCode_enum@omni@@QBEJPBD@Z
?NP_member_label@TypeCode_base@omni@@UBEPAVAny@CORBA@@K@Z
?NP_member_label@TypeCode_indirect@omni@@UBEPAVAny@CORBA@@K@Z
?NP_member_label@TypeCode_union@omni@@UBEPAVAny@CORBA@@K@Z
?NP_member_label_val@TypeCode_union@omni@@QBE_KK@Z
?NP_member_name@TypeCode_base@omni@@UBEPBDK@Z
?NP_member_name@TypeCode_enum@omni@@UBEPBDK@Z
?NP_member_name@TypeCode_except@omni@@UBEPBDK@Z
?NP_member_name@TypeCode_indirect@omni@@UBEPBDK@Z
?NP_member_name@TypeCode_struct@omni@@UBEPBDK@Z
?NP_member_name@TypeCode_union@omni@@UBEPBDK@Z
?NP_member_name@TypeCode_value@omni@@UBEPBDK@Z
?NP_member_type@TypeCode_base@omni@@UBEPAV12@K@Z
?NP_member_type@TypeCode_except@omni@@UBEPAVTypeCode_base@2@K@Z
?NP_member_type@TypeCode_indirect@omni@@UBEPAVTypeCode_base@2@K@Z
?NP_member_type@TypeCode_struct@omni@@UBEPAVTypeCode_base@2@K@Z
?NP_member_type@TypeCode_union@omni@@UBEPAVTypeCode_base@2@K@Z
?NP_member_type@TypeCode_value@omni@@UBEPAVTypeCode_base@2@K@Z
?NP_member_visibility@TypeCode_base@omni@@UBEFK@Z
?NP_member_visibility@TypeCode_indirect@omni@@UBEFK@Z
?NP_member_visibility@TypeCode_value@omni@@UBEFK@Z
?NP_name@TypeCode_alias@omni@@UBEPBDXZ
?NP_name@TypeCode_base@omni@@UBEPBDXZ
?NP_name@TypeCode_enum@omni@@UBEPBDXZ
?NP_name@TypeCode_except@omni@@UBEPBDXZ
?NP_name@TypeCode_indirect@omni@@UBEPBDXZ
?NP_name@TypeCode_objref@omni@@UBEPBDXZ
?NP_name@TypeCode_struct@omni@@UBEPBDXZ
?NP_name@TypeCode_union@omni@@UBEPBDXZ
?NP_name@TypeCode_value@omni@@UBEPBDXZ
?NP_name@TypeCode_value_box@omni@@UBEPBDXZ
?NP_namesEqual@TypeCode_base@omni@@SA_NPBD0@Z
?NP_nodetype@DynAnyImpl@omni@@$4PPPPPPPM@A@BEHXZ
?NP_nodetype@DynAnyImpl@omni@@UBEHXZ
?NP_nodetype@DynArrayImpl@omni@@$4PPPPPPPM@A@BEHXZ
?NP_nodetype@DynArrayImpl@omni@@UBEHXZ
?NP_nodetype@DynEnumImpl@omni@@$4PPPPPPPM@A@BEHXZ
?NP_nodetype@DynEnumImpl@omni@@UBEHXZ
?NP_nodetype@DynFixedImpl@omni@@$4PPPPPPPM@A@BEHXZ
?NP_nodetype@DynFixedImpl@omni@@UBEHXZ
?NP_nodetype@DynSequenceImpl@omni@@$4PPPPPPPM@A@BEHXZ
?NP_nodetype@DynSequenceImpl@omni@@UBEHXZ
?NP_nodetype@DynStructImpl@omni@@$4PPPPPPPM@A@BEHXZ
?NP_nodetype@DynStructImpl@omni@@UBEHXZ
?NP_nodetype@DynUnionDisc@omni@@$4PPPPPPPM@A@BEHXZ
?NP_nodetype@DynUnionDisc@omni@@UBEHXZ
?NP_nodetype@DynUnionEnumDisc@omni@@$4PPPPPPPM@A@BEHXZ
?NP_nodetype@DynUnionEnumDisc@omni@@UBEHXZ
?NP_nodetype@DynUnionImpl@omni@@$4PPPPPPPM@A@BEHXZ
?NP_nodetype@DynUnionImpl@omni@@UBEHXZ
?NP_nodetype@DynValueBoxImpl@omni@@$4PPPPPPPM@A@BEHXZ
?NP_nodetype@DynValueBoxImpl@omni@@UBEHXZ
?NP_nodetype@DynValueImpl@omni@@$4PPPPPPPM@A@BEHXZ
?NP_nodetype@DynValueImpl@omni@@UBEHXZ
?NP_nodetype@omniNilDynAny@omni@@$4PPPPPPPM@A@BEHXZ
?NP_nodetype@omniNilDynAny@omni@@UBEHXZ
?NP_paramListType@TypeCode_objref@omni@@UBE?AW4TypeCode_paramListType@2@XZ
?NP_paramListType@TypeCode_sequence@omni@@UBE?AW4TypeCode_paramListType@2@XZ
?NP_paramListType@TypeCode_value@omni@@UBE?AW4TypeCode_paramListType@2@XZ
?NP_paramListType@TypeCode_value_box@omni@@UBE?AW4TypeCode_paramListType@2@XZ
?NP_param_count@TypeCode_alias@omni@@UBEJXZ
?NP_param_count@TypeCode_array@omni@@UBEJXZ
?NP_param_count@TypeCode_base@omni@@UBEJXZ
?NP_param_count@TypeCode_enum@omni@@UBEJXZ
?NP_param_count@TypeCode_except@omni@@UBEJXZ
?NP_param_count@TypeCode_indirect@omni@@UBEJXZ
?NP_param_count@TypeCode_objref@omni@@UBEJXZ
?NP_param_count@TypeCode_sequence@omni@@UBEJXZ
?NP_param_count@TypeCode_string@omni@@UBEJXZ
?NP_param_count@TypeCode_struct@omni@@UBEJXZ
?NP_param_count@TypeCode_union@omni@@UBEJXZ
?NP_param_count@TypeCode_wstring@omni@@UBEJXZ
?NP_parameter@TypeCode_alias@omni@@UBEPAVAny@CORBA@@J@Z
?NP_parameter@TypeCode_array@omni@@UBEPAVAny@CORBA@@J@Z
?NP_parameter@TypeCode_base@omni@@UBEPAVAny@CORBA@@J@Z
?NP_parameter@TypeCode_enum@omni@@UBEPAVAny@CORBA@@J@Z
?NP_parameter@TypeCode_except@omni@@UBEPAVAny@CORBA@@J@Z
?NP_parameter@TypeCode_indirect@omni@@UBEPAVAny@CORBA@@J@Z
?NP_parameter@TypeCode_objref@omni@@UBEPAVAny@CORBA@@J@Z
?NP_parameter@TypeCode_sequence@omni@@UBEPAVAny@CORBA@@J@Z
?NP_parameter@TypeCode_string@omni@@UBEPAVAny@CORBA@@J@Z
?NP_parameter@TypeCode_struct@omni@@UBEPAVAny@CORBA@@J@Z
?NP_parameter@TypeCode_union@omni@@UBEPAVAny@CORBA@@J@Z
?NP_parameter@TypeCode_wstring@omni@@UBEPAVAny@CORBA@@J@Z
?NP_recursive_sequence_tc@TypeCode@CORBA@@SAPAV12@KK@Z
?NP_recursive_tc@TypeCode@CORBA@@SAPAV12@PBD@Z
?NP_releaseChildren@TypeCode_alias@omni@@UAEXXZ
?NP_releaseChildren@TypeCode_array@omni@@UAEXXZ
?NP_releaseChildren@TypeCode_base@omni@@UAEXXZ
?NP_releaseChildren@TypeCode_except@omni@@UAEXXZ
?NP_releaseChildren@TypeCode_indirect@omni@@UAEXXZ
?NP_releaseChildren@TypeCode_sequence@omni@@UAEXXZ
?NP_releaseChildren@TypeCode_struct@omni@@UAEXXZ
?NP_releaseChildren@TypeCode_union@omni@@UAEXXZ
?NP_releaseChildren@TypeCode_value@omni@@UAEXXZ
?NP_releaseChildren@TypeCode_value_box@omni@@UAEXXZ
?NP_resolved@TypeCode_indirect@omni@@QAEPAVTypeCode_base@2@XZ
?NP_sequence_tc@TypeCode@CORBA@@SAPAV12@KPAV12@@Z
?NP_string_tc@TypeCode@CORBA@@SAPAV12@K@Z
?NP_type@Any@CORBA@@QBEPAVTypeCode@2@XZ
?NP_type_modifier@TypeCode_base@omni@@UBEFXZ
?NP_type_modifier@TypeCode_indirect@omni@@UBEFXZ
?NP_type_modifier@TypeCode_value@omni@@UBEFXZ
?NP_unmarshalComplexParams@TypeCode_abstract_interface@omni@@SAPAVTypeCode_base@2@AAVcdrStream@@PAVTypeCode_offsetTable@2@@Z
?NP_unmarshalComplexParams@TypeCode_alias@omni@@SAPAVTypeCode_base@2@AAVcdrStream@@PAVTypeCode_offsetTable@2@@Z
?NP_unmarshalComplexParams@TypeCode_array@omni@@SAPAVTypeCode_base@2@AAVcdrStream@@PAVTypeCode_offsetTable@2@@Z
?NP_unmarshalComplexParams@TypeCode_enum@omni@@SAPAVTypeCode_base@2@AAVcdrStream@@PAVTypeCode_offsetTable@2@@Z
?NP_unmarshalComplexParams@TypeCode_except@omni@@SAPAVTypeCode_base@2@AAVcdrStream@@PAVTypeCode_offsetTable@2@@Z
?NP_unmarshalComplexParams@TypeCode_local_interface@omni@@SAPAVTypeCode_base@2@AAVcdrStream@@PAVTypeCode_offsetTable@2@@Z
?NP_unmarshalComplexParams@TypeCode_objref@omni@@SAPAVTypeCode_base@2@AAVcdrStream@@PAVTypeCode_offsetTable@2@@Z
?NP_unmarshalComplexParams@TypeCode_sequence@omni@@SAPAVTypeCode_base@2@AAVcdrStream@@PAVTypeCode_offsetTable@2@@Z
?NP_unmarshalComplexParams@TypeCode_struct@omni@@SAPAVTypeCode_base@2@AAVcdrStream@@PAVTypeCode_offsetTable@2@@Z
?NP_unmarshalComplexParams@TypeCode_union@omni@@SAPAVTypeCode_base@2@AAVcdrStream@@PAVTypeCode_offsetTable@2@@Z
?NP_unmarshalComplexParams@TypeCode_value@omni@@SAPAVTypeCode_base@2@AAVcdrStream@@PAVTypeCode_offsetTable@2@@Z
?NP_unmarshalComplexParams@TypeCode_value_box@omni@@SAPAVTypeCode_base@2@AAVcdrStream@@PAVTypeCode_offsetTable@2@@Z
?NP_unmarshalDataOnly@Any@CORBA@@QAEXAAVcdrStream@@@Z
?NP_unmarshalSimpleParams@TypeCode_fixed@omni@@SAPAVTypeCode_base@2@AAVcdrStream@@PAVTypeCode_offsetTable@2@@Z
?NP_unmarshalSimpleParams@TypeCode_string@omni@@SAPAVTypeCode_base@2@AAVcdrStream@@PAVTypeCode_offsetTable@2@@Z
?NP_unmarshalSimpleParams@TypeCode_wstring@omni@@SAPAVTypeCode_base@2@AAVcdrStream@@PAVTypeCode_offsetTable@2@@Z
?NP_value_box_tc@TypeCode@CORBA@@SAPAV12@PBD0PAV12@@Z
?NP_value_tc@TypeCode@CORBA@@SAPAV12@PBD0FPAV12@ABVValueMemberSeq@2@@Z
?NP_wstring_tc@TypeCode@CORBA@@SAPAV12@K@Z
?PD_MAGIC@InputValueTracker@omni@@0KB
?PD_MAGIC@OutputValueTracker@omni@@0KB
?PR_Object_tc@TypeCode@CORBA@@SAPAV12@XZ
?PR_Principal_tc@TypeCode@CORBA@@SAPAV12@XZ
?PR_TypeCode_tc@TypeCode@CORBA@@SAPAV12@XZ
?PR_abstract_interface_tc@TypeCode@CORBA@@SAPAV12@PBD0PAV_Tracker@12@@Z
?PR_alias_tc@TypeCode@CORBA@@SAPAV12@PBD0PAV12@PAV_Tracker@12@@Z
?PR_any_tc@TypeCode@CORBA@@SAPAV12@XZ
?PR_array_tc@TypeCode@CORBA@@SAPAV12@KPAV12@PAV_Tracker@12@@Z
?PR_boolean_tc@TypeCode@CORBA@@SAPAV12@XZ
?PR_char_tc@TypeCode@CORBA@@SAPAV12@XZ
?PR_clearData@Any@CORBA@@QAEXXZ
?PR_content_is_assigned@TypeCode_sequence@omni@@QBE_NXZ
?PR_double_tc@TypeCode@CORBA@@SAPAV12@XZ
?PR_enum_tc@TypeCode@CORBA@@SAPAV12@PBD0PAPBDKPAV_Tracker@12@@Z
?PR_exception_tc@TypeCode@CORBA@@SAPAV12@PBD0PBUPR_structMember@2@KPAV_Tracker@12@@Z
?PR_extract@Any@CORBA@@QBE_NPAVTypeCode@2@P6AXAAVcdrStream@@AAPAX@ZP6AX1PAX@ZP6AX4@Z2@Z
?PR_extract@Any@CORBA@@QBE_NPAVTypeCode@2@P6AXAAVcdrStream@@AAPAX@ZPAX@Z
?PR_fixed_tc@TypeCode@CORBA@@SAPAV12@GGPAV_Tracker@12@@Z
?PR_float_tc@TypeCode@CORBA@@SAPAV12@XZ
?PR_forward_tc@TypeCode@CORBA@@SAPAV12@PBDPAV_Tracker@12@@Z
?PR_insert@Any@CORBA@@QAEXPAVTypeCode@2@P6AXAAVcdrStream@@PAX@Z2@Z
?PR_insert@Any@CORBA@@QAEXPAVTypeCode@2@P6AXAAVcdrStream@@PAX@ZP6AX2@Z2@Z
?PR_interface_tc@TypeCode@CORBA@@SAPAV12@PBD0PAV_Tracker@12@@Z
?PR_is_valid@Context@CORBA@@SA_NPAV12@@Z
?PR_is_valid@ContextList@CORBA@@SA_NPAV12@@Z
?PR_is_valid@DynAny@DynamicAny@@SA_NPBV12@@Z
?PR_is_valid@Environment@CORBA@@SA_NPAV12@@Z
?PR_is_valid@Exception@CORBA@@SA_NPAV12@@Z
?PR_is_valid@ExceptionList@CORBA@@SA_NPAV12@@Z
?PR_is_valid@NVList@CORBA@@SA_NPAV12@@Z
?PR_is_valid@NamedValue@CORBA@@SA_NPAV12@@Z
?PR_is_valid@Request@CORBA@@SA_NPAV12@@Z
?PR_is_valid@TypeCode@CORBA@@SA_NPAV12@@Z
?PR_local_interface_tc@TypeCode@CORBA@@SAPAV12@PBD0PAV_Tracker@12@@Z
?PR_long_tc@TypeCode@CORBA@@SAPAV12@XZ
?PR_longlong_tc@TypeCode@CORBA@@SAPAV12@XZ
?PR_magic@Context@CORBA@@2KB
?PR_magic@ContextList@CORBA@@2KB
?PR_magic@DynAny@DynamicAny@@2KB
?PR_magic@Environment@CORBA@@2KB
?PR_magic@ExceptionList@CORBA@@2KB
?PR_magic@NVList@CORBA@@2KB
?PR_magic@NamedValue@CORBA@@2KB
?PR_magic@Request@CORBA@@2KB
?PR_magic@TypeCode@CORBA@@2KB
?PR_null_tc@TypeCode@CORBA@@SAPAV12@XZ
?PR_octet_tc@TypeCode@CORBA@@SAPAV12@XZ
?PR_recursive_sequence_tc@TypeCode@CORBA@@SAPAV12@KKPAV_Tracker@12@@Z
?PR_sequence_tc@TypeCode@CORBA@@SAPAV12@KPAV12@PAV_Tracker@12@@Z
?PR_short_tc@TypeCode@CORBA@@SAPAV12@XZ
?PR_streamToRead@Any@CORBA@@QBEAAVcdrAnyMemoryStream@@XZ
?PR_streamToWrite@Any@CORBA@@QAEAAVcdrAnyMemoryStream@@XZ
?PR_string_tc@TypeCode@CORBA@@SAPAV12@KPAV_Tracker@12@@Z
?PR_string_tc@TypeCode@CORBA@@SAPAV12@XZ
?PR_struct_tc@TypeCode@CORBA@@SAPAV12@PBD0PBUPR_structMember@2@KPAV_Tracker@12@@Z
?PR_ulong_tc@TypeCode@CORBA@@SAPAV12@XZ
?PR_ulonglong_tc@TypeCode@CORBA@@SAPAV12@XZ
?PR_union_tc@TypeCode@CORBA@@SAPAV12@PBD0PAV12@PBUPR_unionMember@2@KJPAV_Tracker@12@@Z
?PR_ushort_tc@TypeCode@CORBA@@SAPAV12@XZ
?PR_value_box_tc@TypeCode@CORBA@@SAPAV12@PBD0PAV12@PAV_Tracker@12@@Z
?PR_value_tc@TypeCode@CORBA@@SAPAV12@PBD0FPAV12@PBUPR_valueMember@2@KPAV_Tracker@12@@Z
?PR_void_tc@TypeCode@CORBA@@SAPAV12@XZ
?PR_wchar_tc@TypeCode@CORBA@@SAPAV12@XZ
?PR_wstring_tc@TypeCode@CORBA@@SAPAV12@KPAV_Tracker@12@@Z
?PR_wstring_tc@TypeCode@CORBA@@SAPAV12@XZ
?TCS_C@cdrStream@@QBEPAV0omniCodeSet@omni@@XZ
?TCS_W@cdrStream@@QBEPAV0omniCodeSet@omni@@XZ
?ToConstTcBase_Checked@omni@@YAPBVTypeCode_base@1@PBVTypeCode@CORBA@@@Z
?ToDynAnyConstrBase@omni@@YAPAVDynAnyConstrBase@1@PAVDynAny@DynamicAny@@@Z
?ToDynAnyImpl@omni@@YAPAVDynAnyImpl@1@PAVDynAny@DynamicAny@@@Z
?ToDynAnyImplBase@omni@@YAPAVDynAnyImplBase@1@PAVDynAny@DynamicAny@@@Z
?ToDynUnionImpl@omni@@YAPAVDynUnionImpl@1@PAVDynAny@DynamicAny@@@Z
?ToTcBase_Checked@omni@@YAPAVTypeCode_base@1@PAVTypeCode@CORBA@@@Z
?_NP_box@StringValue@CORBA@@$4PPPPPPPM@A@BE_NXZ
?_NP_box@StringValue@CORBA@@UBE_NXZ
?_NP_box@ValueBase@CORBA@@UBE_NXZ
?_NP_box@WStringValue@CORBA@@$4PPPPPPPM@A@BE_NXZ
?_NP_box@WStringValue@CORBA@@UBE_NXZ
?_NP_custom@DIIPollable@CORBA@@$4PPPPPPPM@A@BE_NXZ
?_NP_custom@DIIPollable@CORBA@@$R4DE@M@PPPPPPPM@M@BE_NXZ
?_NP_custom@DIIPollable@CORBA@@UBE_NXZ
?_NP_custom@ExceptionHolder@Messaging@@$4PPPPPPPM@A@BE_NXZ
?_NP_custom@ExceptionHolder@Messaging@@$R477PPPPPPPM@M@BE_NXZ
?_NP_custom@ExceptionHolder@Messaging@@$R4M@7PPPPPPPM@M@BE_NXZ
?_NP_custom@ExceptionHolder@Messaging@@UBE_NXZ
?_NP_custom@Pollable@CORBA@@$4PPPPPPPM@A@BE_NXZ
?_NP_custom@Pollable@CORBA@@UBE_NXZ
?_NP_custom@Poller@Messaging@@$4PPPPPPPM@A@BE_NXZ
?_NP_custom@Poller@Messaging@@$R4BA@M@PPPPPPPM@M@BE_NXZ
?_NP_custom@Poller@Messaging@@UBE_NXZ
?_NP_custom@StringValue@CORBA@@$4PPPPPPPM@A@BE_NXZ
?_NP_custom@StringValue@CORBA@@UBE_NXZ
?_NP_custom@UnknownValue@omni@@$4PPPPPPPM@A@BE_NXZ
?_NP_custom@UnknownValue@omni@@UBE_NXZ
?_NP_custom@WStringValue@CORBA@@$4PPPPPPPM@A@BE_NXZ
?_NP_custom@WStringValue@CORBA@@UBE_NXZ
?_NP_decrRefCount@DynAnyFactoryImpl@omni@@UAEXXZ
?_NP_decrRefCount@DynAnyImplBase@omni@@$4PPPPPPPM@3AEXXZ
?_NP_decrRefCount@DynAnyImplBase@omni@@$4PPPPPPPM@7AEXXZ
?_NP_decrRefCount@DynAnyImplBase@omni@@$4PPPPPPPM@A@AEXXZ
?_NP_decrRefCount@DynAnyImplBase@omni@@$4PPPPPPPM@CE@AEXXZ
?_NP_decrRefCount@DynAnyImplBase@omni@@UAEXXZ
?_NP_decrRefCount@DynArrayImpl@omni@@$4PPPPPPPM@A@AEXXZ
?_NP_decrRefCount@DynArrayImpl@omni@@UAEXXZ
?_NP_decrRefCount@DynEnumImpl@omni@@$4PPPPPPPM@A@AEXXZ
?_NP_decrRefCount@DynEnumImpl@omni@@UAEXXZ
?_NP_decrRefCount@DynFixedImpl@omni@@$4PPPPPPPM@A@AEXXZ
?_NP_decrRefCount@DynFixedImpl@omni@@UAEXXZ
?_NP_decrRefCount@DynSequenceImpl@omni@@$4PPPPPPPM@A@AEXXZ
?_NP_decrRefCount@DynSequenceImpl@omni@@UAEXXZ
?_NP_decrRefCount@DynStructImpl@omni@@$4PPPPPPPM@A@AEXXZ
?_NP_decrRefCount@DynStructImpl@omni@@UAEXXZ
?_NP_decrRefCount@DynUnionEnumDisc@omni@@$4PPPPPPPM@A@AEXXZ
?_NP_decrRefCount@DynUnionEnumDisc@omni@@UAEXXZ
?_NP_decrRefCount@DynUnionImpl@omni@@$4PPPPPPPM@A@AEXXZ
?_NP_decrRefCount@DynUnionImpl@omni@@UAEXXZ
?_NP_decrRefCount@DynValueBoxImpl@omni@@$4PPPPPPPM@A@AEXXZ
?_NP_decrRefCount@DynValueBoxImpl@omni@@UAEXXZ
?_NP_decrRefCount@DynValueImpl@omni@@$4PPPPPPPM@A@AEXXZ
?_NP_decrRefCount@DynValueImpl@omni@@UAEXXZ
?_NP_decrRefCount@LocalObject@CORBA@@$4PPPPPPPM@A@AEXXZ
?_NP_decrRefCount@LocalObject@CORBA@@$R477PPPPPPPM@M@AEXXZ
?_NP_decrRefCount@LocalObject@CORBA@@$R4EE@7PPPPPPPM@M@AEXXZ
?_NP_decrRefCount@Policy@CORBA@@$4PPPPPPPM@3AEXXZ
?_NP_decrRefCount@omniNilDynAny@omni@@$4PPPPPPPM@A@AEXXZ
?_NP_decrRefCount@omniNilDynAny@omni@@UAEXXZ
?_NP_duplicate@BadKind@TypeCode@CORBA@@EBEPAVException@3@XZ
?_NP_duplicate@Bounds@ContextList@CORBA@@EBEPAVException@3@XZ
?_NP_duplicate@Bounds@ExceptionList@CORBA@@EBEPAVException@3@XZ
?_NP_duplicate@Bounds@NVList@CORBA@@EBEPAVException@3@XZ
?_NP_duplicate@Bounds@TypeCode@CORBA@@EBEPAVException@3@XZ
?_NP_duplicate@FromAnyUserException@omni@@EBEPAVException@CORBA@@XZ
?_NP_duplicate@InconsistentTypeCode@DynAnyFactory@DynamicAny@@EBEPAVException@CORBA@@XZ
?_NP_duplicate@InconsistentTypeCode@ORB@CORBA@@EBEPAVException@3@XZ
?_NP_duplicate@InvalidValue@DynAny@DynamicAny@@EBEPAVException@CORBA@@XZ
?_NP_duplicate@NoPossiblePollable@PollableSet@CORBA@@UBEPAVException@3@XZ
?_NP_duplicate@TypeMismatch@DynAny@DynamicAny@@EBEPAVException@CORBA@@XZ
?_NP_duplicate@UnknownPollable@PollableSet@CORBA@@UBEPAVException@3@XZ
?_NP_duplicate@UnknownUserException@CORBA@@EBEPAVException@2@XZ
?_NP_duplicate@WrongTransaction@CORBA@@EBEPAVException@2@XZ
?_NP_incrRefCount@DynAnyFactoryImpl@omni@@UAEXXZ
?_NP_incrRefCount@DynAnyImplBase@omni@@$4PPPPPPPM@3AEXXZ
?_NP_incrRefCount@DynAnyImplBase@omni@@$4PPPPPPPM@7AEXXZ
?_NP_incrRefCount@DynAnyImplBase@omni@@$4PPPPPPPM@A@AEXXZ
?_NP_incrRefCount@DynAnyImplBase@omni@@$4PPPPPPPM@CE@AEXXZ
?_NP_incrRefCount@DynAnyImplBase@omni@@UAEXXZ
?_NP_incrRefCount@DynArrayImpl@omni@@$4PPPPPPPM@A@AEXXZ
?_NP_incrRefCount@DynArrayImpl@omni@@UAEXXZ
?_NP_incrRefCount@DynEnumImpl@omni@@$4PPPPPPPM@A@AEXXZ
?_NP_incrRefCount@DynEnumImpl@omni@@UAEXXZ
?_NP_incrRefCount@DynFixedImpl@omni@@$4PPPPPPPM@A@AEXXZ
?_NP_incrRefCount@DynFixedImpl@omni@@UAEXXZ
?_NP_incrRefCount@DynSequenceImpl@omni@@$4PPPPPPPM@A@AEXXZ
?_NP_incrRefCount@DynSequenceImpl@omni@@UAEXXZ
?_NP_incrRefCount@DynStructImpl@omni@@$4PPPPPPPM@A@AEXXZ
?_NP_incrRefCount@DynStructImpl@omni@@UAEXXZ
?_NP_incrRefCount@DynUnionEnumDisc@omni@@$4PPPPPPPM@A@AEXXZ
?_NP_incrRefCount@DynUnionEnumDisc@omni@@UAEXXZ
?_NP_incrRefCount@DynUnionImpl@omni@@$4PPPPPPPM@A@AEXXZ
?_NP_incrRefCount@DynUnionImpl@omni@@UAEXXZ
?_NP_incrRefCount@DynValueBoxImpl@omni@@$4PPPPPPPM@A@AEXXZ
?_NP_incrRefCount@DynValueBoxImpl@omni@@UAEXXZ
?_NP_incrRefCount@DynValueImpl@omni@@$4PPPPPPPM@A@AEXXZ
?_NP_incrRefCount@DynValueImpl@omni@@UAEXXZ
?_NP_incrRefCount@LocalObject@CORBA@@$4PPPPPPPM@A@AEXXZ
?_NP_incrRefCount@LocalObject@CORBA@@$R477PPPPPPPM@M@AEXXZ
?_NP_incrRefCount@LocalObject@CORBA@@$R4EE@7PPPPPPPM@M@AEXXZ
?_NP_incrRefCount@Policy@CORBA@@$4PPPPPPPM@3AEXXZ
?_NP_incrRefCount@omniNilDynAny@omni@@$4PPPPPPPM@A@AEXXZ
?_NP_incrRefCount@omniNilDynAny@omni@@UAEXXZ
?_NP_is_nil@AbstractBase@CORBA@@UBE_NXZ
?_NP_is_nil@Object@CORBA@@QBE_NXZ
?_NP_is_nil@_omni_AbstractBaseObjref@CORBA@@UBE_NXZ
?_NP_is_pseudo@Object@CORBA@@QBE_NXZ
?_NP_marshal@BadKind@TypeCode@CORBA@@EBEXAAVcdrStream@@@Z
?_NP_marshal@Bounds@ContextList@CORBA@@EBEXAAVcdrStream@@@Z
?_NP_marshal@Bounds@ExceptionList@CORBA@@EBEXAAVcdrStream@@@Z
?_NP_marshal@Bounds@NVList@CORBA@@EBEXAAVcdrStream@@@Z
?_NP_marshal@Bounds@TypeCode@CORBA@@EBEXAAVcdrStream@@@Z
?_NP_marshal@DIIPollable@CORBA@@SAXPAV12@AAVcdrStream@@@Z
?_NP_marshal@ExceptionHolder@Messaging@@SAXPAV12@AAVcdrStream@@@Z
?_NP_marshal@FromAnyUserException@omni@@UBEXAAVcdrStream@@@Z
?_NP_marshal@InconsistentTypeCode@DynAnyFactory@DynamicAny@@EBEXAAVcdrStream@@@Z
?_NP_marshal@InconsistentTypeCode@ORB@CORBA@@EBEXAAVcdrStream@@@Z
?_NP_marshal@InvalidValue@DynAny@DynamicAny@@EBEXAAVcdrStream@@@Z
?_NP_marshal@NoPossiblePollable@PollableSet@CORBA@@EBEXAAVcdrStream@@@Z
?_NP_marshal@Pollable@CORBA@@SAXPAV12@AAVcdrStream@@@Z
?_NP_marshal@Poller@Messaging@@SAXPAV12@AAVcdrStream@@@Z
?_NP_marshal@StringValue@CORBA@@SAXPAV12@AAVcdrStream@@@Z
?_NP_marshal@TypeMismatch@DynAny@DynamicAny@@EBEXAAVcdrStream@@@Z
?_NP_marshal@UnknownPollable@PollableSet@CORBA@@EBEXAAVcdrStream@@@Z
?_NP_marshal@UnknownUserException@CORBA@@EBEXAAVcdrStream@@@Z
?_NP_marshal@ValueBase@CORBA@@SAXPAV12@AAVcdrStream@@@Z
?_NP_marshal@WStringValue@CORBA@@SAXPAV12@AAVcdrStream@@@Z
?_NP_marshal@WrongTransaction@CORBA@@EBEXAAVcdrStream@@@Z
?_NP_repoId@BadKind@TypeCode@CORBA@@EBEPBDPAH@Z
?_NP_repoId@Bounds@ContextList@CORBA@@EBEPBDPAH@Z
?_NP_repoId@Bounds@ExceptionList@CORBA@@EBEPBDPAH@Z
?_NP_repoId@Bounds@NVList@CORBA@@EBEPBDPAH@Z
?_NP_repoId@Bounds@TypeCode@CORBA@@EBEPBDPAH@Z
?_NP_repoId@FromAnyUserException@omni@@UBEPBDPAH@Z
?_NP_repoId@InconsistentTypeCode@DynAnyFactory@DynamicAny@@EBEPBDPAH@Z
?_NP_repoId@InconsistentTypeCode@ORB@CORBA@@EBEPBDPAH@Z
?_NP_repoId@InvalidValue@DynAny@DynamicAny@@EBEPBDPAH@Z
?_NP_repoId@NoPossiblePollable@PollableSet@CORBA@@EBEPBDPAH@Z
?_NP_repoId@TypeMismatch@DynAny@DynamicAny@@EBEPBDPAH@Z
?_NP_repoId@UnknownPollable@PollableSet@CORBA@@EBEPBDPAH@Z
?_NP_repoId@UnknownUserException@CORBA@@EBEPBDPAH@Z
?_NP_repoId@WrongTransaction@CORBA@@EBEPBDPAH@Z
?_NP_repositoryId@DIIPollable@CORBA@@$4PPPPPPPM@A@BEPBDAAK@Z
?_NP_repositoryId@DIIPollable@CORBA@@$4PPPPPPPM@A@BEPBDXZ
?_NP_repositoryId@DIIPollable@CORBA@@$R4DE@M@PPPPPPPM@M@BEPBDAAK@Z
?_NP_repositoryId@DIIPollable@CORBA@@$R4DE@M@PPPPPPPM@M@BEPBDXZ
?_NP_repositoryId@DIIPollable@CORBA@@UBEPBDAAK@Z
?_NP_repositoryId@DIIPollable@CORBA@@UBEPBDXZ
?_NP_repositoryId@ExceptionHolder@Messaging@@$4PPPPPPPM@A@BEPBDAAK@Z
?_NP_repositoryId@ExceptionHolder@Messaging@@$4PPPPPPPM@A@BEPBDXZ
?_NP_repositoryId@ExceptionHolder@Messaging@@$R477PPPPPPPM@M@BEPBDAAK@Z
?_NP_repositoryId@ExceptionHolder@Messaging@@$R477PPPPPPPM@M@BEPBDXZ
?_NP_repositoryId@ExceptionHolder@Messaging@@$R4M@7PPPPPPPM@M@BEPBDAAK@Z
?_NP_repositoryId@ExceptionHolder@Messaging@@$R4M@7PPPPPPPM@M@BEPBDXZ
?_NP_repositoryId@ExceptionHolder@Messaging@@UBEPBDAAK@Z
?_NP_repositoryId@ExceptionHolder@Messaging@@UBEPBDXZ
?_NP_repositoryId@Pollable@CORBA@@$4PPPPPPPM@A@BEPBDAAK@Z
?_NP_repositoryId@Pollable@CORBA@@$4PPPPPPPM@A@BEPBDXZ
?_NP_repositoryId@Pollable@CORBA@@UBEPBDAAK@Z
?_NP_repositoryId@Pollable@CORBA@@UBEPBDXZ
?_NP_repositoryId@Poller@Messaging@@$4PPPPPPPM@A@BEPBDAAK@Z
?_NP_repositoryId@Poller@Messaging@@$4PPPPPPPM@A@BEPBDXZ
?_NP_repositoryId@Poller@Messaging@@$R4BA@M@PPPPPPPM@M@BEPBDAAK@Z
?_NP_repositoryId@Poller@Messaging@@$R4BA@M@PPPPPPPM@M@BEPBDXZ
?_NP_repositoryId@Poller@Messaging@@UBEPBDAAK@Z
?_NP_repositoryId@Poller@Messaging@@UBEPBDXZ
?_NP_repositoryId@StringValue@CORBA@@$4PPPPPPPM@A@BEPBDAAK@Z
?_NP_repositoryId@StringValue@CORBA@@$4PPPPPPPM@A@BEPBDXZ
?_NP_repositoryId@StringValue@CORBA@@UBEPBDAAK@Z
?_NP_repositoryId@StringValue@CORBA@@UBEPBDXZ
?_NP_repositoryId@UnknownValue@omni@@$4PPPPPPPM@A@BEPBDAAK@Z
?_NP_repositoryId@UnknownValue@omni@@$4PPPPPPPM@A@BEPBDXZ
?_NP_repositoryId@UnknownValue@omni@@UBEPBDAAK@Z
?_NP_repositoryId@UnknownValue@omni@@UBEPBDXZ
?_NP_repositoryId@WStringValue@CORBA@@$4PPPPPPPM@A@BEPBDAAK@Z
?_NP_repositoryId@WStringValue@CORBA@@$4PPPPPPPM@A@BEPBDXZ
?_NP_repositoryId@WStringValue@CORBA@@UBEPBDAAK@Z
?_NP_repositoryId@WStringValue@CORBA@@UBEPBDXZ
?_NP_to_object@AbstractBase@CORBA@@UAEPAVObject@2@XZ
?_NP_to_object@_omni_AbstractBaseObjref@CORBA@@UAEPAVObject@2@XZ
?_NP_to_value@AbstractBase@CORBA@@UAEPAVValueBase@2@XZ
?_NP_truncatableIds@DIIPollable@CORBA@@$4PPPPPPPM@A@BEPBU_omni_ValueIds@@XZ
?_NP_truncatableIds@DIIPollable@CORBA@@$R4DE@M@PPPPPPPM@M@BEPBU_omni_ValueIds@@XZ
?_NP_truncatableIds@DIIPollable@CORBA@@UBEPBU_omni_ValueIds@@XZ
?_NP_truncatableIds@ExceptionHolder@Messaging@@$4PPPPPPPM@A@BEPBU_omni_ValueIds@@XZ
?_NP_truncatableIds@ExceptionHolder@Messaging@@$R477PPPPPPPM@M@BEPBU_omni_ValueIds@@XZ
?_NP_truncatableIds@ExceptionHolder@Messaging@@$R4M@7PPPPPPPM@M@BEPBU_omni_ValueIds@@XZ
?_NP_truncatableIds@ExceptionHolder@Messaging@@UBEPBU_omni_ValueIds@@XZ
?_NP_truncatableIds@Pollable@CORBA@@$4PPPPPPPM@A@BEPBU_omni_ValueIds@@XZ
?_NP_truncatableIds@Pollable@CORBA@@UBEPBU_omni_ValueIds@@XZ
?_NP_truncatableIds@Poller@Messaging@@$4PPPPPPPM@A@BEPBU_omni_ValueIds@@XZ
?_NP_truncatableIds@Poller@Messaging@@$R4BA@M@PPPPPPPM@M@BEPBU_omni_ValueIds@@XZ
?_NP_truncatableIds@Poller@Messaging@@UBEPBU_omni_ValueIds@@XZ
?_NP_truncatableIds@StringValue@CORBA@@$4PPPPPPPM@A@BEPBU_omni_ValueIds@@XZ
?_NP_truncatableIds@StringValue@CORBA@@UBEPBU_omni_ValueIds@@XZ
?_NP_truncatableIds@UnknownValue@omni@@$4PPPPPPPM@A@BEPBU_omni_ValueIds@@XZ
?_NP_truncatableIds@UnknownValue@omni@@UBEPBU_omni_ValueIds@@XZ
?_NP_truncatableIds@WStringValue@CORBA@@$4PPPPPPPM@A@BEPBU_omni_ValueIds@@XZ
?_NP_truncatableIds@WStringValue@CORBA@@UBEPBU_omni_ValueIds@@XZ
?_NP_typeId@BadKind@TypeCode@CORBA@@EBEPBDXZ
?_NP_typeId@Bounds@ContextList@CORBA@@EBEPBDXZ
?_NP_typeId@Bounds@ExceptionList@CORBA@@EBEPBDXZ
?_NP_typeId@Bounds@NVList@CORBA@@EBEPBDXZ
?_NP_typeId@Bounds@TypeCode@CORBA@@EBEPBDXZ
?_NP_typeId@FromAnyUserException@omni@@EBEPBDXZ
?_NP_typeId@InconsistentTypeCode@DynAnyFactory@DynamicAny@@EBEPBDXZ
?_NP_typeId@InconsistentTypeCode@ORB@CORBA@@EBEPBDXZ
?_NP_typeId@InvalidValue@DynAny@DynamicAny@@EBEPBDXZ
?_NP_typeId@NoPossiblePollable@PollableSet@CORBA@@EBEPBDXZ
?_NP_typeId@TypeMismatch@DynAny@DynamicAny@@EBEPBDXZ
?_NP_typeId@UnknownPollable@PollableSet@CORBA@@EBEPBDXZ
?_NP_typeId@UnknownUserException@CORBA@@EBEPBDXZ
?_NP_typeId@WrongTransaction@CORBA@@EBEPBDXZ
?_NP_unmarshal@DIIPollable@CORBA@@SAPAV12@AAVcdrStream@@@Z
?_NP_unmarshal@ExceptionHolder@Messaging@@SAPAV12@AAVcdrStream@@@Z
?_NP_unmarshal@Pollable@CORBA@@SAPAV12@AAVcdrStream@@@Z
?_NP_unmarshal@Poller@Messaging@@SAPAV12@AAVcdrStream@@@Z
?_NP_unmarshal@StringValue@CORBA@@SAPAV12@AAVcdrStream@@@Z
?_NP_unmarshal@ValueBase@CORBA@@SAPAV12@AAVcdrStream@@@Z
?_NP_unmarshal@WStringValue@CORBA@@SAPAV12@AAVcdrStream@@@Z
?_PD_instance@DIIPollableImpl@omniAMI@@2V12@A
?_PD_repoId@AbstractBase@CORBA@@2PBDB
?_PD_repoId@AbstractInterfaceDef@CORBA@@2PBDB
?_PD_repoId@AliasDef@CORBA@@2PBDB
?_PD_repoId@ArrayDef@CORBA@@2PBDB
?_PD_repoId@AttributeDef@CORBA@@2PBDB
?_PD_repoId@BadKind@TypeCode@CORBA@@2PBDB
?_PD_repoId@Bounds@ContextList@CORBA@@2PBDB
?_PD_repoId@Bounds@ExceptionList@CORBA@@2PBDB
?_PD_repoId@Bounds@NVList@CORBA@@2PBDB
?_PD_repoId@Bounds@TypeCode@CORBA@@2PBDB
?_PD_repoId@ConstantDef@CORBA@@2PBDB
?_PD_repoId@Contained@CORBA@@2PBDB
?_PD_repoId@Container@CORBA@@2PBDB
?_PD_repoId@DIIPollable@CORBA@@2PBDB
?_PD_repoId@DynAny@DynamicAny@@2PBDB
?_PD_repoId@DynAnyConstrBase@omni@@2PBDB
?_PD_repoId@DynAnyFactory@DynamicAny@@2PBDB
?_PD_repoId@DynAnyImpl@omni@@2PBDB
?_PD_repoId@DynAnyImplBase@omni@@2PBDB
?_PD_repoId@DynArray@DynamicAny@@2PBDB
?_PD_repoId@DynEnum@DynamicAny@@2PBDB
?_PD_repoId@DynFixed@DynamicAny@@2PBDB
?_PD_repoId@DynSequence@DynamicAny@@2PBDB
?_PD_repoId@DynStruct@DynamicAny@@2PBDB
?_PD_repoId@DynUnion@DynamicAny@@2PBDB
?_PD_repoId@DynUnionImpl@omni@@2PBDB
?_PD_repoId@DynValue@DynamicAny@@2PBDB
?_PD_repoId@DynValueBox@DynamicAny@@2PBDB
?_PD_repoId@DynValueCommon@DynamicAny@@2PBDB
?_PD_repoId@EnumDef@CORBA@@2PBDB
?_PD_repoId@ExceptionDef@CORBA@@2PBDB
?_PD_repoId@ExceptionHolder@Messaging@@2PBDB
?_PD_repoId@FixedDef@CORBA@@2PBDB
?_PD_repoId@IDLType@CORBA@@2PBDB
?_PD_repoId@IRObject@CORBA@@2PBDB
?_PD_repoId@InconsistentTypeCode@DynAnyFactory@DynamicAny@@2PBDB
?_PD_repoId@InconsistentTypeCode@ORB@CORBA@@2PBDB
?_PD_repoId@InterfaceDef@CORBA@@2PBDB
?_PD_repoId@InvalidValue@DynAny@DynamicAny@@2PBDB
?_PD_repoId@ModuleDef@CORBA@@2PBDB
?_PD_repoId@NativeDef@CORBA@@2PBDB
?_PD_repoId@NoPossiblePollable@PollableSet@CORBA@@2PBDB
?_PD_repoId@OperationDef@CORBA@@2PBDB
?_PD_repoId@Pollable@CORBA@@2PBDB
?_PD_repoId@PollableSet@CORBA@@2PBDB
?_PD_repoId@Poller@Messaging@@2PBDB
?_PD_repoId@PollerImpl@omniAMI@@2PBDB
?_PD_repoId@PrimitiveDef@CORBA@@2PBDB
?_PD_repoId@ReplyHandler@Messaging@@2PBDB
?_PD_repoId@Repository@CORBA@@2PBDB
?_PD_repoId@SequenceDef@CORBA@@2PBDB
?_PD_repoId@StringDef@CORBA@@2PBDB
?_PD_repoId@StringValue@CORBA@@2PBDB
?_PD_repoId@StructDef@CORBA@@2PBDB
?_PD_repoId@TypeMismatch@DynAny@DynamicAny@@2PBDB
?_PD_repoId@TypedefDef@CORBA@@2PBDB
?_PD_repoId@UnionDef@CORBA@@2PBDB
?_PD_repoId@UnknownPollable@PollableSet@CORBA@@2PBDB
?_PD_repoId@UnknownValue@omni@@2PBDB
?_PD_repoId@ValueBase@CORBA@@2PBDB
?_PD_repoId@ValueBoxDef@CORBA@@2PBDB
?_PD_repoId@ValueDef@CORBA@@2PBDB
?_PD_repoId@ValueMemberDef@CORBA@@2PBDB
?_PD_repoId@WStringValue@CORBA@@2PBDB
?_PD_repoId@WrongTransaction@CORBA@@2PBDB
?_PD_repoId@WstringDef@CORBA@@2PBDB
?_PD_typeId@NoPossiblePollable@PollableSet@CORBA@@2PBDB
?_PD_typeId@UnknownPollable@PollableSet@CORBA@@2PBDB
?_PR_cd@PollerImpl@omniAMI@@QAEPAVomniAsyncCallDescriptor@@XZ
?_PR_copy_state@DIIPollable@CORBA@@UAEXPAV12@@Z
?_PR_copy_state@ExceptionHolder@Messaging@@UAEXPAV12@@Z
?_PR_copy_state@Pollable@CORBA@@UAEXPAV12@@Z
?_PR_copy_state@Poller@Messaging@@UAEXPAV12@@Z
?_PR_copy_state@StringValue@CORBA@@UAEXPAV12@@Z
?_PR_copy_state@WStringValue@CORBA@@UAEXPAV12@@Z
?_PR_getobj@Object@CORBA@@QAEPAVomniObjRef@@XZ
?_PR_is_valid@Object@CORBA@@SA_NPAV12@@Z
?_PR_magic@ValueBase@CORBA@@2KB
?_PR_marshal_state@DIIPollable@CORBA@@$4PPPPPPPM@A@BEXAAVcdrStream@@@Z
?_PR_marshal_state@DIIPollable@CORBA@@$R4DE@M@PPPPPPPM@M@BEXAAVcdrStream@@@Z
?_PR_marshal_state@DIIPollable@CORBA@@UBEXAAVcdrStream@@@Z
?_PR_marshal_state@ExceptionHolder@Messaging@@$4PPPPPPPM@A@BEXAAVcdrStream@@@Z
?_PR_marshal_state@ExceptionHolder@Messaging@@$R477PPPPPPPM@M@BEXAAVcdrStream@@@Z
?_PR_marshal_state@ExceptionHolder@Messaging@@$R4M@7PPPPPPPM@M@BEXAAVcdrStream@@@Z
?_PR_marshal_state@ExceptionHolder@Messaging@@UBEXAAVcdrStream@@@Z
?_PR_marshal_state@Pollable@CORBA@@$4PPPPPPPM@A@BEXAAVcdrStream@@@Z
?_PR_marshal_state@Pollable@CORBA@@UBEXAAVcdrStream@@@Z
?_PR_marshal_state@Poller@Messaging@@$4PPPPPPPM@A@BEXAAVcdrStream@@@Z
?_PR_marshal_state@Poller@Messaging@@$R4BA@M@PPPPPPPM@M@BEXAAVcdrStream@@@Z
?_PR_marshal_state@Poller@Messaging@@UBEXAAVcdrStream@@@Z
?_PR_marshal_state@StringValue@CORBA@@$4PPPPPPPM@A@BEXAAVcdrStream@@@Z
?_PR_marshal_state@StringValue@CORBA@@UBEXAAVcdrStream@@@Z
?_PR_marshal_state@UnknownValue@omni@@$4PPPPPPPM@A@BEXAAVcdrStream@@@Z
?_PR_marshal_state@UnknownValue@omni@@UBEXAAVcdrStream@@@Z
?_PR_marshal_state@WStringValue@CORBA@@$4PPPPPPPM@A@BEXAAVcdrStream@@@Z
?_PR_marshal_state@WStringValue@CORBA@@UBEXAAVcdrStream@@@Z
?_PR_retrieved@PollerImpl@omniAMI@@QAE_NXZ
?_PR_setobj@Object@CORBA@@QAEXPAVomniObjRef@@@Z
?_PR_unmarshal_state@DIIPollable@CORBA@@$4PPPPPPPM@A@AEXAAVcdrStream@@@Z
?_PR_unmarshal_state@DIIPollable@CORBA@@$R4DE@M@PPPPPPPM@M@AEXAAVcdrStream@@@Z
?_PR_unmarshal_state@DIIPollable@CORBA@@UAEXAAVcdrStream@@@Z
?_PR_unmarshal_state@ExceptionHolder@Messaging@@$4PPPPPPPM@A@AEXAAVcdrStream@@@Z
?_PR_unmarshal_state@ExceptionHolder@Messaging@@$R477PPPPPPPM@M@AEXAAVcdrStream@@@Z
?_PR_unmarshal_state@ExceptionHolder@Messaging@@$R4M@7PPPPPPPM@M@AEXAAVcdrStream@@@Z
?_PR_unmarshal_state@ExceptionHolder@Messaging@@UAEXAAVcdrStream@@@Z
?_PR_unmarshal_state@Pollable@CORBA@@$4PPPPPPPM@A@AEXAAVcdrStream@@@Z
?_PR_unmarshal_state@Pollable@CORBA@@UAEXAAVcdrStream@@@Z
?_PR_unmarshal_state@Poller@Messaging@@$4PPPPPPPM@A@AEXAAVcdrStream@@@Z
?_PR_unmarshal_state@Poller@Messaging@@$R4BA@M@PPPPPPPM@M@AEXAAVcdrStream@@@Z
?_PR_unmarshal_state@Poller@Messaging@@UAEXAAVcdrStream@@@Z
?_PR_unmarshal_state@StringValue@CORBA@@$4PPPPPPPM@A@AEXAAVcdrStream@@@Z
?_PR_unmarshal_state@StringValue@CORBA@@UAEXAAVcdrStream@@@Z
?_PR_unmarshal_state@UnknownValue@omni@@$4PPPPPPPM@A@AEXAAVcdrStream@@@Z
?_PR_unmarshal_state@UnknownValue@omni@@UAEXAAVcdrStream@@@Z
?_PR_unmarshal_state@WStringValue@CORBA@@$4PPPPPPPM@A@AEXAAVcdrStream@@@Z
?_PR_unmarshal_state@WStringValue@CORBA@@UAEXAAVcdrStream@@@Z
?_addToSet@DIIPollableImpl@omniAMI@@QAE_NPAVomni_tracedcondition@@@Z
?_add_ref@DIIPollableImpl@omniAMI@@$4PPPPPPPM@A@AEXXZ
?_add_ref@DIIPollableImpl@omniAMI@@UAEXXZ
?_add_ref@DefaultValueRefCountBase@CORBA@@$4PPPPPPPM@3AEXXZ
?_add_ref@DefaultValueRefCountBase@CORBA@@$4PPPPPPPM@A@AEXXZ
?_add_ref@DefaultValueRefCountBase@CORBA@@$R4BA@BA@PPPPPPPM@M@AEXXZ
?_add_ref@DefaultValueRefCountBase@CORBA@@$R4HA@7PPPPPPPM@M@AEXXZ
?_add_ref@DefaultValueRefCountBase@CORBA@@$R4M@M@PPPPPPPM@M@AEXXZ
?_add_ref@DefaultValueRefCountBase@CORBA@@UAEXXZ
?_add_ref@PollableSetImpl@omniAMI@@$4PPPPPPPM@A@AEXXZ
?_add_ref@PollableSetImpl@omniAMI@@UAEXXZ
?_add_ref@ServantBase@PortableServer@@$R477PPPPPPPM@BA@AEXXZ
?_add_ref@ServantBase@PortableServer@@$R47BA@PPPPPPPM@BA@AEXXZ
?_add_ref@ServantBase@PortableServer@@$R47BE@PPPPPPPM@BA@AEXXZ
?_add_ref@ServantBase@PortableServer@@$R47BI@PPPPPPPM@BA@AEXXZ
?_add_ref@ServantBase@PortableServer@@$R47BM@PPPPPPPM@BA@AEXXZ
?_add_ref@ServantBase@PortableServer@@$R47CA@PPPPPPPM@BA@AEXXZ
?_add_ref@ServantBase@PortableServer@@$R47M@PPPPPPPM@BA@AEXXZ
?_add_ref@ValueFactoryBase@CORBA@@UAEXXZ
?_add_ref@ValueRefCountBase@PortableServer@@$4PPPPPPPM@A@AEXXZ
?_add_ref@ValueRefCountBase@PortableServer@@$4PPPPPPPM@M@AEXXZ
?_add_ref@ValueRefCountBase@PortableServer@@UAEXXZ
?_checkResult@PollerImpl@omniAMI@@IAEXPBDK@Z
?_classid@cdrAnyMemoryStream@@2HA
?_copy_value@DIIPollable@CORBA@@$4PPPPPPPM@A@AEPAVValueBase@2@XZ
?_copy_value@DIIPollable@CORBA@@$R4DE@M@PPPPPPPM@M@AEPAVValueBase@2@XZ
?_copy_value@DIIPollable@CORBA@@UAEPAVValueBase@2@XZ
?_copy_value@ExceptionHolder@Messaging@@$4PPPPPPPM@A@AEPAVValueBase@CORBA@@XZ
?_copy_value@ExceptionHolder@Messaging@@$R477PPPPPPPM@M@AEPAVValueBase@CORBA@@XZ
?_copy_value@ExceptionHolder@Messaging@@$R4M@7PPPPPPPM@M@AEPAVValueBase@CORBA@@XZ
?_copy_value@ExceptionHolder@Messaging@@UAEPAVValueBase@CORBA@@XZ
?_copy_value@Pollable@CORBA@@$4PPPPPPPM@A@AEPAVValueBase@2@XZ
?_copy_value@Pollable@CORBA@@UAEPAVValueBase@2@XZ
?_copy_value@Poller@Messaging@@$4PPPPPPPM@A@AEPAVValueBase@CORBA@@XZ
?_copy_value@Poller@Messaging@@$R4BA@M@PPPPPPPM@M@AEPAVValueBase@CORBA@@XZ
?_copy_value@Poller@Messaging@@UAEPAVValueBase@CORBA@@XZ
?_copy_value@StringValue@CORBA@@$4PPPPPPPM@A@AEPAVValueBase@2@XZ
?_copy_value@StringValue@CORBA@@UAEPAVValueBase@2@XZ
?_copy_value@UnknownValue@omni@@$4PPPPPPPM@A@AEPAVValueBase@CORBA@@XZ
?_copy_value@UnknownValue@omni@@UAEPAVValueBase@CORBA@@XZ
?_copy_value@WStringValue@CORBA@@$4PPPPPPPM@A@AEPAVValueBase@2@XZ
?_copy_value@WStringValue@CORBA@@UAEPAVValueBase@2@XZ
?_create_request@Object@CORBA@@QAEXPAVContext@2@PBDPAVNVList@2@PAVNamedValue@2@PAVExceptionList@2@PAVContextList@2@V?$_CORBA_PseudoObj_Out@VRequest@CORBA@@V?$_CORBA_PseudoObj_Var@VRequest@CORBA@@@@@@K@Z
?_create_request@Object@CORBA@@QAEXPAVContext@2@PBDPAVNVList@2@PAVNamedValue@2@V?$_CORBA_PseudoObj_Out@VRequest@CORBA@@V?$_CORBA_PseudoObj_Var@VRequest@CORBA@@@@@@K@Z
?_dispatch@DynamicImplementation@PortableServer@@$4PPPPPPPM@A@AE_NAAVomniCallHandle@@@Z
?_dispatch@DynamicImplementation@PortableServer@@UAE_NAAVomniCallHandle@@@Z
?_dispatch@_impl_AbstractInterfaceDef@CORBA@@$4PPPPPPPM@A@AE_NAAVomniCallHandle@@@Z
?_dispatch@_impl_AbstractInterfaceDef@CORBA@@$R47BM@PPPPPPPM@7AE_NAAVomniCallHandle@@@Z
?_dispatch@_impl_AbstractInterfaceDef@CORBA@@UAE_NAAVomniCallHandle@@@Z
?_dispatch@_impl_AliasDef@CORBA@@$4PPPPPPPM@A@AE_NAAVomniCallHandle@@@Z
?_dispatch@_impl_AliasDef@CORBA@@$R47BI@PPPPPPPM@M@AE_NAAVomniCallHandle@@@Z
?_dispatch@_impl_AliasDef@CORBA@@UAE_NAAVomniCallHandle@@@Z
?_dispatch@_impl_ArrayDef@CORBA@@$4PPPPPPPM@A@AE_NAAVomniCallHandle@@@Z
?_dispatch@_impl_ArrayDef@CORBA@@$R47BA@PPPPPPPM@M@AE_NAAVomniCallHandle@@@Z
?_dispatch@_impl_ArrayDef@CORBA@@UAE_NAAVomniCallHandle@@@Z
?_dispatch@_impl_AttributeDef@CORBA@@$4PPPPPPPM@A@AE_NAAVomniCallHandle@@@Z
?_dispatch@_impl_AttributeDef@CORBA@@$R47BA@PPPPPPPM@M@AE_NAAVomniCallHandle@@@Z
?_dispatch@_impl_AttributeDef@CORBA@@UAE_NAAVomniCallHandle@@@Z
?_dispatch@_impl_ConstantDef@CORBA@@$4PPPPPPPM@A@AE_NAAVomniCallHandle@@@Z
?_dispatch@_impl_ConstantDef@CORBA@@$R47BA@PPPPPPPM@M@AE_NAAVomniCallHandle@@@Z
?_dispatch@_impl_ConstantDef@CORBA@@UAE_NAAVomniCallHandle@@@Z
?_dispatch@_impl_Contained@CORBA@@$4PPPPPPPM@A@AE_NAAVomniCallHandle@@@Z
?_dispatch@_impl_Contained@CORBA@@$R47M@PPPPPPPM@M@AE_NAAVomniCallHandle@@@Z
?_dispatch@_impl_Contained@CORBA@@UAE_NAAVomniCallHandle@@@Z
?_dispatch@_impl_Container@CORBA@@$4PPPPPPPM@A@AE_NAAVomniCallHandle@@@Z
?_dispatch@_impl_Container@CORBA@@$R47M@PPPPPPPM@M@AE_NAAVomniCallHandle@@@Z
?_dispatch@_impl_Container@CORBA@@UAE_NAAVomniCallHandle@@@Z
?_dispatch@_impl_EnumDef@CORBA@@$4PPPPPPPM@A@AE_NAAVomniCallHandle@@@Z
?_dispatch@_impl_EnumDef@CORBA@@$R47BI@PPPPPPPM@M@AE_NAAVomniCallHandle@@@Z
?_dispatch@_impl_EnumDef@CORBA@@UAE_NAAVomniCallHandle@@@Z
?_dispatch@_impl_ExceptionDef@CORBA@@$4PPPPPPPM@A@AE_NAAVomniCallHandle@@@Z
?_dispatch@_impl_ExceptionDef@CORBA@@$R47BE@PPPPPPPM@M@AE_NAAVomniCallHandle@@@Z
?_dispatch@_impl_ExceptionDef@CORBA@@UAE_NAAVomniCallHandle@@@Z
?_dispatch@_impl_FixedDef@CORBA@@$4PPPPPPPM@A@AE_NAAVomniCallHandle@@@Z
?_dispatch@_impl_FixedDef@CORBA@@$R47BA@PPPPPPPM@M@AE_NAAVomniCallHandle@@@Z
?_dispatch@_impl_FixedDef@CORBA@@UAE_NAAVomniCallHandle@@@Z
?_dispatch@_impl_IDLType@CORBA@@$4PPPPPPPM@A@AE_NAAVomniCallHandle@@@Z
?_dispatch@_impl_IDLType@CORBA@@$R47M@PPPPPPPM@M@AE_NAAVomniCallHandle@@@Z
?_dispatch@_impl_IDLType@CORBA@@UAE_NAAVomniCallHandle@@@Z
?_dispatch@_impl_IRObject@CORBA@@$4PPPPPPPM@A@AE_NAAVomniCallHandle@@@Z
?_dispatch@_impl_IRObject@CORBA@@$R477PPPPPPPM@M@AE_NAAVomniCallHandle@@@Z
?_dispatch@_impl_IRObject@CORBA@@UAE_NAAVomniCallHandle@@@Z
?_dispatch@_impl_InterfaceDef@CORBA@@$4PPPPPPPM@A@AE_NAAVomniCallHandle@@@Z
?_dispatch@_impl_InterfaceDef@CORBA@@$R47BI@PPPPPPPM@M@AE_NAAVomniCallHandle@@@Z
?_dispatch@_impl_InterfaceDef@CORBA@@UAE_NAAVomniCallHandle@@@Z
?_dispatch@_impl_ModuleDef@CORBA@@$4PPPPPPPM@A@AE_NAAVomniCallHandle@@@Z
?_dispatch@_impl_ModuleDef@CORBA@@$R47BE@PPPPPPPM@7AE_NAAVomniCallHandle@@@Z
?_dispatch@_impl_ModuleDef@CORBA@@UAE_NAAVomniCallHandle@@@Z
?_dispatch@_impl_NativeDef@CORBA@@$4PPPPPPPM@A@AE_NAAVomniCallHandle@@@Z
?_dispatch@_impl_NativeDef@CORBA@@$R47BI@PPPPPPPM@7AE_NAAVomniCallHandle@@@Z
?_dispatch@_impl_NativeDef@CORBA@@UAE_NAAVomniCallHandle@@@Z
?_dispatch@_impl_OperationDef@CORBA@@$4PPPPPPPM@A@AE_NAAVomniCallHandle@@@Z
?_dispatch@_impl_OperationDef@CORBA@@$R47BA@PPPPPPPM@M@AE_NAAVomniCallHandle@@@Z
?_dispatch@_impl_OperationDef@CORBA@@UAE_NAAVomniCallHandle@@@Z
?_dispatch@_impl_PrimitiveDef@CORBA@@$4PPPPPPPM@A@AE_NAAVomniCallHandle@@@Z
?_dispatch@_impl_PrimitiveDef@CORBA@@$R47BA@PPPPPPPM@M@AE_NAAVomniCallHandle@@@Z
?_dispatch@_impl_PrimitiveDef@CORBA@@UAE_NAAVomniCallHandle@@@Z
?_dispatch@_impl_ReplyHandler@Messaging@@$4PPPPPPPM@A@AE_NAAVomniCallHandle@@@Z
?_dispatch@_impl_ReplyHandler@Messaging@@$R477PPPPPPPM@7AE_NAAVomniCallHandle@@@Z
?_dispatch@_impl_ReplyHandler@Messaging@@UAE_NAAVomniCallHandle@@@Z
?_dispatch@_impl_Repository@CORBA@@$4PPPPPPPM@A@AE_NAAVomniCallHandle@@@Z
?_dispatch@_impl_Repository@CORBA@@$R47BA@PPPPPPPM@M@AE_NAAVomniCallHandle@@@Z
?_dispatch@_impl_Repository@CORBA@@UAE_NAAVomniCallHandle@@@Z
?_dispatch@_impl_SequenceDef@CORBA@@$4PPPPPPPM@A@AE_NAAVomniCallHandle@@@Z
?_dispatch@_impl_SequenceDef@CORBA@@$R47BA@PPPPPPPM@M@AE_NAAVomniCallHandle@@@Z
?_dispatch@_impl_SequenceDef@CORBA@@UAE_NAAVomniCallHandle@@@Z
?_dispatch@_impl_StringDef@CORBA@@$4PPPPPPPM@A@AE_NAAVomniCallHandle@@@Z
?_dispatch@_impl_StringDef@CORBA@@$R47BA@PPPPPPPM@M@AE_NAAVomniCallHandle@@@Z
?_dispatch@_impl_StringDef@CORBA@@UAE_NAAVomniCallHandle@@@Z
?_dispatch@_impl_StructDef@CORBA@@$4PPPPPPPM@A@AE_NAAVomniCallHandle@@@Z
?_dispatch@_impl_StructDef@CORBA@@$R47BM@PPPPPPPM@M@AE_NAAVomniCallHandle@@@Z
?_dispatch@_impl_StructDef@CORBA@@UAE_NAAVomniCallHandle@@@Z
?_dispatch@_impl_TypedefDef@CORBA@@$4PPPPPPPM@A@AE_NAAVomniCallHandle@@@Z
?_dispatch@_impl_TypedefDef@CORBA@@$R47BE@PPPPPPPM@7AE_NAAVomniCallHandle@@@Z
?_dispatch@_impl_TypedefDef@CORBA@@UAE_NAAVomniCallHandle@@@Z
?_dispatch@_impl_UnionDef@CORBA@@$4PPPPPPPM@A@AE_NAAVomniCallHandle@@@Z
?_dispatch@_impl_UnionDef@CORBA@@$R47BM@PPPPPPPM@M@AE_NAAVomniCallHandle@@@Z
?_dispatch@_impl_UnionDef@CORBA@@UAE_NAAVomniCallHandle@@@Z
?_dispatch@_impl_ValueBoxDef@CORBA@@$4PPPPPPPM@A@AE_NAAVomniCallHandle@@@Z
?_dispatch@_impl_ValueBoxDef@CORBA@@$R47BI@PPPPPPPM@M@AE_NAAVomniCallHandle@@@Z
?_dispatch@_impl_ValueBoxDef@CORBA@@UAE_NAAVomniCallHandle@@@Z
?_dispatch@_impl_ValueDef@CORBA@@$4PPPPPPPM@A@AE_NAAVomniCallHandle@@@Z
?_dispatch@_impl_ValueDef@CORBA@@$R47BI@PPPPPPPM@M@AE_NAAVomniCallHandle@@@Z
?_dispatch@_impl_ValueDef@CORBA@@UAE_NAAVomniCallHandle@@@Z
?_dispatch@_impl_ValueMemberDef@CORBA@@$4PPPPPPPM@A@AE_NAAVomniCallHandle@@@Z
?_dispatch@_impl_ValueMemberDef@CORBA@@$R47BA@PPPPPPPM@M@AE_NAAVomniCallHandle@@@Z
?_dispatch@_impl_ValueMemberDef@CORBA@@UAE_NAAVomniCallHandle@@@Z
?_dispatch@_impl_WstringDef@CORBA@@$4PPPPPPPM@A@AE_NAAVomniCallHandle@@@Z
?_dispatch@_impl_WstringDef@CORBA@@$R47BA@PPPPPPPM@M@AE_NAAVomniCallHandle@@@Z
?_dispatch@_impl_WstringDef@CORBA@@UAE_NAAVomniCallHandle@@@Z
?_do_get_interface@DynamicImplementation@PortableServer@@$0PPPPPPPM@A@AEPAVomniObjRef@@XZ
?_do_get_interface@DynamicImplementation@PortableServer@@EAEPAVomniObjRef@@XZ
?_do_get_interface@ServantBase@PortableServer@@$R07BA@PPPPPPPM@BA@AEPAVomniObjRef@@XZ
?_do_get_interface@ServantBase@PortableServer@@$R07BE@PPPPPPPM@BA@AEPAVomniObjRef@@XZ
?_do_get_interface@ServantBase@PortableServer@@$R07BI@PPPPPPPM@BA@AEPAVomniObjRef@@XZ
?_do_get_interface@ServantBase@PortableServer@@$R07BM@PPPPPPPM@BA@AEPAVomniObjRef@@XZ
?_do_get_interface@ServantBase@PortableServer@@$R07CA@PPPPPPPM@BA@AEPAVomniObjRef@@XZ
?_do_get_interface@ServantBase@PortableServer@@$R07M@PPPPPPPM@BA@AEPAVomniObjRef@@XZ
?_do_get_interface@ServantBase@PortableServer@@$R0BE@M@PPPPPPPM@BA@AEPAVomniObjRef@@XZ
?_downcast@BadKind@TypeCode@CORBA@@SAPAV123@PAVException@3@@Z
?_downcast@BadKind@TypeCode@CORBA@@SAPBV123@PBVException@3@@Z
?_downcast@Bounds@ContextList@CORBA@@SAPAV123@PAVException@3@@Z
?_downcast@Bounds@ContextList@CORBA@@SAPBV123@PBVException@3@@Z
?_downcast@Bounds@ExceptionList@CORBA@@SAPAV123@PAVException@3@@Z
?_downcast@Bounds@ExceptionList@CORBA@@SAPBV123@PBVException@3@@Z
?_downcast@Bounds@NVList@CORBA@@SAPAV123@PAVException@3@@Z
?_downcast@Bounds@NVList@CORBA@@SAPBV123@PBVException@3@@Z
?_downcast@Bounds@TypeCode@CORBA@@SAPAV123@PAVException@3@@Z
?_downcast@Bounds@TypeCode@CORBA@@SAPBV123@PBVException@3@@Z
?_downcast@DIIPollable@CORBA@@SAPAV12@PAVValueBase@2@@Z
?_downcast@ExceptionHolder@Messaging@@SAPAV12@PAVValueBase@CORBA@@@Z
?_downcast@InconsistentTypeCode@DynAnyFactory@DynamicAny@@SAPAV123@PAVException@CORBA@@@Z
?_downcast@InconsistentTypeCode@DynAnyFactory@DynamicAny@@SAPBV123@PBVException@CORBA@@@Z
?_downcast@InconsistentTypeCode@ORB@CORBA@@SAPAV123@PAVException@3@@Z
?_downcast@InconsistentTypeCode@ORB@CORBA@@SAPBV123@PBVException@3@@Z
?_downcast@InvalidValue@DynAny@DynamicAny@@SAPAV123@PAVException@CORBA@@@Z
?_downcast@InvalidValue@DynAny@DynamicAny@@SAPBV123@PBVException@CORBA@@@Z
?_downcast@NoPossiblePollable@PollableSet@CORBA@@SAPAV123@PAVException@3@@Z
?_downcast@NoPossiblePollable@PollableSet@CORBA@@SAPBV123@PBVException@3@@Z
?_downcast@Pollable@CORBA@@SAPAV12@PAVValueBase@2@@Z
?_downcast@Poller@Messaging@@SAPAV12@PAVValueBase@CORBA@@@Z
?_downcast@ServantBase@PortableServer@@$R077PPPPPPPM@BA@AEPAXXZ
?_downcast@ServantBase@PortableServer@@$R07BA@PPPPPPPM@BA@AEPAXXZ
?_downcast@ServantBase@PortableServer@@$R07BE@PPPPPPPM@BA@AEPAXXZ
?_downcast@ServantBase@PortableServer@@$R07BI@PPPPPPPM@BA@AEPAXXZ
?_downcast@ServantBase@PortableServer@@$R07BM@PPPPPPPM@BA@AEPAXXZ
?_downcast@ServantBase@PortableServer@@$R07CA@PPPPPPPM@BA@AEPAXXZ
?_downcast@ServantBase@PortableServer@@$R07M@PPPPPPPM@BA@AEPAXXZ
?_downcast@ServantBase@PortableServer@@$R0BE@M@PPPPPPPM@BA@AEPAXXZ
?_downcast@StringValue@CORBA@@SAPAV12@PAVValueBase@2@@Z
?_downcast@TypeMismatch@DynAny@DynamicAny@@SAPAV123@PAVException@CORBA@@@Z
?_downcast@TypeMismatch@DynAny@DynamicAny@@SAPBV123@PBVException@CORBA@@@Z
?_downcast@UnknownPollable@PollableSet@CORBA@@SAPAV123@PAVException@3@@Z
?_downcast@UnknownPollable@PollableSet@CORBA@@SAPBV123@PBVException@3@@Z
?_downcast@UnknownUserException@CORBA@@SAPAV12@PAVException@2@@Z
?_downcast@UnknownUserException@CORBA@@SAPBV12@PBVException@2@@Z
?_downcast@UnknownValue@omni@@SAPAV12@PAVValueBase@CORBA@@@Z
?_downcast@ValueBase@CORBA@@SAPAV12@PAV12@@Z
?_downcast@ValueFactoryBase@CORBA@@SAPAV12@PAV12@@Z
?_downcast@WStringValue@CORBA@@SAPAV12@PAVValueBase@2@@Z
?_downcast@WrongTransaction@CORBA@@SAPAV12@PAVException@2@@Z
?_downcast@WrongTransaction@CORBA@@SAPBV12@PBVException@2@@Z
?_duplicate@AbstractBase@CORBA@@SAPAV12@PAV12@@Z
?_duplicate@AbstractInterfaceDef@CORBA@@SAPAV_objref_AbstractInterfaceDef@2@PAV32@@Z
?_duplicate@AliasDef@CORBA@@SAPAV_objref_AliasDef@2@PAV32@@Z
?_duplicate@ArrayDef@CORBA@@SAPAV_objref_ArrayDef@2@PAV32@@Z
?_duplicate@AttributeDef@CORBA@@SAPAV_objref_AttributeDef@2@PAV32@@Z
?_duplicate@ConstantDef@CORBA@@SAPAV_objref_ConstantDef@2@PAV32@@Z
?_duplicate@Contained@CORBA@@SAPAV_objref_Contained@2@PAV32@@Z
?_duplicate@Container@CORBA@@SAPAV_objref_Container@2@PAV32@@Z
?_duplicate@Context@CORBA@@SAPAV12@PAV12@@Z
?_duplicate@ContextList@CORBA@@SAPAV12@PAV12@@Z
?_duplicate@DynAny@DynamicAny@@SAPAV12@PAV12@@Z
?_duplicate@DynAnyFactory@DynamicAny@@SAPAV12@PAV12@@Z
?_duplicate@DynArray@DynamicAny@@SAPAV12@PAV12@@Z
?_duplicate@DynEnum@DynamicAny@@SAPAV12@PAV12@@Z
?_duplicate@DynFixed@DynamicAny@@SAPAV12@PAV12@@Z
?_duplicate@DynSequence@DynamicAny@@SAPAV12@PAV12@@Z
?_duplicate@DynStruct@DynamicAny@@SAPAV12@PAV12@@Z
?_duplicate@DynUnion@DynamicAny@@SAPAV12@PAV12@@Z
?_duplicate@DynValue@DynamicAny@@SAPAV12@PAV12@@Z
?_duplicate@DynValueBox@DynamicAny@@SAPAV12@PAV12@@Z
?_duplicate@EnumDef@CORBA@@SAPAV_objref_EnumDef@2@PAV32@@Z
?_duplicate@Environment@CORBA@@SAPAV12@PAV12@@Z
?_duplicate@ExceptionDef@CORBA@@SAPAV_objref_ExceptionDef@2@PAV32@@Z
?_duplicate@ExceptionList@CORBA@@SAPAV12@PAV12@@Z
?_duplicate@FixedDef@CORBA@@SAPAV_objref_FixedDef@2@PAV32@@Z
?_duplicate@IDLType@CORBA@@SAPAV_objref_IDLType@2@PAV32@@Z
?_duplicate@IRObject@CORBA@@SAPAV_objref_IRObject@2@PAV32@@Z
?_duplicate@InterfaceDef@CORBA@@SAPAV_objref_InterfaceDef@2@PAV32@@Z
?_duplicate@ModuleDef@CORBA@@SAPAV_objref_ModuleDef@2@PAV32@@Z
?_duplicate@NVList@CORBA@@SAPAV12@PAV12@@Z
?_duplicate@NamedValue@CORBA@@SAPAV12@PAV12@@Z
?_duplicate@NativeDef@CORBA@@SAPAV_objref_NativeDef@2@PAV32@@Z
?_duplicate@OperationDef@CORBA@@SAPAV_objref_OperationDef@2@PAV32@@Z
?_duplicate@PollableSet@CORBA@@SAPAV12@PAV12@@Z
?_duplicate@PrimitiveDef@CORBA@@SAPAV_objref_PrimitiveDef@2@PAV32@@Z
?_duplicate@ReplyHandler@Messaging@@SAPAV_objref_ReplyHandler@2@PAV32@@Z
?_duplicate@Repository@CORBA@@SAPAV_objref_Repository@2@PAV32@@Z
?_duplicate@Request@CORBA@@SAPAV12@PAV12@@Z
?_duplicate@SequenceDef@CORBA@@SAPAV_objref_SequenceDef@2@PAV32@@Z
?_duplicate@StringDef@CORBA@@SAPAV_objref_StringDef@2@PAV32@@Z
?_duplicate@StructDef@CORBA@@SAPAV_objref_StructDef@2@PAV32@@Z
?_duplicate@TypeCode@CORBA@@SAPAV12@PAV12@@Z
?_duplicate@TypedefDef@CORBA@@SAPAV_objref_TypedefDef@2@PAV32@@Z
?_duplicate@UnionDef@CORBA@@SAPAV_objref_UnionDef@2@PAV32@@Z
?_duplicate@ValueBoxDef@CORBA@@SAPAV_objref_ValueBoxDef@2@PAV32@@Z
?_duplicate@ValueDef@CORBA@@SAPAV_objref_ValueDef@2@PAV32@@Z
?_duplicate@ValueMemberDef@CORBA@@SAPAV_objref_ValueMemberDef@2@PAV32@@Z
?_duplicate@WstringDef@CORBA@@SAPAV_objref_WstringDef@2@PAV32@@Z
?_empty@cdrAnyMemoryStream@@2PAV1@A
?_fromObjRef@ReplyHandler@Messaging@@SAPAV_objref_ReplyHandler@2@PAVomniObjRef@@@Z
?_get_interface@Object@CORBA@@QAEPAV_objref_InterfaceDef@2@XZ
?_is_a@DynamicImplementation@PortableServer@@$4PPPPPPPM@A@AE_NPBD@Z
?_is_a@DynamicImplementation@PortableServer@@UAE_NPBD@Z
?_lockedIsReady@DIIPollableImpl@omniAMI@@QAE_NXZ
?_marshalObjRef@AbstractInterfaceDef@CORBA@@SAXPAV_objref_AbstractInterfaceDef@2@AAVcdrStream@@@Z
?_marshalObjRef@AliasDef@CORBA@@SAXPAV_objref_AliasDef@2@AAVcdrStream@@@Z
?_marshalObjRef@ArrayDef@CORBA@@SAXPAV_objref_ArrayDef@2@AAVcdrStream@@@Z
?_marshalObjRef@AttributeDef@CORBA@@SAXPAV_objref_AttributeDef@2@AAVcdrStream@@@Z
?_marshalObjRef@ConstantDef@CORBA@@SAXPAV_objref_ConstantDef@2@AAVcdrStream@@@Z
?_marshalObjRef@Contained@CORBA@@SAXPAV_objref_Contained@2@AAVcdrStream@@@Z
?_marshalObjRef@Container@CORBA@@SAXPAV_objref_Container@2@AAVcdrStream@@@Z
?_marshalObjRef@EnumDef@CORBA@@SAXPAV_objref_EnumDef@2@AAVcdrStream@@@Z
?_marshalObjRef@ExceptionDef@CORBA@@SAXPAV_objref_ExceptionDef@2@AAVcdrStream@@@Z
?_marshalObjRef@FixedDef@CORBA@@SAXPAV_objref_FixedDef@2@AAVcdrStream@@@Z
?_marshalObjRef@IDLType@CORBA@@SAXPAV_objref_IDLType@2@AAVcdrStream@@@Z
?_marshalObjRef@IRObject@CORBA@@SAXPAV_objref_IRObject@2@AAVcdrStream@@@Z
?_marshalObjRef@InterfaceDef@CORBA@@SAXPAV_objref_InterfaceDef@2@AAVcdrStream@@@Z
?_marshalObjRef@ModuleDef@CORBA@@SAXPAV_objref_ModuleDef@2@AAVcdrStream@@@Z
?_marshalObjRef@NativeDef@CORBA@@SAXPAV_objref_NativeDef@2@AAVcdrStream@@@Z
?_marshalObjRef@OperationDef@CORBA@@SAXPAV_objref_OperationDef@2@AAVcdrStream@@@Z
?_marshalObjRef@PollableSet@CORBA@@SAXPAV12@AAVcdrStream@@@Z
?_marshalObjRef@PrimitiveDef@CORBA@@SAXPAV_objref_PrimitiveDef@2@AAVcdrStream@@@Z
?_marshalObjRef@ReplyHandler@Messaging@@SAXPAV_objref_ReplyHandler@2@AAVcdrStream@@@Z
?_marshalObjRef@Repository@CORBA@@SAXPAV_objref_Repository@2@AAVcdrStream@@@Z
?_marshalObjRef@SequenceDef@CORBA@@SAXPAV_objref_SequenceDef@2@AAVcdrStream@@@Z
?_marshalObjRef@StringDef@CORBA@@SAXPAV_objref_StringDef@2@AAVcdrStream@@@Z
?_marshalObjRef@StructDef@CORBA@@SAXPAV_objref_StructDef@2@AAVcdrStream@@@Z
?_marshalObjRef@TypedefDef@CORBA@@SAXPAV_objref_TypedefDef@2@AAVcdrStream@@@Z
?_marshalObjRef@UnionDef@CORBA@@SAXPAV_objref_UnionDef@2@AAVcdrStream@@@Z
?_marshalObjRef@ValueBoxDef@CORBA@@SAXPAV_objref_ValueBoxDef@2@AAVcdrStream@@@Z
?_marshalObjRef@ValueDef@CORBA@@SAXPAV_objref_ValueDef@2@AAVcdrStream@@@Z
?_marshalObjRef@ValueMemberDef@CORBA@@SAXPAV_objref_ValueMemberDef@2@AAVcdrStream@@@Z
?_marshalObjRef@WstringDef@CORBA@@SAXPAV_objref_WstringDef@2@AAVcdrStream@@@Z
?_mostDerivedRepoId@_impl_AbstractInterfaceDef@CORBA@@$0PPPPPPPM@A@AEPBDXZ
?_mostDerivedRepoId@_impl_AbstractInterfaceDef@CORBA@@$R07BM@PPPPPPPM@7AEPBDXZ
?_mostDerivedRepoId@_impl_AbstractInterfaceDef@CORBA@@EAEPBDXZ
?_mostDerivedRepoId@_impl_AliasDef@CORBA@@$0PPPPPPPM@A@AEPBDXZ
?_mostDerivedRepoId@_impl_AliasDef@CORBA@@$R07BI@PPPPPPPM@M@AEPBDXZ
?_mostDerivedRepoId@_impl_AliasDef@CORBA@@EAEPBDXZ
?_mostDerivedRepoId@_impl_ArrayDef@CORBA@@$0PPPPPPPM@A@AEPBDXZ
?_mostDerivedRepoId@_impl_ArrayDef@CORBA@@$R07BA@PPPPPPPM@M@AEPBDXZ
?_mostDerivedRepoId@_impl_ArrayDef@CORBA@@EAEPBDXZ
?_mostDerivedRepoId@_impl_AttributeDef@CORBA@@$0PPPPPPPM@A@AEPBDXZ
?_mostDerivedRepoId@_impl_AttributeDef@CORBA@@$R07BA@PPPPPPPM@M@AEPBDXZ
?_mostDerivedRepoId@_impl_AttributeDef@CORBA@@EAEPBDXZ
?_mostDerivedRepoId@_impl_ConstantDef@CORBA@@$0PPPPPPPM@A@AEPBDXZ
?_mostDerivedRepoId@_impl_ConstantDef@CORBA@@$R07BA@PPPPPPPM@M@AEPBDXZ
?_mostDerivedRepoId@_impl_ConstantDef@CORBA@@EAEPBDXZ
?_mostDerivedRepoId@_impl_Contained@CORBA@@$0PPPPPPPM@A@AEPBDXZ
?_mostDerivedRepoId@_impl_Contained@CORBA@@$R07M@PPPPPPPM@M@AEPBDXZ
?_mostDerivedRepoId@_impl_Contained@CORBA@@EAEPBDXZ
?_mostDerivedRepoId@_impl_Container@CORBA@@$0PPPPPPPM@A@AEPBDXZ
?_mostDerivedRepoId@_impl_Container@CORBA@@$R07M@PPPPPPPM@M@AEPBDXZ
?_mostDerivedRepoId@_impl_Container@CORBA@@EAEPBDXZ
?_mostDerivedRepoId@_impl_EnumDef@CORBA@@$0PPPPPPPM@A@AEPBDXZ
?_mostDerivedRepoId@_impl_EnumDef@CORBA@@$R07BI@PPPPPPPM@M@AEPBDXZ
?_mostDerivedRepoId@_impl_EnumDef@CORBA@@EAEPBDXZ
?_mostDerivedRepoId@_impl_ExceptionDef@CORBA@@$0PPPPPPPM@A@AEPBDXZ
?_mostDerivedRepoId@_impl_ExceptionDef@CORBA@@$R07BE@PPPPPPPM@M@AEPBDXZ
?_mostDerivedRepoId@_impl_ExceptionDef@CORBA@@EAEPBDXZ
?_mostDerivedRepoId@_impl_FixedDef@CORBA@@$0PPPPPPPM@A@AEPBDXZ
?_mostDerivedRepoId@_impl_FixedDef@CORBA@@$R07BA@PPPPPPPM@M@AEPBDXZ
?_mostDerivedRepoId@_impl_FixedDef@CORBA@@EAEPBDXZ
?_mostDerivedRepoId@_impl_IDLType@CORBA@@$0PPPPPPPM@A@AEPBDXZ
?_mostDerivedRepoId@_impl_IDLType@CORBA@@$R07M@PPPPPPPM@M@AEPBDXZ
?_mostDerivedRepoId@_impl_IDLType@CORBA@@EAEPBDXZ
?_mostDerivedRepoId@_impl_IRObject@CORBA@@$0PPPPPPPM@A@AEPBDXZ
?_mostDerivedRepoId@_impl_IRObject@CORBA@@$R077PPPPPPPM@M@AEPBDXZ
?_mostDerivedRepoId@_impl_IRObject@CORBA@@EAEPBDXZ
?_mostDerivedRepoId@_impl_InterfaceDef@CORBA@@$0PPPPPPPM@A@AEPBDXZ
?_mostDerivedRepoId@_impl_InterfaceDef@CORBA@@$R07BI@PPPPPPPM@M@AEPBDXZ
?_mostDerivedRepoId@_impl_InterfaceDef@CORBA@@EAEPBDXZ
?_mostDerivedRepoId@_impl_ModuleDef@CORBA@@$0PPPPPPPM@A@AEPBDXZ
?_mostDerivedRepoId@_impl_ModuleDef@CORBA@@$R07BE@PPPPPPPM@7AEPBDXZ
?_mostDerivedRepoId@_impl_ModuleDef@CORBA@@EAEPBDXZ
?_mostDerivedRepoId@_impl_NativeDef@CORBA@@$0PPPPPPPM@A@AEPBDXZ
?_mostDerivedRepoId@_impl_NativeDef@CORBA@@$R07BI@PPPPPPPM@7AEPBDXZ
?_mostDerivedRepoId@_impl_NativeDef@CORBA@@EAEPBDXZ
?_mostDerivedRepoId@_impl_OperationDef@CORBA@@$0PPPPPPPM@A@AEPBDXZ
?_mostDerivedRepoId@_impl_OperationDef@CORBA@@$R07BA@PPPPPPPM@M@AEPBDXZ
?_mostDerivedRepoId@_impl_OperationDef@CORBA@@EAEPBDXZ
?_mostDerivedRepoId@_impl_PrimitiveDef@CORBA@@$0PPPPPPPM@A@AEPBDXZ
?_mostDerivedRepoId@_impl_PrimitiveDef@CORBA@@$R07BA@PPPPPPPM@M@AEPBDXZ
?_mostDerivedRepoId@_impl_PrimitiveDef@CORBA@@EAEPBDXZ
?_mostDerivedRepoId@_impl_ReplyHandler@Messaging@@$0PPPPPPPM@A@AEPBDXZ
?_mostDerivedRepoId@_impl_ReplyHandler@Messaging@@$R077PPPPPPPM@7AEPBDXZ
?_mostDerivedRepoId@_impl_ReplyHandler@Messaging@@EAEPBDXZ
?_mostDerivedRepoId@_impl_Repository@CORBA@@$0PPPPPPPM@A@AEPBDXZ
?_mostDerivedRepoId@_impl_Repository@CORBA@@$R07BA@PPPPPPPM@M@AEPBDXZ
?_mostDerivedRepoId@_impl_Repository@CORBA@@EAEPBDXZ
?_mostDerivedRepoId@_impl_SequenceDef@CORBA@@$0PPPPPPPM@A@AEPBDXZ
?_mostDerivedRepoId@_impl_SequenceDef@CORBA@@$R07BA@PPPPPPPM@M@AEPBDXZ
?_mostDerivedRepoId@_impl_SequenceDef@CORBA@@EAEPBDXZ
?_mostDerivedRepoId@_impl_StringDef@CORBA@@$0PPPPPPPM@A@AEPBDXZ
?_mostDerivedRepoId@_impl_StringDef@CORBA@@$R07BA@PPPPPPPM@M@AEPBDXZ
?_mostDerivedRepoId@_impl_StringDef@CORBA@@EAEPBDXZ
?_mostDerivedRepoId@_impl_StructDef@CORBA@@$0PPPPPPPM@A@AEPBDXZ
?_mostDerivedRepoId@_impl_StructDef@CORBA@@$R07BM@PPPPPPPM@M@AEPBDXZ
?_mostDerivedRepoId@_impl_StructDef@CORBA@@EAEPBDXZ
?_mostDerivedRepoId@_impl_TypedefDef@CORBA@@$0PPPPPPPM@A@AEPBDXZ
?_mostDerivedRepoId@_impl_TypedefDef@CORBA@@$R07BE@PPPPPPPM@7AEPBDXZ
?_mostDerivedRepoId@_impl_TypedefDef@CORBA@@EAEPBDXZ
?_mostDerivedRepoId@_impl_UnionDef@CORBA@@$0PPPPPPPM@A@AEPBDXZ
?_mostDerivedRepoId@_impl_UnionDef@CORBA@@$R07BM@PPPPPPPM@M@AEPBDXZ
?_mostDerivedRepoId@_impl_UnionDef@CORBA@@EAEPBDXZ
?_mostDerivedRepoId@_impl_ValueBoxDef@CORBA@@$0PPPPPPPM@A@AEPBDXZ
?_mostDerivedRepoId@_impl_ValueBoxDef@CORBA@@$R07BI@PPPPPPPM@M@AEPBDXZ
?_mostDerivedRepoId@_impl_ValueBoxDef@CORBA@@EAEPBDXZ
?_mostDerivedRepoId@_impl_ValueDef@CORBA@@$0PPPPPPPM@A@AEPBDXZ
?_mostDerivedRepoId@_impl_ValueDef@CORBA@@$R07BI@PPPPPPPM@M@AEPBDXZ
?_mostDerivedRepoId@_impl_ValueDef@CORBA@@EAEPBDXZ
?_mostDerivedRepoId@_impl_ValueMemberDef@CORBA@@$0PPPPPPPM@A@AEPBDXZ
?_mostDerivedRepoId@_impl_ValueMemberDef@CORBA@@$R07BA@PPPPPPPM@M@AEPBDXZ
?_mostDerivedRepoId@_impl_ValueMemberDef@CORBA@@EAEPBDXZ
?_mostDerivedRepoId@_impl_WstringDef@CORBA@@$0PPPPPPPM@A@AEPBDXZ
?_mostDerivedRepoId@_impl_WstringDef@CORBA@@$R07BA@PPPPPPPM@M@AEPBDXZ
?_mostDerivedRepoId@_impl_WstringDef@CORBA@@EAEPBDXZ
?_mostDerivedRepoId@omniObjRef@@QBEPBDXZ
?_narrow@AbstractBase@CORBA@@SAPAV12@PAV12@@Z
?_narrow@AbstractInterfaceDef@CORBA@@SAPAV_objref_AbstractInterfaceDef@2@PAVObject@2@@Z
?_narrow@AliasDef@CORBA@@SAPAV_objref_AliasDef@2@PAVObject@2@@Z
?_narrow@ArrayDef@CORBA@@SAPAV_objref_ArrayDef@2@PAVObject@2@@Z
?_narrow@AttributeDef@CORBA@@SAPAV_objref_AttributeDef@2@PAVObject@2@@Z
?_narrow@ConstantDef@CORBA@@SAPAV_objref_ConstantDef@2@PAVObject@2@@Z
?_narrow@Contained@CORBA@@SAPAV_objref_Contained@2@PAVObject@2@@Z
?_narrow@Container@CORBA@@SAPAV_objref_Container@2@PAVObject@2@@Z
?_narrow@DynAny@DynamicAny@@SAPAV12@PAVObject@CORBA@@@Z
?_narrow@DynAnyFactory@DynamicAny@@SAPAV12@PAVObject@CORBA@@@Z
?_narrow@DynArray@DynamicAny@@SAPAV12@PAVObject@CORBA@@@Z
?_narrow@DynEnum@DynamicAny@@SAPAV12@PAVObject@CORBA@@@Z
?_narrow@DynFixed@DynamicAny@@SAPAV12@PAVObject@CORBA@@@Z
?_narrow@DynSequence@DynamicAny@@SAPAV12@PAVObject@CORBA@@@Z
?_narrow@DynStruct@DynamicAny@@SAPAV12@PAVObject@CORBA@@@Z
?_narrow@DynUnion@DynamicAny@@SAPAV12@PAVObject@CORBA@@@Z
?_narrow@DynValue@DynamicAny@@SAPAV12@PAVObject@CORBA@@@Z
?_narrow@DynValueBox@DynamicAny@@SAPAV12@PAVObject@CORBA@@@Z
?_narrow@EnumDef@CORBA@@SAPAV_objref_EnumDef@2@PAVObject@2@@Z
?_narrow@ExceptionDef@CORBA@@SAPAV_objref_ExceptionDef@2@PAVObject@2@@Z
?_narrow@FixedDef@CORBA@@SAPAV_objref_FixedDef@2@PAVObject@2@@Z
?_narrow@IDLType@CORBA@@SAPAV_objref_IDLType@2@PAVObject@2@@Z
?_narrow@IRObject@CORBA@@SAPAV_objref_IRObject@2@PAVObject@2@@Z
?_narrow@InterfaceDef@CORBA@@SAPAV_objref_InterfaceDef@2@PAVObject@2@@Z
?_narrow@ModuleDef@CORBA@@SAPAV_objref_ModuleDef@2@PAVObject@2@@Z
?_narrow@NativeDef@CORBA@@SAPAV_objref_NativeDef@2@PAVObject@2@@Z
?_narrow@OperationDef@CORBA@@SAPAV_objref_OperationDef@2@PAVObject@2@@Z
?_narrow@PollableSet@CORBA@@SAPAV12@PAVObject@2@@Z
?_narrow@PrimitiveDef@CORBA@@SAPAV_objref_PrimitiveDef@2@PAVObject@2@@Z
?_narrow@ReplyHandler@Messaging@@SAPAV_objref_ReplyHandler@2@PAVObject@CORBA@@@Z
?_narrow@Repository@CORBA@@SAPAV_objref_Repository@2@PAVObject@2@@Z
?_narrow@SequenceDef@CORBA@@SAPAV_objref_SequenceDef@2@PAVObject@2@@Z
?_narrow@StringDef@CORBA@@SAPAV_objref_StringDef@2@PAVObject@2@@Z
?_narrow@StructDef@CORBA@@SAPAV_objref_StructDef@2@PAVObject@2@@Z
?_narrow@TypedefDef@CORBA@@SAPAV_objref_TypedefDef@2@PAVObject@2@@Z
?_narrow@UnionDef@CORBA@@SAPAV_objref_UnionDef@2@PAVObject@2@@Z
?_narrow@ValueBoxDef@CORBA@@SAPAV_objref_ValueBoxDef@2@PAVObject@2@@Z
?_narrow@ValueDef@CORBA@@SAPAV_objref_ValueDef@2@PAVObject@2@@Z
?_narrow@ValueMemberDef@CORBA@@SAPAV_objref_ValueMemberDef@2@PAVObject@2@@Z
?_narrow@WstringDef@CORBA@@SAPAV_objref_WstringDef@2@PAVObject@2@@Z
?_nil@AbstractBase@CORBA@@SAPAV12@XZ
?_nil@AbstractInterfaceDef@CORBA@@SAPAV_objref_AbstractInterfaceDef@2@XZ
?_nil@AbstractInterfaceDef_Helper@CORBA@@SAPAV_objref_AbstractInterfaceDef@2@XZ
?_nil@AliasDef@CORBA@@SAPAV_objref_AliasDef@2@XZ
?_nil@AliasDef_Helper@CORBA@@SAPAV_objref_AliasDef@2@XZ
?_nil@ArrayDef@CORBA@@SAPAV_objref_ArrayDef@2@XZ
?_nil@ArrayDef_Helper@CORBA@@SAPAV_objref_ArrayDef@2@XZ
?_nil@AttributeDef@CORBA@@SAPAV_objref_AttributeDef@2@XZ
?_nil@AttributeDef_Helper@CORBA@@SAPAV_objref_AttributeDef@2@XZ
?_nil@ConstantDef@CORBA@@SAPAV_objref_ConstantDef@2@XZ
?_nil@ConstantDef_Helper@CORBA@@SAPAV_objref_ConstantDef@2@XZ
?_nil@Contained@CORBA@@SAPAV_objref_Contained@2@XZ
?_nil@Contained_Helper@CORBA@@SAPAV_objref_Contained@2@XZ
?_nil@Container@CORBA@@SAPAV_objref_Container@2@XZ
?_nil@Container_Helper@CORBA@@SAPAV_objref_Container@2@XZ
?_nil@Context@CORBA@@SAPAV12@XZ
?_nil@ContextList@CORBA@@SAPAV12@XZ
?_nil@DynAny@DynamicAny@@SAPAV12@XZ
?_nil@DynAnyFactory@DynamicAny@@SAPAV12@XZ
?_nil@DynAny_Helper@DynamicAny@@SAPAVDynAny@2@XZ
?_nil@DynArray@DynamicAny@@SAPAV12@XZ
?_nil@DynEnum@DynamicAny@@SAPAV12@XZ
?_nil@DynFixed@DynamicAny@@SAPAV12@XZ
?_nil@DynSequence@DynamicAny@@SAPAV12@XZ
?_nil@DynStruct@DynamicAny@@SAPAV12@XZ
?_nil@DynUnion@DynamicAny@@SAPAV12@XZ
?_nil@DynValue@DynamicAny@@SAPAV12@XZ
?_nil@DynValueBox@DynamicAny@@SAPAV12@XZ
?_nil@DynValueCommon@DynamicAny@@SAPAV12@XZ
?_nil@EnumDef@CORBA@@SAPAV_objref_EnumDef@2@XZ
?_nil@EnumDef_Helper@CORBA@@SAPAV_objref_EnumDef@2@XZ
?_nil@Environment@CORBA@@SAPAV12@XZ
?_nil@ExceptionDef@CORBA@@SAPAV_objref_ExceptionDef@2@XZ
?_nil@ExceptionDef_Helper@CORBA@@SAPAV_objref_ExceptionDef@2@XZ
?_nil@ExceptionList@CORBA@@SAPAV12@XZ
?_nil@FixedDef@CORBA@@SAPAV_objref_FixedDef@2@XZ
?_nil@FixedDef_Helper@CORBA@@SAPAV_objref_FixedDef@2@XZ
?_nil@IDLType@CORBA@@SAPAV_objref_IDLType@2@XZ
?_nil@IDLType_Helper@CORBA@@SAPAV_objref_IDLType@2@XZ
?_nil@IRObject@CORBA@@SAPAV_objref_IRObject@2@XZ
?_nil@IRObject_Helper@CORBA@@SAPAV_objref_IRObject@2@XZ
?_nil@InterfaceDef@CORBA@@SAPAV_objref_InterfaceDef@2@XZ
?_nil@InterfaceDef_Helper@CORBA@@SAPAV_objref_InterfaceDef@2@XZ
?_nil@ModuleDef@CORBA@@SAPAV_objref_ModuleDef@2@XZ
?_nil@ModuleDef_Helper@CORBA@@SAPAV_objref_ModuleDef@2@XZ
?_nil@NVList@CORBA@@SAPAV12@XZ
?_nil@NamedValue@CORBA@@SAPAV12@XZ
?_nil@NativeDef@CORBA@@SAPAV_objref_NativeDef@2@XZ
?_nil@NativeDef_Helper@CORBA@@SAPAV_objref_NativeDef@2@XZ
?_nil@OperationDef@CORBA@@SAPAV_objref_OperationDef@2@XZ
?_nil@OperationDef_Helper@CORBA@@SAPAV_objref_OperationDef@2@XZ
?_nil@PollableSet@CORBA@@SAPAV12@XZ
?_nil@PollableSet_Helper@CORBA@@SAPAVPollableSet@2@XZ
?_nil@PrimitiveDef@CORBA@@SAPAV_objref_PrimitiveDef@2@XZ
?_nil@PrimitiveDef_Helper@CORBA@@SAPAV_objref_PrimitiveDef@2@XZ
?_nil@ReplyHandler@Messaging@@SAPAV_objref_ReplyHandler@2@XZ
?_nil@ReplyHandler_Helper@Messaging@@SAPAV_objref_ReplyHandler@2@XZ
?_nil@Repository@CORBA@@SAPAV_objref_Repository@2@XZ
?_nil@Repository_Helper@CORBA@@SAPAV_objref_Repository@2@XZ
?_nil@Request@CORBA@@SAPAV12@XZ
?_nil@SequenceDef@CORBA@@SAPAV_objref_SequenceDef@2@XZ
?_nil@SequenceDef_Helper@CORBA@@SAPAV_objref_SequenceDef@2@XZ
?_nil@StringDef@CORBA@@SAPAV_objref_StringDef@2@XZ
?_nil@StringDef_Helper@CORBA@@SAPAV_objref_StringDef@2@XZ
?_nil@StructDef@CORBA@@SAPAV_objref_StructDef@2@XZ
?_nil@StructDef_Helper@CORBA@@SAPAV_objref_StructDef@2@XZ
?_nil@TypeCode@CORBA@@SAPAV12@XZ
?_nil@TypedefDef@CORBA@@SAPAV_objref_TypedefDef@2@XZ
?_nil@TypedefDef_Helper@CORBA@@SAPAV_objref_TypedefDef@2@XZ
?_nil@UnionDef@CORBA@@SAPAV_objref_UnionDef@2@XZ
?_nil@UnionDef_Helper@CORBA@@SAPAV_objref_UnionDef@2@XZ
?_nil@ValueBoxDef@CORBA@@SAPAV_objref_ValueBoxDef@2@XZ
?_nil@ValueBoxDef_Helper@CORBA@@SAPAV_objref_ValueBoxDef@2@XZ
?_nil@ValueDef@CORBA@@SAPAV_objref_ValueDef@2@XZ
?_nil@ValueDef_Helper@CORBA@@SAPAV_objref_ValueDef@2@XZ
?_nil@ValueMemberDef@CORBA@@SAPAV_objref_ValueMemberDef@2@XZ
?_nil@ValueMemberDef_Helper@CORBA@@SAPAV_objref_ValueMemberDef@2@XZ
?_nil@WstringDef@CORBA@@SAPAV_objref_WstringDef@2@XZ
?_nil@WstringDef_Helper@CORBA@@SAPAV_objref_WstringDef@2@XZ
?_non_existent@LocalObject@CORBA@@$4PPPPPPPM@A@AE_NXZ
?_non_existent@LocalObject@CORBA@@$R477PPPPPPPM@M@AE_NXZ
?_non_existent@LocalObject@CORBA@@$R4EE@7PPPPPPPM@M@AE_NXZ
?_omni_dynamicLib_should_be_linked_but_is_not_@@3HA
?_ptrToFactory@ValueFactoryBase@CORBA@@UAEPAXPBD@Z
?_ptrToInterface@_impl_AbstractInterfaceDef@CORBA@@$0PPPPPPPM@A@AEPAXPBD@Z
?_ptrToInterface@_impl_AbstractInterfaceDef@CORBA@@$R07BM@PPPPPPPM@7AEPAXPBD@Z
?_ptrToInterface@_impl_AbstractInterfaceDef@CORBA@@EAEPAXPBD@Z
?_ptrToInterface@_impl_AliasDef@CORBA@@$0PPPPPPPM@A@AEPAXPBD@Z
?_ptrToInterface@_impl_AliasDef@CORBA@@$R07BI@PPPPPPPM@M@AEPAXPBD@Z
?_ptrToInterface@_impl_AliasDef@CORBA@@EAEPAXPBD@Z
?_ptrToInterface@_impl_ArrayDef@CORBA@@$0PPPPPPPM@A@AEPAXPBD@Z
?_ptrToInterface@_impl_ArrayDef@CORBA@@$R07BA@PPPPPPPM@M@AEPAXPBD@Z
?_ptrToInterface@_impl_ArrayDef@CORBA@@EAEPAXPBD@Z
?_ptrToInterface@_impl_AttributeDef@CORBA@@$0PPPPPPPM@A@AEPAXPBD@Z
?_ptrToInterface@_impl_AttributeDef@CORBA@@$R07BA@PPPPPPPM@M@AEPAXPBD@Z
?_ptrToInterface@_impl_AttributeDef@CORBA@@EAEPAXPBD@Z
?_ptrToInterface@_impl_ConstantDef@CORBA@@$0PPPPPPPM@A@AEPAXPBD@Z
?_ptrToInterface@_impl_ConstantDef@CORBA@@$R07BA@PPPPPPPM@M@AEPAXPBD@Z
?_ptrToInterface@_impl_ConstantDef@CORBA@@EAEPAXPBD@Z
?_ptrToInterface@_impl_Contained@CORBA@@$0PPPPPPPM@A@AEPAXPBD@Z
?_ptrToInterface@_impl_Contained@CORBA@@$R07M@PPPPPPPM@M@AEPAXPBD@Z
?_ptrToInterface@_impl_Contained@CORBA@@EAEPAXPBD@Z
?_ptrToInterface@_impl_Container@CORBA@@$0PPPPPPPM@A@AEPAXPBD@Z
?_ptrToInterface@_impl_Container@CORBA@@$R07M@PPPPPPPM@M@AEPAXPBD@Z
?_ptrToInterface@_impl_Container@CORBA@@EAEPAXPBD@Z
?_ptrToInterface@_impl_EnumDef@CORBA@@$0PPPPPPPM@A@AEPAXPBD@Z
?_ptrToInterface@_impl_EnumDef@CORBA@@$R07BI@PPPPPPPM@M@AEPAXPBD@Z
?_ptrToInterface@_impl_EnumDef@CORBA@@EAEPAXPBD@Z
?_ptrToInterface@_impl_ExceptionDef@CORBA@@$0PPPPPPPM@A@AEPAXPBD@Z
?_ptrToInterface@_impl_ExceptionDef@CORBA@@$R07BE@PPPPPPPM@M@AEPAXPBD@Z
?_ptrToInterface@_impl_ExceptionDef@CORBA@@EAEPAXPBD@Z
?_ptrToInterface@_impl_FixedDef@CORBA@@$0PPPPPPPM@A@AEPAXPBD@Z
?_ptrToInterface@_impl_FixedDef@CORBA@@$R07BA@PPPPPPPM@M@AEPAXPBD@Z
?_ptrToInterface@_impl_FixedDef@CORBA@@EAEPAXPBD@Z
?_ptrToInterface@_impl_IDLType@CORBA@@$0PPPPPPPM@A@AEPAXPBD@Z
?_ptrToInterface@_impl_IDLType@CORBA@@$R07M@PPPPPPPM@M@AEPAXPBD@Z
?_ptrToInterface@_impl_IDLType@CORBA@@EAEPAXPBD@Z
?_ptrToInterface@_impl_IRObject@CORBA@@$0PPPPPPPM@A@AEPAXPBD@Z
?_ptrToInterface@_impl_IRObject@CORBA@@$R077PPPPPPPM@M@AEPAXPBD@Z
?_ptrToInterface@_impl_IRObject@CORBA@@EAEPAXPBD@Z
?_ptrToInterface@_impl_InterfaceDef@CORBA@@$0PPPPPPPM@A@AEPAXPBD@Z
?_ptrToInterface@_impl_InterfaceDef@CORBA@@$R07BI@PPPPPPPM@M@AEPAXPBD@Z
?_ptrToInterface@_impl_InterfaceDef@CORBA@@EAEPAXPBD@Z
?_ptrToInterface@_impl_ModuleDef@CORBA@@$0PPPPPPPM@A@AEPAXPBD@Z
?_ptrToInterface@_impl_ModuleDef@CORBA@@$R07BE@PPPPPPPM@7AEPAXPBD@Z
?_ptrToInterface@_impl_ModuleDef@CORBA@@EAEPAXPBD@Z
?_ptrToInterface@_impl_NativeDef@CORBA@@$0PPPPPPPM@A@AEPAXPBD@Z
?_ptrToInterface@_impl_NativeDef@CORBA@@$R07BI@PPPPPPPM@7AEPAXPBD@Z
?_ptrToInterface@_impl_NativeDef@CORBA@@EAEPAXPBD@Z
?_ptrToInterface@_impl_OperationDef@CORBA@@$0PPPPPPPM@A@AEPAXPBD@Z
?_ptrToInterface@_impl_OperationDef@CORBA@@$R07BA@PPPPPPPM@M@AEPAXPBD@Z
?_ptrToInterface@_impl_OperationDef@CORBA@@EAEPAXPBD@Z
?_ptrToInterface@_impl_PrimitiveDef@CORBA@@$0PPPPPPPM@A@AEPAXPBD@Z
?_ptrToInterface@_impl_PrimitiveDef@CORBA@@$R07BA@PPPPPPPM@M@AEPAXPBD@Z
?_ptrToInterface@_impl_PrimitiveDef@CORBA@@EAEPAXPBD@Z
?_ptrToInterface@_impl_ReplyHandler@Messaging@@$0PPPPPPPM@A@AEPAXPBD@Z
?_ptrToInterface@_impl_ReplyHandler@Messaging@@$R077PPPPPPPM@7AEPAXPBD@Z
?_ptrToInterface@_impl_ReplyHandler@Messaging@@EAEPAXPBD@Z
?_ptrToInterface@_impl_Repository@CORBA@@$0PPPPPPPM@A@AEPAXPBD@Z
?_ptrToInterface@_impl_Repository@CORBA@@$R07BA@PPPPPPPM@M@AEPAXPBD@Z
?_ptrToInterface@_impl_Repository@CORBA@@EAEPAXPBD@Z
?_ptrToInterface@_impl_SequenceDef@CORBA@@$0PPPPPPPM@A@AEPAXPBD@Z
?_ptrToInterface@_impl_SequenceDef@CORBA@@$R07BA@PPPPPPPM@M@AEPAXPBD@Z
?_ptrToInterface@_impl_SequenceDef@CORBA@@EAEPAXPBD@Z
?_ptrToInterface@_impl_StringDef@CORBA@@$0PPPPPPPM@A@AEPAXPBD@Z
?_ptrToInterface@_impl_StringDef@CORBA@@$R07BA@PPPPPPPM@M@AEPAXPBD@Z
?_ptrToInterface@_impl_StringDef@CORBA@@EAEPAXPBD@Z
?_ptrToInterface@_impl_StructDef@CORBA@@$0PPPPPPPM@A@AEPAXPBD@Z
?_ptrToInterface@_impl_StructDef@CORBA@@$R07BM@PPPPPPPM@M@AEPAXPBD@Z
?_ptrToInterface@_impl_StructDef@CORBA@@EAEPAXPBD@Z
?_ptrToInterface@_impl_TypedefDef@CORBA@@$0PPPPPPPM@A@AEPAXPBD@Z
?_ptrToInterface@_impl_TypedefDef@CORBA@@$R07BE@PPPPPPPM@7AEPAXPBD@Z
?_ptrToInterface@_impl_TypedefDef@CORBA@@EAEPAXPBD@Z
?_ptrToInterface@_impl_UnionDef@CORBA@@$0PPPPPPPM@A@AEPAXPBD@Z
?_ptrToInterface@_impl_UnionDef@CORBA@@$R07BM@PPPPPPPM@M@AEPAXPBD@Z
?_ptrToInterface@_impl_UnionDef@CORBA@@EAEPAXPBD@Z
?_ptrToInterface@_impl_ValueBoxDef@CORBA@@$0PPPPPPPM@A@AEPAXPBD@Z
?_ptrToInterface@_impl_ValueBoxDef@CORBA@@$R07BI@PPPPPPPM@M@AEPAXPBD@Z
?_ptrToInterface@_impl_ValueBoxDef@CORBA@@EAEPAXPBD@Z
?_ptrToInterface@_impl_ValueDef@CORBA@@$0PPPPPPPM@A@AEPAXPBD@Z
?_ptrToInterface@_impl_ValueDef@CORBA@@$R07BI@PPPPPPPM@M@AEPAXPBD@Z
?_ptrToInterface@_impl_ValueDef@CORBA@@EAEPAXPBD@Z
?_ptrToInterface@_impl_ValueMemberDef@CORBA@@$0PPPPPPPM@A@AEPAXPBD@Z
?_ptrToInterface@_impl_ValueMemberDef@CORBA@@$R07BA@PPPPPPPM@M@AEPAXPBD@Z
?_ptrToInterface@_impl_ValueMemberDef@CORBA@@EAEPAXPBD@Z
?_ptrToInterface@_impl_WstringDef@CORBA@@$0PPPPPPPM@A@AEPAXPBD@Z
?_ptrToInterface@_impl_WstringDef@CORBA@@$R07BA@PPPPPPPM@M@AEPAXPBD@Z
?_ptrToInterface@_impl_WstringDef@CORBA@@EAEPAXPBD@Z
?_ptrToObjRef@BidirectionalPolicy@BiDirPolicy@@$4PPPPPPPM@A@AEPAXPBD@Z
?_ptrToObjRef@DynAnyFactoryImpl@omni@@UAEPAXPBD@Z
?_ptrToObjRef@DynAnyImpl@omni@@$4PPPPPPPM@3AEPAXPBD@Z
?_ptrToObjRef@DynAnyImpl@omni@@$4PPPPPPPM@A@AEPAXPBD@Z
?_ptrToObjRef@DynAnyImpl@omni@@UAEPAXPBD@Z
?_ptrToObjRef@DynArrayImpl@omni@@$4PPPPPPPM@A@AEPAXPBD@Z
?_ptrToObjRef@DynArrayImpl@omni@@UAEPAXPBD@Z
?_ptrToObjRef@DynEnumImpl@omni@@$4PPPPPPPM@A@AEPAXPBD@Z
?_ptrToObjRef@DynEnumImpl@omni@@UAEPAXPBD@Z
?_ptrToObjRef@DynFixedImpl@omni@@$4PPPPPPPM@A@AEPAXPBD@Z
?_ptrToObjRef@DynFixedImpl@omni@@UAEPAXPBD@Z
?_ptrToObjRef@DynSequenceImpl@omni@@$4PPPPPPPM@A@AEPAXPBD@Z
?_ptrToObjRef@DynSequenceImpl@omni@@UAEPAXPBD@Z
?_ptrToObjRef@DynStructImpl@omni@@$4PPPPPPPM@A@AEPAXPBD@Z
?_ptrToObjRef@DynStructImpl@omni@@UAEPAXPBD@Z
?_ptrToObjRef@DynUnionEnumDisc@omni@@$4PPPPPPPM@A@AEPAXPBD@Z
?_ptrToObjRef@DynUnionEnumDisc@omni@@UAEPAXPBD@Z
?_ptrToObjRef@DynUnionImpl@omni@@$4PPPPPPPM@A@AEPAXPBD@Z
?_ptrToObjRef@DynUnionImpl@omni@@UAEPAXPBD@Z
?_ptrToObjRef@DynValueBoxImpl@omni@@$4PPPPPPPM@A@AEPAXPBD@Z
?_ptrToObjRef@DynValueBoxImpl@omni@@UAEPAXPBD@Z
?_ptrToObjRef@DynValueImpl@omni@@$4PPPPPPPM@A@AEPAXPBD@Z
?_ptrToObjRef@DynValueImpl@omni@@UAEPAXPBD@Z
?_ptrToObjRef@IdAssignmentPolicy@PortableServer@@$4PPPPPPPM@A@AEPAXPBD@Z
?_ptrToObjRef@IdUniquenessPolicy@PortableServer@@$4PPPPPPPM@A@AEPAXPBD@Z
?_ptrToObjRef@ImplicitActivationPolicy@PortableServer@@$4PPPPPPPM@A@AEPAXPBD@Z
?_ptrToObjRef@LifespanPolicy@PortableServer@@$4PPPPPPPM@A@AEPAXPBD@Z
?_ptrToObjRef@LocalObject@CORBA@@$4PPPPPPPM@A@AEPAXPBD@Z
?_ptrToObjRef@LocalShortcutPolicy@omniPolicy@@$4PPPPPPPM@A@AEPAXPBD@Z
?_ptrToObjRef@PollableSet@CORBA@@$0PPPPPPPM@A@AEPAXPBD@Z
?_ptrToObjRef@PollableSet@CORBA@@$R07M@PPPPPPPM@M@AEPAXPBD@Z
?_ptrToObjRef@PollableSet@CORBA@@$R0EE@M@PPPPPPPM@M@AEPAXPBD@Z
?_ptrToObjRef@PollableSet@CORBA@@EAEPAXPBD@Z
?_ptrToObjRef@RequestProcessingPolicy@PortableServer@@$4PPPPPPPM@A@AEPAXPBD@Z
?_ptrToObjRef@ServantRetentionPolicy@PortableServer@@$4PPPPPPPM@A@AEPAXPBD@Z
?_ptrToObjRef@ThreadPolicy@PortableServer@@$4PPPPPPPM@A@AEPAXPBD@Z
?_ptrToObjRef@_objref_AbstractInterfaceDef@CORBA@@$0PPPPPPPM@A@AEPAXPBD@Z
?_ptrToObjRef@_objref_AbstractInterfaceDef@CORBA@@$0PPPPPPPM@BA@AEPAXPBD@Z
?_ptrToObjRef@_objref_AbstractInterfaceDef@CORBA@@EAEPAXPBD@Z
?_ptrToObjRef@_objref_AliasDef@CORBA@@$0PPPPPPPM@A@AEPAXPBD@Z
?_ptrToObjRef@_objref_AliasDef@CORBA@@$0PPPPPPPM@BA@AEPAXPBD@Z
?_ptrToObjRef@_objref_AliasDef@CORBA@@EAEPAXPBD@Z
?_ptrToObjRef@_objref_ArrayDef@CORBA@@$0PPPPPPPM@A@AEPAXPBD@Z
?_ptrToObjRef@_objref_ArrayDef@CORBA@@$0PPPPPPPM@BA@AEPAXPBD@Z
?_ptrToObjRef@_objref_ArrayDef@CORBA@@EAEPAXPBD@Z
?_ptrToObjRef@_objref_AttributeDef@CORBA@@$0PPPPPPPM@A@AEPAXPBD@Z
?_ptrToObjRef@_objref_AttributeDef@CORBA@@$0PPPPPPPM@BA@AEPAXPBD@Z
?_ptrToObjRef@_objref_AttributeDef@CORBA@@EAEPAXPBD@Z
?_ptrToObjRef@_objref_ConstantDef@CORBA@@$0PPPPPPPM@A@AEPAXPBD@Z
?_ptrToObjRef@_objref_ConstantDef@CORBA@@$0PPPPPPPM@BA@AEPAXPBD@Z
?_ptrToObjRef@_objref_ConstantDef@CORBA@@EAEPAXPBD@Z
?_ptrToObjRef@_objref_Contained@CORBA@@$0PPPPPPPM@A@AEPAXPBD@Z
?_ptrToObjRef@_objref_Contained@CORBA@@$0PPPPPPPM@BA@AEPAXPBD@Z
?_ptrToObjRef@_objref_Contained@CORBA@@EAEPAXPBD@Z
?_ptrToObjRef@_objref_Container@CORBA@@$0PPPPPPPM@A@AEPAXPBD@Z
?_ptrToObjRef@_objref_Container@CORBA@@$0PPPPPPPM@BA@AEPAXPBD@Z
?_ptrToObjRef@_objref_Container@CORBA@@EAEPAXPBD@Z
?_ptrToObjRef@_objref_EnumDef@CORBA@@$0PPPPPPPM@A@AEPAXPBD@Z
?_ptrToObjRef@_objref_EnumDef@CORBA@@$0PPPPPPPM@BA@AEPAXPBD@Z
?_ptrToObjRef@_objref_EnumDef@CORBA@@EAEPAXPBD@Z
?_ptrToObjRef@_objref_ExceptionDef@CORBA@@$0PPPPPPPM@A@AEPAXPBD@Z
?_ptrToObjRef@_objref_ExceptionDef@CORBA@@$0PPPPPPPM@BA@AEPAXPBD@Z
?_ptrToObjRef@_objref_ExceptionDef@CORBA@@EAEPAXPBD@Z
?_ptrToObjRef@_objref_FixedDef@CORBA@@$0PPPPPPPM@A@AEPAXPBD@Z
?_ptrToObjRef@_objref_FixedDef@CORBA@@$0PPPPPPPM@BA@AEPAXPBD@Z
?_ptrToObjRef@_objref_FixedDef@CORBA@@EAEPAXPBD@Z
?_ptrToObjRef@_objref_IDLType@CORBA@@$0PPPPPPPM@A@AEPAXPBD@Z
?_ptrToObjRef@_objref_IDLType@CORBA@@$0PPPPPPPM@BA@AEPAXPBD@Z
?_ptrToObjRef@_objref_IDLType@CORBA@@EAEPAXPBD@Z
?_ptrToObjRef@_objref_IRObject@CORBA@@$0PPPPPPPM@A@AEPAXPBD@Z
?_ptrToObjRef@_objref_IRObject@CORBA@@$0PPPPPPPM@BA@AEPAXPBD@Z
?_ptrToObjRef@_objref_IRObject@CORBA@@EAEPAXPBD@Z
?_ptrToObjRef@_objref_InterfaceDef@CORBA@@$0PPPPPPPM@A@AEPAXPBD@Z
?_ptrToObjRef@_objref_InterfaceDef@CORBA@@$0PPPPPPPM@BA@AEPAXPBD@Z
?_ptrToObjRef@_objref_InterfaceDef@CORBA@@EAEPAXPBD@Z
?_ptrToObjRef@_objref_ModuleDef@CORBA@@$0PPPPPPPM@A@AEPAXPBD@Z
?_ptrToObjRef@_objref_ModuleDef@CORBA@@$0PPPPPPPM@BA@AEPAXPBD@Z
?_ptrToObjRef@_objref_ModuleDef@CORBA@@EAEPAXPBD@Z
?_ptrToObjRef@_objref_NativeDef@CORBA@@$0PPPPPPPM@A@AEPAXPBD@Z
?_ptrToObjRef@_objref_NativeDef@CORBA@@$0PPPPPPPM@BA@AEPAXPBD@Z
?_ptrToObjRef@_objref_NativeDef@CORBA@@EAEPAXPBD@Z
?_ptrToObjRef@_objref_OperationDef@CORBA@@$0PPPPPPPM@A@AEPAXPBD@Z
?_ptrToObjRef@_objref_OperationDef@CORBA@@$0PPPPPPPM@BA@AEPAXPBD@Z
?_ptrToObjRef@_objref_OperationDef@CORBA@@EAEPAXPBD@Z
?_ptrToObjRef@_objref_PrimitiveDef@CORBA@@$0PPPPPPPM@A@AEPAXPBD@Z
?_ptrToObjRef@_objref_PrimitiveDef@CORBA@@$0PPPPPPPM@BA@AEPAXPBD@Z
?_ptrToObjRef@_objref_PrimitiveDef@CORBA@@EAEPAXPBD@Z
?_ptrToObjRef@_objref_ReplyHandler@Messaging@@$0PPPPPPPM@A@AEPAXPBD@Z
?_ptrToObjRef@_objref_ReplyHandler@Messaging@@$0PPPPPPPM@BA@AEPAXPBD@Z
?_ptrToObjRef@_objref_ReplyHandler@Messaging@@EAEPAXPBD@Z
?_ptrToObjRef@_objref_Repository@CORBA@@$0PPPPPPPM@A@AEPAXPBD@Z
?_ptrToObjRef@_objref_Repository@CORBA@@$0PPPPPPPM@BA@AEPAXPBD@Z
?_ptrToObjRef@_objref_Repository@CORBA@@EAEPAXPBD@Z
?_ptrToObjRef@_objref_SequenceDef@CORBA@@$0PPPPPPPM@A@AEPAXPBD@Z
?_ptrToObjRef@_objref_SequenceDef@CORBA@@$0PPPPPPPM@BA@AEPAXPBD@Z
?_ptrToObjRef@_objref_SequenceDef@CORBA@@EAEPAXPBD@Z
?_ptrToObjRef@_objref_StringDef@CORBA@@$0PPPPPPPM@A@AEPAXPBD@Z
?_ptrToObjRef@_objref_StringDef@CORBA@@$0PPPPPPPM@BA@AEPAXPBD@Z
?_ptrToObjRef@_objref_StringDef@CORBA@@EAEPAXPBD@Z
?_ptrToObjRef@_objref_StructDef@CORBA@@$0PPPPPPPM@A@AEPAXPBD@Z
?_ptrToObjRef@_objref_StructDef@CORBA@@$0PPPPPPPM@BA@AEPAXPBD@Z
?_ptrToObjRef@_objref_StructDef@CORBA@@EAEPAXPBD@Z
?_ptrToObjRef@_objref_TypedefDef@CORBA@@$0PPPPPPPM@A@AEPAXPBD@Z
?_ptrToObjRef@_objref_TypedefDef@CORBA@@$0PPPPPPPM@BA@AEPAXPBD@Z
?_ptrToObjRef@_objref_TypedefDef@CORBA@@EAEPAXPBD@Z
?_ptrToObjRef@_objref_UnionDef@CORBA@@$0PPPPPPPM@A@AEPAXPBD@Z
?_ptrToObjRef@_objref_UnionDef@CORBA@@$0PPPPPPPM@BA@AEPAXPBD@Z
?_ptrToObjRef@_objref_UnionDef@CORBA@@EAEPAXPBD@Z
?_ptrToObjRef@_objref_ValueBoxDef@CORBA@@$0PPPPPPPM@A@AEPAXPBD@Z
?_ptrToObjRef@_objref_ValueBoxDef@CORBA@@$0PPPPPPPM@BA@AEPAXPBD@Z
?_ptrToObjRef@_objref_ValueBoxDef@CORBA@@EAEPAXPBD@Z
?_ptrToObjRef@_objref_ValueDef@CORBA@@$0PPPPPPPM@A@AEPAXPBD@Z
?_ptrToObjRef@_objref_ValueDef@CORBA@@$0PPPPPPPM@BA@AEPAXPBD@Z
?_ptrToObjRef@_objref_ValueDef@CORBA@@EAEPAXPBD@Z
?_ptrToObjRef@_objref_ValueMemberDef@CORBA@@$0PPPPPPPM@A@AEPAXPBD@Z
?_ptrToObjRef@_objref_ValueMemberDef@CORBA@@$0PPPPPPPM@BA@AEPAXPBD@Z
?_ptrToObjRef@_objref_ValueMemberDef@CORBA@@EAEPAXPBD@Z
?_ptrToObjRef@_objref_WstringDef@CORBA@@$0PPPPPPPM@A@AEPAXPBD@Z
?_ptrToObjRef@_objref_WstringDef@CORBA@@$0PPPPPPPM@BA@AEPAXPBD@Z
?_ptrToObjRef@_objref_WstringDef@CORBA@@EAEPAXPBD@Z
?_ptrToObjRef@omniNilDynAny@omni@@$4PPPPPPPM@A@AEPAXPBD@Z
?_ptrToObjRef@omniNilDynAny@omni@@UAEPAXPBD@Z
?_ptrToObjRef@omniNilDynAnyFactory@omni@@$4PPPPPPPM@A@AEPAXPBD@Z
?_ptrToObjRef@omniNilDynAnyFactory@omni@@UAEPAXPBD@Z
?_ptrToObjRef@omniNilDynArray@omni@@$4PPPPPPPM@A@AEPAXPBD@Z
?_ptrToObjRef@omniNilDynArray@omni@@UAEPAXPBD@Z
?_ptrToObjRef@omniNilDynEnum@omni@@$4PPPPPPPM@A@AEPAXPBD@Z
?_ptrToObjRef@omniNilDynEnum@omni@@UAEPAXPBD@Z
?_ptrToObjRef@omniNilDynFixed@omni@@$4PPPPPPPM@A@AEPAXPBD@Z
?_ptrToObjRef@omniNilDynFixed@omni@@UAEPAXPBD@Z
?_ptrToObjRef@omniNilDynSequence@omni@@$4PPPPPPPM@A@AEPAXPBD@Z
?_ptrToObjRef@omniNilDynSequence@omni@@UAEPAXPBD@Z
?_ptrToObjRef@omniNilDynStruct@omni@@$4PPPPPPPM@A@AEPAXPBD@Z
?_ptrToObjRef@omniNilDynStruct@omni@@UAEPAXPBD@Z
?_ptrToObjRef@omniNilDynUnion@omni@@$4PPPPPPPM@A@AEPAXPBD@Z
?_ptrToObjRef@omniNilDynUnion@omni@@UAEPAXPBD@Z
?_ptrToObjRef@omniNilDynValue@omni@@$4PPPPPPPM@A@AEPAXPBD@Z
?_ptrToObjRef@omniNilDynValue@omni@@UAEPAXPBD@Z
?_ptrToObjRef@omniNilDynValueBox@omni@@$4PPPPPPPM@A@AEPAXPBD@Z
?_ptrToObjRef@omniNilDynValueBox@omni@@UAEPAXPBD@Z
?_ptrToObjRef@omniNilDynValueCommon@omni@@$4PPPPPPPM@A@AEPAXPBD@Z
?_ptrToObjRef@omniNilDynValueCommon@omni@@UAEPAXPBD@Z
?_ptrToValue@DIIPollable@CORBA@@$4PPPPPPPM@A@AEPAXPBD@Z
?_ptrToValue@DIIPollable@CORBA@@$R4DE@M@PPPPPPPM@M@AEPAXPBD@Z
?_ptrToValue@DIIPollable@CORBA@@UAEPAXPBD@Z
?_ptrToValue@ExceptionHolder@Messaging@@$4PPPPPPPM@A@AEPAXPBD@Z
?_ptrToValue@ExceptionHolder@Messaging@@$R477PPPPPPPM@M@AEPAXPBD@Z
?_ptrToValue@ExceptionHolder@Messaging@@$R4M@7PPPPPPPM@M@AEPAXPBD@Z
?_ptrToValue@ExceptionHolder@Messaging@@UAEPAXPBD@Z
?_ptrToValue@Pollable@CORBA@@$4PPPPPPPM@A@AEPAXPBD@Z
?_ptrToValue@Pollable@CORBA@@UAEPAXPBD@Z
?_ptrToValue@Poller@Messaging@@$4PPPPPPPM@A@AEPAXPBD@Z
?_ptrToValue@Poller@Messaging@@$R4BA@M@PPPPPPPM@M@AEPAXPBD@Z
?_ptrToValue@Poller@Messaging@@UAEPAXPBD@Z
?_ptrToValue@StringValue@CORBA@@$4PPPPPPPM@A@AEPAXPBD@Z
?_ptrToValue@StringValue@CORBA@@UAEPAXPBD@Z
?_ptrToValue@UnknownValue@omni@@$4PPPPPPPM@A@AEPAXPBD@Z
?_ptrToValue@UnknownValue@omni@@UAEPAXPBD@Z
?_ptrToValue@ValueBase@CORBA@@UAEPAXPBD@Z
?_ptrToValue@WStringValue@CORBA@@$4PPPPPPPM@A@AEPAXPBD@Z
?_ptrToValue@WStringValue@CORBA@@UAEPAXPBD@Z
?_raise@BadKind@TypeCode@CORBA@@UBEXXZ
?_raise@Bounds@ContextList@CORBA@@UBEXXZ
?_raise@Bounds@ExceptionList@CORBA@@UBEXXZ
?_raise@Bounds@NVList@CORBA@@UBEXXZ
?_raise@Bounds@TypeCode@CORBA@@UBEXXZ
?_raise@FromAnyUserException@omni@@EBEXXZ
?_raise@InconsistentTypeCode@DynAnyFactory@DynamicAny@@UBEXXZ
?_raise@InconsistentTypeCode@ORB@CORBA@@UBEXXZ
?_raise@InvalidValue@DynAny@DynamicAny@@UBEXXZ
?_raise@NoPossiblePollable@PollableSet@CORBA@@UBEXXZ
?_raise@TypeMismatch@DynAny@DynamicAny@@UBEXXZ
?_raise@UnknownPollable@PollableSet@CORBA@@UBEXXZ
?_raise@UnknownUserException@CORBA@@UBEXXZ
?_raise@WrongTransaction@CORBA@@UBEXXZ
?_refcount_value@DIIPollableImpl@omniAMI@@$4PPPPPPPM@A@AEKXZ
?_refcount_value@DIIPollableImpl@omniAMI@@UAEKXZ
?_refcount_value@DefaultValueRefCountBase@CORBA@@$4PPPPPPPM@3AEKXZ
?_refcount_value@DefaultValueRefCountBase@CORBA@@$4PPPPPPPM@A@AEKXZ
?_refcount_value@DefaultValueRefCountBase@CORBA@@$R4BA@BA@PPPPPPPM@M@AEKXZ
?_refcount_value@DefaultValueRefCountBase@CORBA@@$R4HA@7PPPPPPPM@M@AEKXZ
?_refcount_value@DefaultValueRefCountBase@CORBA@@$R4M@M@PPPPPPPM@M@AEKXZ
?_refcount_value@DefaultValueRefCountBase@CORBA@@UAEKXZ
?_refcount_value@ValueRefCountBase@PortableServer@@$4PPPPPPPM@A@AEKXZ
?_refcount_value@ValueRefCountBase@PortableServer@@$4PPPPPPPM@CA@AEKXZ
?_refcount_value@ValueRefCountBase@PortableServer@@UAEKXZ
?_remFromSet@DIIPollableImpl@omniAMI@@QAE_NPAVomni_tracedcondition@@@Z
?_remove_ref@DIIPollableImpl@omniAMI@@$4PPPPPPPM@A@AEXXZ
?_remove_ref@DIIPollableImpl@omniAMI@@UAEXXZ
?_remove_ref@DefaultValueRefCountBase@CORBA@@$4PPPPPPPM@3AEXXZ
?_remove_ref@DefaultValueRefCountBase@CORBA@@$4PPPPPPPM@A@AEXXZ
?_remove_ref@DefaultValueRefCountBase@CORBA@@$R4BA@BA@PPPPPPPM@M@AEXXZ
?_remove_ref@DefaultValueRefCountBase@CORBA@@$R4HA@7PPPPPPPM@M@AEXXZ
?_remove_ref@DefaultValueRefCountBase@CORBA@@$R4M@M@PPPPPPPM@M@AEXXZ
?_remove_ref@DefaultValueRefCountBase@CORBA@@UAEXXZ
?_remove_ref@PollableSetImpl@omniAMI@@$4PPPPPPPM@A@AEXXZ
?_remove_ref@PollableSetImpl@omniAMI@@UAEXXZ
?_remove_ref@ServantBase@PortableServer@@$R477PPPPPPPM@BA@AEXXZ
?_remove_ref@ServantBase@PortableServer@@$R47BA@PPPPPPPM@BA@AEXXZ
?_remove_ref@ServantBase@PortableServer@@$R47BE@PPPPPPPM@BA@AEXXZ
?_remove_ref@ServantBase@PortableServer@@$R47BI@PPPPPPPM@BA@AEXXZ
?_remove_ref@ServantBase@PortableServer@@$R47BM@PPPPPPPM@BA@AEXXZ
?_remove_ref@ServantBase@PortableServer@@$R47CA@PPPPPPPM@BA@AEXXZ
?_remove_ref@ServantBase@PortableServer@@$R47M@PPPPPPPM@BA@AEXXZ
?_remove_ref@ValueFactoryBase@CORBA@@UAEXXZ
?_remove_ref@ValueRefCountBase@PortableServer@@$4PPPPPPPM@A@AEXXZ
?_remove_ref@ValueRefCountBase@PortableServer@@$4PPPPPPPM@M@AEXXZ
?_remove_ref@ValueRefCountBase@PortableServer@@UAEXXZ
?_replyCollected@DIIPollableImpl@omniAMI@@QAEXXZ
?_replyReady@DIIPollableImpl@omniAMI@@QAEXXZ
?_request@Object@CORBA@@QAEPAVRequest@2@PBD@Z
?_retn@?$_CORBA_ConstrType_Variable_Var@UDescription@Contained@CORBA@@@@QAEPAUDescription@Contained@CORBA@@XZ
?_retn@?$_CORBA_ConstrType_Variable_Var@UFullInterfaceDescription@InterfaceDef@CORBA@@@@QAEPAUFullInterfaceDescription@InterfaceDef@CORBA@@XZ
?_retn@?$_CORBA_ConstrType_Variable_Var@UFullValueDescription@ValueDef@CORBA@@@@QAEPAUFullValueDescription@ValueDef@CORBA@@XZ
?_retn@?$_CORBA_ObjRef_Var@V_objref_AbstractInterfaceDef@CORBA@@VAbstractInterfaceDef_Helper@2@@@QAEPAV_objref_AbstractInterfaceDef@CORBA@@XZ
?_retn@?$_CORBA_ObjRef_Var@V_objref_AliasDef@CORBA@@VAliasDef_Helper@2@@@QAEPAV_objref_AliasDef@CORBA@@XZ
?_retn@?$_CORBA_ObjRef_Var@V_objref_ArrayDef@CORBA@@VArrayDef_Helper@2@@@QAEPAV_objref_ArrayDef@CORBA@@XZ
?_retn@?$_CORBA_ObjRef_Var@V_objref_AttributeDef@CORBA@@VAttributeDef_Helper@2@@@QAEPAV_objref_AttributeDef@CORBA@@XZ
?_retn@?$_CORBA_ObjRef_Var@V_objref_ConstantDef@CORBA@@VConstantDef_Helper@2@@@QAEPAV_objref_ConstantDef@CORBA@@XZ
?_retn@?$_CORBA_ObjRef_Var@V_objref_Contained@CORBA@@VContained_Helper@2@@@QAEPAV_objref_Contained@CORBA@@XZ
?_retn@?$_CORBA_ObjRef_Var@V_objref_Container@CORBA@@VContainer_Helper@2@@@QAEPAV_objref_Container@CORBA@@XZ
?_retn@?$_CORBA_ObjRef_Var@V_objref_EnumDef@CORBA@@VEnumDef_Helper@2@@@QAEPAV_objref_EnumDef@CORBA@@XZ
?_retn@?$_CORBA_ObjRef_Var@V_objref_ExceptionDef@CORBA@@VExceptionDef_Helper@2@@@QAEPAV_objref_ExceptionDef@CORBA@@XZ
?_retn@?$_CORBA_ObjRef_Var@V_objref_FixedDef@CORBA@@VFixedDef_Helper@2@@@QAEPAV_objref_FixedDef@CORBA@@XZ
?_retn@?$_CORBA_ObjRef_Var@V_objref_IDLType@CORBA@@VIDLType_Helper@2@@@QAEPAV_objref_IDLType@CORBA@@XZ
?_retn@?$_CORBA_ObjRef_Var@V_objref_InterfaceDef@CORBA@@VInterfaceDef_Helper@2@@@QAEPAV_objref_InterfaceDef@CORBA@@XZ
?_retn@?$_CORBA_ObjRef_Var@V_objref_ModuleDef@CORBA@@VModuleDef_Helper@2@@@QAEPAV_objref_ModuleDef@CORBA@@XZ
?_retn@?$_CORBA_ObjRef_Var@V_objref_NativeDef@CORBA@@VNativeDef_Helper@2@@@QAEPAV_objref_NativeDef@CORBA@@XZ
?_retn@?$_CORBA_ObjRef_Var@V_objref_OperationDef@CORBA@@VOperationDef_Helper@2@@@QAEPAV_objref_OperationDef@CORBA@@XZ
?_retn@?$_CORBA_ObjRef_Var@V_objref_PrimitiveDef@CORBA@@VPrimitiveDef_Helper@2@@@QAEPAV_objref_PrimitiveDef@CORBA@@XZ
?_retn@?$_CORBA_ObjRef_Var@V_objref_Repository@CORBA@@VRepository_Helper@2@@@QAEPAV_objref_Repository@CORBA@@XZ
?_retn@?$_CORBA_ObjRef_Var@V_objref_SequenceDef@CORBA@@VSequenceDef_Helper@2@@@QAEPAV_objref_SequenceDef@CORBA@@XZ
?_retn@?$_CORBA_ObjRef_Var@V_objref_StringDef@CORBA@@VStringDef_Helper@2@@@QAEPAV_objref_StringDef@CORBA@@XZ
?_retn@?$_CORBA_ObjRef_Var@V_objref_StructDef@CORBA@@VStructDef_Helper@2@@@QAEPAV_objref_StructDef@CORBA@@XZ
?_retn@?$_CORBA_ObjRef_Var@V_objref_UnionDef@CORBA@@VUnionDef_Helper@2@@@QAEPAV_objref_UnionDef@CORBA@@XZ
?_retn@?$_CORBA_ObjRef_Var@V_objref_ValueBoxDef@CORBA@@VValueBoxDef_Helper@2@@@QAEPAV_objref_ValueBoxDef@CORBA@@XZ
?_retn@?$_CORBA_ObjRef_Var@V_objref_ValueDef@CORBA@@VValueDef_Helper@2@@@QAEPAV_objref_ValueDef@CORBA@@XZ
?_retn@?$_CORBA_ObjRef_Var@V_objref_ValueMemberDef@CORBA@@VValueMemberDef_Helper@2@@@QAEPAV_objref_ValueMemberDef@CORBA@@XZ
?_retn@?$_CORBA_ObjRef_Var@V_objref_WstringDef@CORBA@@VWstringDef_Helper@2@@@QAEPAV_objref_WstringDef@CORBA@@XZ
?_retn@Any_var@CORBA@@QAEPAVAny@2@XZ
?_retn@BooleanSeq_var@CORBA@@QAEPAVBooleanSeq@2@XZ
?_retn@CharSeq_var@CORBA@@QAEPAVCharSeq@2@XZ
?_retn@ContainedSeq_var@CORBA@@QAEPAVContainedSeq@2@XZ
?_retn@ContextIdSeq_var@CORBA@@QAEPAVContextIdSeq@2@XZ
?_retn@DescriptionSeq_var@Container@CORBA@@QAEPAVDescriptionSeq@23@XZ
?_retn@DoubleSeq_var@CORBA@@QAEPAVDoubleSeq@2@XZ
?_retn@EnumMemberSeq_var@CORBA@@QAEPAVEnumMemberSeq@2@XZ
?_retn@ExceptionDefSeq_var@CORBA@@QAEPAVExceptionDefSeq@2@XZ
?_retn@FloatSeq_var@CORBA@@QAEPAVFloatSeq@2@XZ
?_retn@InitializerSeq_var@CORBA@@QAEPAVInitializerSeq@2@XZ
?_retn@InterfaceDefSeq_var@CORBA@@QAEPAVInterfaceDefSeq@2@XZ
?_retn@LongLongSeq_var@CORBA@@QAEPAVLongLongSeq@2@XZ
?_retn@LongSeq_var@CORBA@@QAEPAVLongSeq@2@XZ
?_retn@Object_var@CORBA@@QAEPAVObject@2@XZ
?_retn@OctetSeq_var@CORBA@@QAEPAVOctetSeq@2@XZ
?_retn@ParDescriptionSeq_var@CORBA@@QAEPAVParDescriptionSeq@2@XZ
?_retn@ShortSeq_var@CORBA@@QAEPAVShortSeq@2@XZ
?_retn@StructMemberSeq_var@CORBA@@QAEPAVStructMemberSeq@2@XZ
?_retn@TypeCode_member@CORBA@@QAEPAVTypeCode@2@XZ
?_retn@TypeCode_var@CORBA@@QAEPAVTypeCode@2@XZ
?_retn@ULongLongSeq_var@CORBA@@QAEPAVULongLongSeq@2@XZ
?_retn@ULongSeq_var@CORBA@@QAEPAVULongSeq@2@XZ
?_retn@UShortSeq_var@CORBA@@QAEPAVUShortSeq@2@XZ
?_retn@UnionMemberSeq_var@CORBA@@QAEPAVUnionMemberSeq@2@XZ
?_retn@ValueBase_var@CORBA@@QAEPAVValueBase@2@XZ
?_retn@ValueDefSeq_var@CORBA@@QAEPAVValueDefSeq@2@XZ
?_retn@WCharSeq_var@CORBA@@QAEPAVWCharSeq@2@XZ
?_retn@_CORBA_String_var@@QAEPADXZ
?_tc_AbstractInterfaceDef@CORBA@@3QAVTypeCode@1@A
?_tc_AbstractInterfaceDefSeq@CORBA@@3QAVTypeCode@1@A
?_tc_Address@NamingContextExt@CosNaming@@2QAVTypeCode@CORBA@@A
?_tc_AliasDef@CORBA@@3QAVTypeCode@1@A
?_tc_AlreadyBound@NamingContext@CosNaming@@2QAVTypeCode@CORBA@@A
?_tc_AnySeq@CORBA@@3QAVTypeCode@1@A
?_tc_ArrayDef@CORBA@@3QAVTypeCode@1@A
?_tc_AttrDescriptionSeq@CORBA@@3QAVTypeCode@1@A
?_tc_AttributeDef@CORBA@@3QAVTypeCode@1@A
?_tc_AttributeDescription@CORBA@@3QAVTypeCode@1@A
?_tc_AttributeMode@CORBA@@3QAVTypeCode@1@A
?_tc_BAD_CONTEXT@CORBA@@3PAVTypeCode@1@A
?_tc_BAD_INV_ORDER@CORBA@@3PAVTypeCode@1@A
?_tc_BAD_OPERATION@CORBA@@3PAVTypeCode@1@A
?_tc_BAD_PARAM@CORBA@@3PAVTypeCode@1@A
?_tc_BAD_QOS@CORBA@@3PAVTypeCode@1@A
?_tc_BAD_TYPECODE@CORBA@@3PAVTypeCode@1@A
?_tc_Binding@CosNaming@@3QAVTypeCode@CORBA@@A
?_tc_BindingIterator@CosNaming@@3QAVTypeCode@CORBA@@A
?_tc_BindingList@CosNaming@@3QAVTypeCode@CORBA@@A
?_tc_BindingType@CosNaming@@3QAVTypeCode@CORBA@@A
?_tc_BooleanSeq@CORBA@@3QAVTypeCode@1@A
?_tc_CODESET_INCOMPATIBLE@CORBA@@3PAVTypeCode@1@A
?_tc_COMM_FAILURE@CORBA@@3PAVTypeCode@1@A
?_tc_CORBA_InitialReferences@@3QAVTypeCode@CORBA@@A
?_tc_CannotProceed@NamingContext@CosNaming@@2QAVTypeCode@CORBA@@A
?_tc_CharSeq@CORBA@@3QAVTypeCode@1@A
?_tc_ConstantDef@CORBA@@3QAVTypeCode@1@A
?_tc_ConstantDescription@CORBA@@3QAVTypeCode@1@A
?_tc_Contained@CORBA@@3QAVTypeCode@1@A
?_tc_ContainedSeq@CORBA@@3QAVTypeCode@1@A
?_tc_Container@CORBA@@3QAVTypeCode@1@A
?_tc_ContextIdSeq@CORBA@@3QAVTypeCode@1@A
?_tc_ContextIdentifier@CORBA@@3QAVTypeCode@1@A
?_tc_DATA_CONVERSION@CORBA@@3PAVTypeCode@1@A
?_tc_DIIPollable@CORBA@@3QAVTypeCode@1@A
?_tc_DefinitionKind@CORBA@@3QAVTypeCode@1@A
?_tc_Description@Contained@CORBA@@2QAVTypeCode@2@A
?_tc_Description@Container@CORBA@@2QAVTypeCode@2@A
?_tc_DescriptionSeq@Container@CORBA@@2QAVTypeCode@2@A
?_tc_DoubleSeq@CORBA@@3QAVTypeCode@1@A
?_tc_EnumDef@CORBA@@3QAVTypeCode@1@A
?_tc_EnumMemberSeq@CORBA@@3QAVTypeCode@1@A
?_tc_ExcDescriptionSeq@CORBA@@3QAVTypeCode@1@A
?_tc_ExceptionDef@CORBA@@3QAVTypeCode@1@A
?_tc_ExceptionDefSeq@CORBA@@3QAVTypeCode@1@A
?_tc_ExceptionDescription@CORBA@@3QAVTypeCode@1@A
?_tc_FREE_MEM@CORBA@@3PAVTypeCode@1@A
?_tc_FixedDef@CORBA@@3QAVTypeCode@1@A
?_tc_FloatSeq@CORBA@@3QAVTypeCode@1@A
?_tc_ForwardRequest@PortableServer@@3QAVTypeCode@CORBA@@A
?_tc_FullInterfaceDescription@InterfaceDef@CORBA@@2QAVTypeCode@2@A
?_tc_FullValueDescription@ValueDef@CORBA@@2QAVTypeCode@2@A
?_tc_IDLType@CORBA@@3QAVTypeCode@1@A
?_tc_IMP_LIMIT@CORBA@@3PAVTypeCode@1@A
?_tc_INITIALIZE@CORBA@@3PAVTypeCode@1@A
?_tc_INTERNAL@CORBA@@3PAVTypeCode@1@A
?_tc_INTF_REPOS@CORBA@@3PAVTypeCode@1@A
?_tc_INVALID_TRANSACTION@CORBA@@3PAVTypeCode@1@A
?_tc_INV_FLAG@CORBA@@3PAVTypeCode@1@A
?_tc_INV_IDENT@CORBA@@3PAVTypeCode@1@A
?_tc_INV_OBJREF@CORBA@@3PAVTypeCode@1@A
?_tc_INV_POLICY@CORBA@@3PAVTypeCode@1@A
?_tc_IRObject@CORBA@@3QAVTypeCode@1@A
?_tc_IdAssignmentPolicyValue@PortableServer@@3QAVTypeCode@CORBA@@A
?_tc_IdUniquenessPolicyValue@PortableServer@@3QAVTypeCode@CORBA@@A
?_tc_Identifier@CORBA@@3QAVTypeCode@1@A
?_tc_ImplicitActivationPolicyValue@PortableServer@@3QAVTypeCode@CORBA@@A
?_tc_Initializer@CORBA@@3QAVTypeCode@1@A
?_tc_InitializerSeq@CORBA@@3QAVTypeCode@1@A
?_tc_InterfaceDef@CORBA@@3QAVTypeCode@1@A
?_tc_InterfaceDefSeq@CORBA@@3QAVTypeCode@1@A
?_tc_InterfaceDescription@CORBA@@3QAVTypeCode@1@A
?_tc_InvalidAddress@NamingContextExt@CosNaming@@2QAVTypeCode@CORBA@@A
?_tc_InvalidName@NamingContext@CosNaming@@2QAVTypeCode@CORBA@@A
?_tc_InvalidPolicy@POA@PortableServer@@2QAVTypeCode@CORBA@@A
?_tc_Istring@CosNaming@@3QAVTypeCode@CORBA@@A
?_tc_LifespanPolicyValue@PortableServer@@3QAVTypeCode@CORBA@@A
?_tc_LongLongSeq@CORBA@@3QAVTypeCode@1@A
?_tc_LongSeq@CORBA@@3QAVTypeCode@1@A
?_tc_MARSHAL@CORBA@@3PAVTypeCode@1@A
?_tc_ModuleDef@CORBA@@3QAVTypeCode@1@A
?_tc_ModuleDescription@CORBA@@3QAVTypeCode@1@A
?_tc_NO_IMPLEMENT@CORBA@@3PAVTypeCode@1@A
?_tc_NO_MEMORY@CORBA@@3PAVTypeCode@1@A
?_tc_NO_PERMISSION@CORBA@@3PAVTypeCode@1@A
?_tc_NO_RESOURCES@CORBA@@3PAVTypeCode@1@A
?_tc_NO_RESPONSE@CORBA@@3PAVTypeCode@1@A
?_tc_Name@CosNaming@@3QAVTypeCode@CORBA@@A
?_tc_NameComponent@CosNaming@@3QAVTypeCode@CORBA@@A
?_tc_NamedValue@CORBA@@3PAVTypeCode@1@A
?_tc_NamingContext@CosNaming@@3QAVTypeCode@CORBA@@A
?_tc_NamingContextExt@CosNaming@@3QAVTypeCode@CORBA@@A
?_tc_NativeDef@CORBA@@3QAVTypeCode@1@A
?_tc_NoPossiblePollable@PollableSet@CORBA@@2QAVTypeCode@2@A
?_tc_NotEmpty@NamingContext@CosNaming@@2QAVTypeCode@CORBA@@A
?_tc_NotFound@NamingContext@CosNaming@@2QAVTypeCode@CORBA@@A
?_tc_NotFoundReason@NamingContext@CosNaming@@2QAVTypeCode@CORBA@@A
?_tc_OBJECT_NOT_EXIST@CORBA@@3PAVTypeCode@1@A
?_tc_OBJ_ADAPTER@CORBA@@3PAVTypeCode@1@A
?_tc_ObjId@CORBA_InitialReferences@@2QAVTypeCode@CORBA@@A
?_tc_ObjIdList@CORBA_InitialReferences@@2QAVTypeCode@CORBA@@A
?_tc_Object@CORBA@@3PAVTypeCode@1@A
?_tc_OctetSeq@CORBA@@3QAVTypeCode@1@A
?_tc_OpDescriptionSeq@CORBA@@3QAVTypeCode@1@A
?_tc_OperationDef@CORBA@@3QAVTypeCode@1@A
?_tc_OperationDescription@CORBA@@3QAVTypeCode@1@A
?_tc_OperationMode@CORBA@@3QAVTypeCode@1@A
?_tc_PERSIST_STORE@CORBA@@3PAVTypeCode@1@A
?_tc_ParDescriptionSeq@CORBA@@3QAVTypeCode@1@A
?_tc_ParameterDescription@CORBA@@3QAVTypeCode@1@A
?_tc_ParameterMode@CORBA@@3QAVTypeCode@1@A
?_tc_PolicyError@CORBA@@3QAVTypeCode@1@A
?_tc_PolicyErrorCode@CORBA@@3QAVTypeCode@1@A
?_tc_Pollable@CORBA@@3QAVTypeCode@1@A
?_tc_PollableSet@CORBA@@3QAVTypeCode@1@A
?_tc_PrimitiveDef@CORBA@@3QAVTypeCode@1@A
?_tc_PrimitiveKind@CORBA@@3QAVTypeCode@1@A
?_tc_Principal@CORBA@@3PAVTypeCode@1@A
?_tc_REBIND@CORBA@@3PAVTypeCode@1@A
?_tc_Repository@CORBA@@3QAVTypeCode@1@A
?_tc_RepositoryId@CORBA@@3QAVTypeCode@1@A
?_tc_RepositoryIdSeq@CORBA@@3QAVTypeCode@1@A
?_tc_RequestProcessingPolicyValue@PortableServer@@3QAVTypeCode@CORBA@@A
?_tc_ScopedName@CORBA@@3QAVTypeCode@1@A
?_tc_SequenceDef@CORBA@@3QAVTypeCode@1@A
?_tc_ServantRetentionPolicyValue@PortableServer@@3QAVTypeCode@CORBA@@A
?_tc_ShortSeq@CORBA@@3QAVTypeCode@1@A
?_tc_StringDef@CORBA@@3QAVTypeCode@1@A
?_tc_StringName@NamingContextExt@CosNaming@@2QAVTypeCode@CORBA@@A
?_tc_StringSeq@CORBA@@3QAVTypeCode@1@A
?_tc_StringValue@CORBA@@3QAVTypeCode@1@A
?_tc_StructDef@CORBA@@3QAVTypeCode@1@A
?_tc_StructMember@CORBA@@3QAVTypeCode@1@A
?_tc_StructMemberSeq@CORBA@@3QAVTypeCode@1@A
?_tc_TIMEOUT@CORBA@@3PAVTypeCode@1@A
?_tc_TRANSACTION_MODE@CORBA@@3PAVTypeCode@1@A
?_tc_TRANSACTION_REQUIRED@CORBA@@3PAVTypeCode@1@A
?_tc_TRANSACTION_ROLLEDBACK@CORBA@@3PAVTypeCode@1@A
?_tc_TRANSACTION_UNAVAILABLE@CORBA@@3PAVTypeCode@1@A
?_tc_TRANSIENT@CORBA@@3PAVTypeCode@1@A
?_tc_ThreadPolicyValue@PortableServer@@3QAVTypeCode@CORBA@@A
?_tc_TypeCode@CORBA@@3PAVTypeCode@1@A
?_tc_TypeDescription@CORBA@@3QAVTypeCode@1@A
?_tc_TypedefDef@CORBA@@3QAVTypeCode@1@A
?_tc_ULongLongSeq@CORBA@@3QAVTypeCode@1@A
?_tc_ULongSeq@CORBA@@3QAVTypeCode@1@A
?_tc_UNKNOWN@CORBA@@3PAVTypeCode@1@A
?_tc_URLString@NamingContextExt@CosNaming@@2QAVTypeCode@CORBA@@A
?_tc_UShortSeq@CORBA@@3QAVTypeCode@1@A
?_tc_UnionDef@CORBA@@3QAVTypeCode@1@A
?_tc_UnionMember@CORBA@@3QAVTypeCode@1@A
?_tc_UnionMemberSeq@CORBA@@3QAVTypeCode@1@A
?_tc_UnknownPollable@PollableSet@CORBA@@2QAVTypeCode@2@A
?_tc_ValueBoxDef@CORBA@@3QAVTypeCode@1@A
?_tc_ValueDef@CORBA@@3QAVTypeCode@1@A
?_tc_ValueDefSeq@CORBA@@3QAVTypeCode@1@A
?_tc_ValueDescription@CORBA@@3QAVTypeCode@1@A
?_tc_ValueMember@CORBA@@3QAVTypeCode@1@A
?_tc_ValueMemberDef@CORBA@@3QAVTypeCode@1@A
?_tc_ValueMemberSeq@CORBA@@3QAVTypeCode@1@A
?_tc_VersionSpec@CORBA@@3QAVTypeCode@1@A
?_tc_Visibility@CORBA@@3QAVTypeCode@1@A
?_tc_WCharSeq@CORBA@@3QAVTypeCode@1@A
?_tc_WStringSeq@CORBA@@3QAVTypeCode@1@A
?_tc_WStringValue@CORBA@@3QAVTypeCode@1@A
?_tc_WstringDef@CORBA@@3QAVTypeCode@1@A
?_tc_any@CORBA@@3PAVTypeCode@1@A
?_tc_boolean@CORBA@@3PAVTypeCode@1@A
?_tc_char@CORBA@@3PAVTypeCode@1@A
?_tc_double@CORBA@@3PAVTypeCode@1@A
?_tc_float@CORBA@@3PAVTypeCode@1@A
?_tc_long@CORBA@@3PAVTypeCode@1@A
?_tc_longlong@CORBA@@3PAVTypeCode@1@A
?_tc_null@CORBA@@3PAVTypeCode@1@A
?_tc_octet@CORBA@@3PAVTypeCode@1@A
?_tc_short@CORBA@@3PAVTypeCode@1@A
?_tc_string@CORBA@@3PAVTypeCode@1@A
?_tc_ulong@CORBA@@3PAVTypeCode@1@A
?_tc_ulonglong@CORBA@@3PAVTypeCode@1@A
?_tc_ushort@CORBA@@3PAVTypeCode@1@A
?_tc_void@CORBA@@3PAVTypeCode@1@A
?_tc_wchar@CORBA@@3PAVTypeCode@1@A
?_tc_wstring@CORBA@@3PAVTypeCode@1@A
?_this@DynamicImplementation@PortableServer@@QAEPAVObject@CORBA@@XZ
?_to_object@AbstractBase@CORBA@@QAEPAVObject@2@XZ
?_to_value@AbstractBase@CORBA@@QAEPAVValueBase@2@XZ
?_unchecked_narrow@AbstractInterfaceDef@CORBA@@SAPAV_objref_AbstractInterfaceDef@2@PAVObject@2@@Z
?_unchecked_narrow@AliasDef@CORBA@@SAPAV_objref_AliasDef@2@PAVObject@2@@Z
?_unchecked_narrow@ArrayDef@CORBA@@SAPAV_objref_ArrayDef@2@PAVObject@2@@Z
?_unchecked_narrow@AttributeDef@CORBA@@SAPAV_objref_AttributeDef@2@PAVObject@2@@Z
?_unchecked_narrow@ConstantDef@CORBA@@SAPAV_objref_ConstantDef@2@PAVObject@2@@Z
?_unchecked_narrow@Contained@CORBA@@SAPAV_objref_Contained@2@PAVObject@2@@Z
?_unchecked_narrow@Container@CORBA@@SAPAV_objref_Container@2@PAVObject@2@@Z
?_unchecked_narrow@EnumDef@CORBA@@SAPAV_objref_EnumDef@2@PAVObject@2@@Z
?_unchecked_narrow@ExceptionDef@CORBA@@SAPAV_objref_ExceptionDef@2@PAVObject@2@@Z
?_unchecked_narrow@FixedDef@CORBA@@SAPAV_objref_FixedDef@2@PAVObject@2@@Z
?_unchecked_narrow@IDLType@CORBA@@SAPAV_objref_IDLType@2@PAVObject@2@@Z
?_unchecked_narrow@IRObject@CORBA@@SAPAV_objref_IRObject@2@PAVObject@2@@Z
?_unchecked_narrow@InterfaceDef@CORBA@@SAPAV_objref_InterfaceDef@2@PAVObject@2@@Z
?_unchecked_narrow@ModuleDef@CORBA@@SAPAV_objref_ModuleDef@2@PAVObject@2@@Z
?_unchecked_narrow@NativeDef@CORBA@@SAPAV_objref_NativeDef@2@PAVObject@2@@Z
?_unchecked_narrow@OperationDef@CORBA@@SAPAV_objref_OperationDef@2@PAVObject@2@@Z
?_unchecked_narrow@PollableSet@CORBA@@SAPAV12@PAVObject@2@@Z
?_unchecked_narrow@PrimitiveDef@CORBA@@SAPAV_objref_PrimitiveDef@2@PAVObject@2@@Z
?_unchecked_narrow@ReplyHandler@Messaging@@SAPAV_objref_ReplyHandler@2@PAVObject@CORBA@@@Z
?_unchecked_narrow@Repository@CORBA@@SAPAV_objref_Repository@2@PAVObject@2@@Z
?_unchecked_narrow@SequenceDef@CORBA@@SAPAV_objref_SequenceDef@2@PAVObject@2@@Z
?_unchecked_narrow@StringDef@CORBA@@SAPAV_objref_StringDef@2@PAVObject@2@@Z
?_unchecked_narrow@StructDef@CORBA@@SAPAV_objref_StructDef@2@PAVObject@2@@Z
?_unchecked_narrow@TypedefDef@CORBA@@SAPAV_objref_TypedefDef@2@PAVObject@2@@Z
?_unchecked_narrow@UnionDef@CORBA@@SAPAV_objref_UnionDef@2@PAVObject@2@@Z
?_unchecked_narrow@ValueBoxDef@CORBA@@SAPAV_objref_ValueBoxDef@2@PAVObject@2@@Z
?_unchecked_narrow@ValueDef@CORBA@@SAPAV_objref_ValueDef@2@PAVObject@2@@Z
?_unchecked_narrow@ValueMemberDef@CORBA@@SAPAV_objref_ValueMemberDef@2@PAVObject@2@@Z
?_unchecked_narrow@WstringDef@CORBA@@SAPAV_objref_WstringDef@2@PAVObject@2@@Z
?_unmarshalObjRef@AbstractInterfaceDef@CORBA@@SAPAV_objref_AbstractInterfaceDef@2@AAVcdrStream@@@Z
?_unmarshalObjRef@AliasDef@CORBA@@SAPAV_objref_AliasDef@2@AAVcdrStream@@@Z
?_unmarshalObjRef@ArrayDef@CORBA@@SAPAV_objref_ArrayDef@2@AAVcdrStream@@@Z
?_unmarshalObjRef@AttributeDef@CORBA@@SAPAV_objref_AttributeDef@2@AAVcdrStream@@@Z
?_unmarshalObjRef@ConstantDef@CORBA@@SAPAV_objref_ConstantDef@2@AAVcdrStream@@@Z
?_unmarshalObjRef@Contained@CORBA@@SAPAV_objref_Contained@2@AAVcdrStream@@@Z
?_unmarshalObjRef@Container@CORBA@@SAPAV_objref_Container@2@AAVcdrStream@@@Z
?_unmarshalObjRef@EnumDef@CORBA@@SAPAV_objref_EnumDef@2@AAVcdrStream@@@Z
?_unmarshalObjRef@ExceptionDef@CORBA@@SAPAV_objref_ExceptionDef@2@AAVcdrStream@@@Z
?_unmarshalObjRef@FixedDef@CORBA@@SAPAV_objref_FixedDef@2@AAVcdrStream@@@Z
?_unmarshalObjRef@IDLType@CORBA@@SAPAV_objref_IDLType@2@AAVcdrStream@@@Z
?_unmarshalObjRef@IRObject@CORBA@@SAPAV_objref_IRObject@2@AAVcdrStream@@@Z
?_unmarshalObjRef@InterfaceDef@CORBA@@SAPAV_objref_InterfaceDef@2@AAVcdrStream@@@Z
?_unmarshalObjRef@ModuleDef@CORBA@@SAPAV_objref_ModuleDef@2@AAVcdrStream@@@Z
?_unmarshalObjRef@NativeDef@CORBA@@SAPAV_objref_NativeDef@2@AAVcdrStream@@@Z
?_unmarshalObjRef@OperationDef@CORBA@@SAPAV_objref_OperationDef@2@AAVcdrStream@@@Z
?_unmarshalObjRef@PollableSet@CORBA@@SAPAV12@AAVcdrStream@@@Z
?_unmarshalObjRef@PrimitiveDef@CORBA@@SAPAV_objref_PrimitiveDef@2@AAVcdrStream@@@Z
?_unmarshalObjRef@ReplyHandler@Messaging@@SAPAV_objref_ReplyHandler@2@AAVcdrStream@@@Z
?_unmarshalObjRef@Repository@CORBA@@SAPAV_objref_Repository@2@AAVcdrStream@@@Z
?_unmarshalObjRef@SequenceDef@CORBA@@SAPAV_objref_SequenceDef@2@AAVcdrStream@@@Z
?_unmarshalObjRef@StringDef@CORBA@@SAPAV_objref_StringDef@2@AAVcdrStream@@@Z
?_unmarshalObjRef@StructDef@CORBA@@SAPAV_objref_StructDef@2@AAVcdrStream@@@Z
?_unmarshalObjRef@TypedefDef@CORBA@@SAPAV_objref_TypedefDef@2@AAVcdrStream@@@Z
?_unmarshalObjRef@UnionDef@CORBA@@SAPAV_objref_UnionDef@2@AAVcdrStream@@@Z
?_unmarshalObjRef@ValueBoxDef@CORBA@@SAPAV_objref_ValueBoxDef@2@AAVcdrStream@@@Z
?_unmarshalObjRef@ValueDef@CORBA@@SAPAV_objref_ValueDef@2@AAVcdrStream@@@Z
?_unmarshalObjRef@ValueMemberDef@CORBA@@SAPAV_objref_ValueMemberDef@2@AAVcdrStream@@@Z
?_unmarshalObjRef@WstringDef@CORBA@@SAPAV_objref_WstringDef@2@AAVcdrStream@@@Z
?_user_exns@_0RL_cd_7963219a43724a61_00000000@@2QBQBDB
?_user_exns@_0RL_cd_7963219a43724a61_04000000@@2QBQBDB
?_user_exns@_0RL_cd_7963219a43724a61_06000000@@2QBQBDB
?_user_exns@_0RL_cd_7963219a43724a61_08000000@@2QBQBDB
?_user_exns@_0RL_cd_7963219a43724a61_0b000000@@2QBQBDB
?_user_exns@_0RL_cd_7963219a43724a61_11000000@@2QBQBDB
?_user_exns@_0RL_cd_7963219a43724a61_12000000@@2QBQBDB
?_user_exns@_0RL_cd_7963219a43724a61_13000000@@2QBQBDB
?_user_exns@_0RL_cd_7963219a43724a61_15000000@@2QBQBDB
?_user_exns@_0RL_cd_7963219a43724a61_19000000@@2QBQBDB
?_user_exns@_0RL_cd_7963219a43724a61_1a000000@@2QBQBDB
?_user_exns@_0RL_cd_7963219a43724a61_1c000000@@2QBQBDB
?_user_exns@_0RL_cd_7963219a43724a61_20000000@@2QBQBDB
?_user_exns@_0RL_cd_7963219a43724a61_24000000@@2QBQBDB
?_user_exns@_0RL_cd_7963219a43724a61_26000000@@2QBQBDB
?_user_exns@_0RL_cd_7963219a43724a61_28000000@@2QBQBDB
?_user_exns@_0RL_cd_7963219a43724a61_2b000000@@2QBQBDB
?_user_exns@_0RL_cd_7963219a43724a61_31000000@@2QBQBDB
?_user_exns@_0RL_cd_7963219a43724a61_32000000@@2QBQBDB
?_user_exns@_0RL_cd_7963219a43724a61_33000000@@2QBQBDB
?_user_exns@_0RL_cd_7963219a43724a61_39000000@@2QBQBDB
?_user_exns@_0RL_cd_7963219a43724a61_40000000@@2QBQBDB
?_user_exns@_0RL_cd_7963219a43724a61_44000000@@2QBQBDB
?_user_exns@_0RL_cd_7963219a43724a61_46000000@@2QBQBDB
?_user_exns@_0RL_cd_7963219a43724a61_4b000000@@2QBQBDB
?_user_exns@_0RL_cd_7963219a43724a61_51000000@@2QBQBDB
?_user_exns@_0RL_cd_7963219a43724a61_52000000@@2QBQBDB
?_user_exns@_0RL_cd_7963219a43724a61_53000000@@2QBQBDB
?_user_exns@_0RL_cd_7963219a43724a61_59000000@@2QBQBDB
?_user_exns@_0RL_cd_7963219a43724a61_60000000@@2QBQBDB
?_user_exns@_0RL_cd_7963219a43724a61_65000000@@2QBQBDB
?_user_exns@_0RL_cd_7963219a43724a61_6b000000@@2QBQBDB
?_user_exns@_0RL_cd_7963219a43724a61_71000000@@2QBQBDB
?_user_exns@_0RL_cd_7963219a43724a61_72000000@@2QBQBDB
?_user_exns@_0RL_cd_7963219a43724a61_74000000@@2QBQBDB
?_user_exns@_0RL_cd_7963219a43724a61_78000000@@2QBQBDB
?_user_exns@_0RL_cd_7963219a43724a61_79000000@@2QBQBDB
?_user_exns@_0RL_cd_7963219a43724a61_83000000@@2QBQBDB
?_user_exns@_0RL_cd_7963219a43724a61_85000000@@2QBQBDB
?_user_exns@_0RL_cd_7963219a43724a61_86000000@@2QBQBDB
?_user_exns@_0RL_cd_7963219a43724a61_8b000000@@2QBQBDB
?_user_exns@_0RL_cd_7963219a43724a61_91000000@@2QBQBDB
?_user_exns@_0RL_cd_7963219a43724a61_92000000@@2QBQBDB
?_user_exns@_0RL_cd_7963219a43724a61_94000000@@2QBQBDB
?_user_exns@_0RL_cd_7963219a43724a61_98000000@@2QBQBDB
?_user_exns@_0RL_cd_7963219a43724a61_99000000@@2QBQBDB
?_user_exns@_0RL_cd_7963219a43724a61_a3000000@@2QBQBDB
?_user_exns@_0RL_cd_7963219a43724a61_a5000000@@2QBQBDB
?_user_exns@_0RL_cd_7963219a43724a61_a6000000@@2QBQBDB
?_user_exns@_0RL_cd_7963219a43724a61_aa000000@@2QBQBDB
?_user_exns@_0RL_cd_7963219a43724a61_b1000000@@2QBQBDB
?_user_exns@_0RL_cd_7963219a43724a61_b2000000@@2QBQBDB
?_user_exns@_0RL_cd_7963219a43724a61_b4000000@@2QBQBDB
?_user_exns@_0RL_cd_7963219a43724a61_b8000000@@2QBQBDB
?_user_exns@_0RL_cd_7963219a43724a61_b9000000@@2QBQBDB
?_user_exns@_0RL_cd_7963219a43724a61_c0000000@@2QBQBDB
?_user_exns@_0RL_cd_7963219a43724a61_c3000000@@2QBQBDB
?_user_exns@_0RL_cd_7963219a43724a61_c5000000@@2QBQBDB
?_user_exns@_0RL_cd_7963219a43724a61_c6000000@@2QBQBDB
?_user_exns@_0RL_cd_7963219a43724a61_ca000000@@2QBQBDB
?_user_exns@_0RL_cd_7963219a43724a61_d1000000@@2QBQBDB
?_user_exns@_0RL_cd_7963219a43724a61_d2000000@@2QBQBDB
?_user_exns@_0RL_cd_7963219a43724a61_d4000000@@2QBQBDB
?_user_exns@_0RL_cd_7963219a43724a61_d8000000@@2QBQBDB
?_user_exns@_0RL_cd_7963219a43724a61_d9000000@@2QBQBDB
?_user_exns@_0RL_cd_7963219a43724a61_e3000000@@2QBQBDB
?_user_exns@_0RL_cd_7963219a43724a61_e6000000@@2QBQBDB
?_user_exns@_0RL_cd_7963219a43724a61_ea000000@@2QBQBDB
?_user_exns@_0RL_cd_7963219a43724a61_f0000000@@2QBQBDB
?_user_exns@_0RL_cd_7963219a43724a61_f1000000@@2QBQBDB
?_user_exns@_0RL_cd_7963219a43724a61_f2000000@@2QBQBDB
?_user_exns@_0RL_cd_7963219a43724a61_f4000000@@2QBQBDB
?_user_exns@_0RL_cd_7963219a43724a61_f8000000@@2QBQBDB
?_user_exns@_0RL_cd_7963219a43724a61_f9000000@@2QBQBDB
?_user_exns@_0RL_cd_7963219a43724a61_fb000000@@2QBQBDB
?_wrongOperation@PollerImpl@omniAMI@@IAEXXZ
?absolute_name@_objref_Contained@CORBA@@QAEPADXZ
?abstract_base_values@_objref_ValueDef@CORBA@@QAEPAVValueDefSeq@2@XZ
?abstract_base_values@_objref_ValueDef@CORBA@@QAEXABVValueDefSeq@2@@Z
?access@_objref_ValueMemberDef@CORBA@@QAEFXZ
?access@_objref_ValueMemberDef@CORBA@@QAEXF@Z
?actualTc@DynAnyImplBase@omni@@QBEPAVTypeCode_base@2@XZ
?actualTc@DynEnumImpl@omni@@QBEPAVTypeCode_enum@2@XZ
?actualTc@DynFixedImpl@omni@@QBEPAVTypeCode_fixed@2@XZ
?actualTc@DynUnionEnumDisc@omni@@QBEPAVTypeCode_enum@2@XZ
?actualTc@DynUnionImpl@omni@@QBEPAVTypeCode_union@2@XZ
?add@ContextListImpl@omni@@UAEXPBD@Z
?add@ExceptionListImpl@omni@@UAEXPAVTypeCode@CORBA@@@Z
?add@InputValueTracker@omni@@AAEXXZ
?add@NVListImpl@omni@@UAEPAVNamedValue@CORBA@@K@Z
?add@OutputValueTracker@omni@@AAEXXZ
?add@TypeCode_alignTable@omni@@QAEXABV12@I@Z
?add@_Tracker@TypeCode@CORBA@@QAEXPAV23@@Z
?add@omniNilCtList@omni@@UAEXPBD@Z
?add@omniNilExList@omni@@UAEXPAVTypeCode@CORBA@@@Z
?add@omniNilNVList@omni@@UAEPAVNamedValue@CORBA@@K@Z
?add@omniTypeCodeCollection@omni@@QAEXPBDPAVTypeCode@CORBA@@@Z
?addChild@ContextImpl@omni@@AAEXPAV12@@Z
?addEntry@TypeCode_offsetTable@omni@@QAEXJPAVTypeCode_base@2@@Z
?addNasty@TypeCode_alignTable@omni@@QAEXPAVTypeCode_base@2@@Z
?addRepoId@InputValueTracker@omni@@QAEXPADJ@Z
?addRepoId@OutputValueTracker@omni@@QAEJPBDKJ@Z
?addRepoIds@InputValueTracker@omni@@QAEXPAU_omni_ValueIds@@J@Z
?addRepoIds@OutputValueTracker@omni@@QAEJPBU_omni_ValueIds@@J@Z
?addSimple@TypeCode_alignTable@omni@@QAEXW4alignment_t@2@I@Z
?addToSet@omniAsyncCallDescriptor@@QAE_NPAVomni_tracedcondition@@@Z
?addValue@InputValueTracker@omni@@QAEXPAVValueBase@CORBA@@J@Z
?addValue@OutputValueTracker@omni@@QAEJPBVValueBase@CORBA@@J@Z
?add_consume@ContextListImpl@omni@@UAEXPAD@Z
?add_consume@ExceptionListImpl@omni@@UAEXPAVTypeCode@CORBA@@@Z
?add_consume@omniNilCtList@omni@@UAEXPAD@Z
?add_consume@omniNilExList@omni@@UAEXPAVTypeCode@CORBA@@@Z
?add_in_arg@RequestImpl@omni@@UAEAAVAny@CORBA@@PBD@Z
?add_in_arg@RequestImpl@omni@@UAEAAVAny@CORBA@@XZ
?add_in_arg@omniNilRequest@omni@@UAEAAVAny@CORBA@@PBD@Z
?add_in_arg@omniNilRequest@omni@@UAEAAVAny@CORBA@@XZ
?add_inout_arg@RequestImpl@omni@@UAEAAVAny@CORBA@@PBD@Z
?add_inout_arg@RequestImpl@omni@@UAEAAVAny@CORBA@@XZ
?add_inout_arg@omniNilRequest@omni@@UAEAAVAny@CORBA@@PBD@Z
?add_inout_arg@omniNilRequest@omni@@UAEAAVAny@CORBA@@XZ
?add_item@NVListImpl@omni@@UAEPAVNamedValue@CORBA@@PBDK@Z
?add_item@omniNilNVList@omni@@UAEPAVNamedValue@CORBA@@PBDK@Z
?add_item_consume@NVListImpl@omni@@UAEPAVNamedValue@CORBA@@PADK@Z
?add_item_consume@omniNilNVList@omni@@UAEPAVNamedValue@CORBA@@PADK@Z
?add_out_arg@RequestImpl@omni@@UAEAAVAny@CORBA@@PBD@Z
?add_out_arg@RequestImpl@omni@@UAEAAVAny@CORBA@@XZ
?add_out_arg@omniNilRequest@omni@@UAEAAVAny@CORBA@@PBD@Z
?add_out_arg@omniNilRequest@omni@@UAEAAVAny@CORBA@@XZ
?add_pollable@PollableSetImpl@omniAMI@@$4PPPPPPPM@A@AEXPAVPollable@CORBA@@@Z
?add_pollable@PollableSetImpl@omniAMI@@UAEXPAVPollable@CORBA@@@Z
?add_pollable@_nil_PollableSet@CORBA@@$4PPPPPPPM@A@AEXPAVPollable@2@@Z
?add_pollable@_nil_PollableSet@CORBA@@UAEXPAVPollable@2@@Z
?add_ref@CORBA@@YAXPAVValueBase@1@@Z
?add_ref@DIIPollable_Helper@CORBA@@SAXPAVDIIPollable@2@@Z
?add_ref@ExceptionHolder_Helper@Messaging@@SAXPAVExceptionHolder@2@@Z
?add_ref@Pollable_Helper@CORBA@@SAXPAVPollable@2@@Z
?add_ref@Poller_Helper@Messaging@@SAXPAVPoller@2@@Z
?add_ref@StringValue_Helper@CORBA@@SAXPAVStringValue@2@@Z
?add_ref@ValueBase_Helper@CORBA@@SAXPAVValueBase@2@@Z
?add_ref@WStringValue_Helper@CORBA@@SAXPAVWStringValue@2@@Z
?add_ref@cdrAnyMemoryStream@@QAEXXZ
?add_value@NVListImpl@omni@@UAEPAVNamedValue@CORBA@@PBDABVAny@4@K@Z
?add_value@omniNilNVList@omni@@UAEPAVNamedValue@CORBA@@PBDABVAny@4@K@Z
?add_value_consume@NVListImpl@omni@@UAEPAVNamedValue@CORBA@@PADPAVAny@4@K@Z
?add_value_consume@omniNilNVList@omni@@UAEPAVNamedValue@CORBA@@PADPAVAny@4@K@Z
?add_values@ContextImpl@omni@@CAXPAV12@KPBDHPAVNVList@CORBA@@@Z
?aliasExpand@TypeCode_base@omni@@SAPAV12@PAV12@@Z
?aliasExpandedTc@TypeCode_base@omni@@QAEPAV12@XZ
?alignInput@cdrStream@@QAEXW4alignment_t@omni@@@Z
?alignOutput@cdrStream@@QAEXW4alignment_t@omni@@@Z
?align_to@omni@@YAKKW4alignment_t@1@@Z
?alignmentTable@TypeCode_base@omni@@QBEABVTypeCode_alignTable@2@XZ
?alloc@_CORBA_String_helper@@SAPADH@Z
?alloc@_CORBA_WString_helper@@SAPA_WH@Z
?allocate@?$omnivector@PAVDynAnyImplBase@omni@@@@AAEPAPAVDynAnyImplBase@omni@@I@Z
?allocbuf@?$_CORBA_PseudoValue_Sequence@PAD@@SAPAPADK@Z
?allocbuf@?$_CORBA_PseudoValue_Sequence@PAVNamedValue@CORBA@@@@SAPAPAVNamedValue@CORBA@@K@Z
?allocbuf@?$_CORBA_PseudoValue_Sequence@PAVTypeCode@CORBA@@@@SAPAPAVTypeCode@CORBA@@K@Z
?allocbuf@?$_CORBA_PseudoValue_Sequence@UEntry@ContextImpl@omni@@@@SAPAUEntry@ContextImpl@omni@@K@Z
?allocbuf@?$_CORBA_PseudoValue_Sequence@UTcUnionMember@TypeCode_union@omni@@@@SAPAUTcUnionMember@TypeCode_union@omni@@K@Z
?allocbuf@?$_CORBA_Sequence@E@@SAPAEK@Z
?allocbuf@?$_CORBA_Sequence@F@@SAPAFK@Z
?allocbuf@?$_CORBA_Sequence@G@@SAPAGK@Z
?allocbuf@?$_CORBA_Sequence@J@@SAPAJK@Z
?allocbuf@?$_CORBA_Sequence@K@@SAPAKK@Z
?allocbuf@?$_CORBA_Sequence@M@@SAPAMK@Z
?allocbuf@?$_CORBA_Sequence@N@@SAPANK@Z
?allocbuf@?$_CORBA_Sequence@UAttributeDescription@CORBA@@@@SAPAUAttributeDescription@CORBA@@K@Z
?allocbuf@?$_CORBA_Sequence@UBinding@CosNaming@@@@SAPAUBinding@CosNaming@@K@Z
?allocbuf@?$_CORBA_Sequence@UDescription@Container@CORBA@@@@SAPAUDescription@Container@CORBA@@K@Z
?allocbuf@?$_CORBA_Sequence@UExceptionDescription@CORBA@@@@SAPAUExceptionDescription@CORBA@@K@Z
?allocbuf@?$_CORBA_Sequence@UInitializer@CORBA@@@@SAPAUInitializer@CORBA@@K@Z
?allocbuf@?$_CORBA_Sequence@UNameComponent@CosNaming@@@@SAPAUNameComponent@CosNaming@@K@Z
?allocbuf@?$_CORBA_Sequence@UNameDynAnyPair@DynamicAny@@@@SAPAUNameDynAnyPair@DynamicAny@@K@Z
?allocbuf@?$_CORBA_Sequence@UNameValuePair@DynamicAny@@@@SAPAUNameValuePair@DynamicAny@@K@Z
?allocbuf@?$_CORBA_Sequence@UOperationDescription@CORBA@@@@SAPAUOperationDescription@CORBA@@K@Z
?allocbuf@?$_CORBA_Sequence@UParameterDescription@CORBA@@@@SAPAUParameterDescription@CORBA@@K@Z
?allocbuf@?$_CORBA_Sequence@UStructMember@CORBA@@@@SAPAUStructMember@CORBA@@K@Z
?allocbuf@?$_CORBA_Sequence@UUnionMember@CORBA@@@@SAPAUUnionMember@CORBA@@K@Z
?allocbuf@?$_CORBA_Sequence@UValueMember@CORBA@@@@SAPAUValueMember@CORBA@@K@Z
?allocbuf@?$_CORBA_Sequence@VAny@CORBA@@@@SAPAVAny@CORBA@@K@Z
?allocbuf@?$_CORBA_Sequence@VTypeCode_member@CORBA@@@@SAPAVTypeCode_member@CORBA@@K@Z
?allocbuf@?$_CORBA_Sequence@_J@@SAPA_JK@Z
?allocbuf@?$_CORBA_Sequence@_K@@SAPA_KK@Z
?allocbuf@?$_CORBA_Sequence@_N@@SAPA_NK@Z
?allocbuf@?$_CORBA_Sequence@_W@@SAPA_WK@Z
?allocbuf@?$_CORBA_Sequence_ObjRef@VDynAny@DynamicAny@@V?$_CORBA_ObjRef_Element@VDynAny@DynamicAny@@VDynAny_Helper@2@@@VDynAny_Helper@2@@@SAPAPAVDynAny@DynamicAny@@K@Z
?allocbuf@?$_CORBA_Sequence_ObjRef@V_objref_AbstractInterfaceDef@CORBA@@V?$_CORBA_ObjRef_Element@V_objref_AbstractInterfaceDef@CORBA@@VAbstractInterfaceDef_Helper@2@@@VAbstractInterfaceDef_Helper@2@@@SAPAPAV_objref_AbstractInterfaceDef@CORBA@@K@Z
?allocbuf@?$_CORBA_Sequence_ObjRef@V_objref_Contained@CORBA@@V?$_CORBA_ObjRef_Element@V_objref_Contained@CORBA@@VContained_Helper@2@@@VContained_Helper@2@@@SAPAPAV_objref_Contained@CORBA@@K@Z
?allocbuf@?$_CORBA_Sequence_ObjRef@V_objref_ExceptionDef@CORBA@@V?$_CORBA_ObjRef_Element@V_objref_ExceptionDef@CORBA@@VExceptionDef_Helper@2@@@VExceptionDef_Helper@2@@@SAPAPAV_objref_ExceptionDef@CORBA@@K@Z
?allocbuf@?$_CORBA_Sequence_ObjRef@V_objref_InterfaceDef@CORBA@@V?$_CORBA_ObjRef_Element@V_objref_InterfaceDef@CORBA@@VInterfaceDef_Helper@2@@@VInterfaceDef_Helper@2@@@SAPAPAV_objref_InterfaceDef@CORBA@@K@Z
?allocbuf@?$_CORBA_Sequence_ObjRef@V_objref_ValueDef@CORBA@@V?$_CORBA_ObjRef_Element@V_objref_ValueDef@CORBA@@VValueDef_Helper@2@@@VValueDef_Helper@2@@@SAPAPAV_objref_ValueDef@CORBA@@K@Z
?allocbuf@?$_CORBA_Sequence_Value@VPollerImpl@omniAMI@@V?$_CORBA_Value_Element@VPollerImpl@omniAMI@@VPoller_Helper@Messaging@@@@VPoller_Helper@Messaging@@@@SAPAPAVPollerImpl@omniAMI@@K@Z
?allocbuf@?$_CORBA_Sequence_Value@VValueBase@CORBA@@V?$_CORBA_Value_Element@VValueBase@CORBA@@VValueBase_Helper@2@@@VValueBase_Helper@2@@@SAPAPAVValueBase@CORBA@@K@Z
?allocbuf@_CORBA_Sequence_String@@SAPAPADK@Z
?allocbuf@_CORBA_Sequence_WString@@SAPAPA_WK@Z
?arguments@DIICallDescriptor@omni@@QBEPAVNVList@CORBA@@XZ
?arguments@RequestImpl@omni@@UAEPAVNVList@CORBA@@XZ
?arguments@omniNilRequest@omni@@UAEPAVNVList@CORBA@@XZ
?arguments@omniServerRequest@omni@@UAEXAAPAVNVList@CORBA@@@Z
?assign@DynAnyConstrBase@omni@@$4PPPPPPPM@7AEXPAVDynAny@DynamicAny@@@Z
?assign@DynAnyConstrBase@omni@@$4PPPPPPPM@A@AEXPAVDynAny@DynamicAny@@@Z
?assign@DynAnyConstrBase@omni@@$4PPPPPPPM@CM@AEXPAVDynAny@DynamicAny@@@Z
?assign@DynAnyConstrBase@omni@@$4PPPPPPPM@M@AEXPAVDynAny@DynamicAny@@@Z
?assign@DynAnyConstrBase@omni@@UAEXPAVDynAny@DynamicAny@@@Z
?assign@DynAnyImpl@omni@@$4PPPPPPPM@7AEXPAVDynAny@DynamicAny@@@Z
?assign@DynAnyImpl@omni@@$4PPPPPPPM@A@AEXPAVDynAny@DynamicAny@@@Z
?assign@DynAnyImpl@omni@@UAEXPAVDynAny@DynamicAny@@@Z
?assign@DynUnionDisc@omni@@$4PPPPPPPM@7AEXPAVDynAny@DynamicAny@@@Z
?assign@DynUnionDisc@omni@@$4PPPPPPPM@A@AEXPAVDynAny@DynamicAny@@@Z
?assign@DynUnionDisc@omni@@UAEXPAVDynAny@DynamicAny@@@Z
?assign@DynUnionImpl@omni@@$4PPPPPPPM@A@AEXPAVDynAny@DynamicAny@@@Z
?assign@DynUnionImpl@omni@@UAEXPAVDynAny@DynamicAny@@@Z
?assign@omniNilDynAny@omni@@$4PPPPPPPM@A@AEXPAVDynAny@DynamicAny@@@Z
?assign@omniNilDynAny@omni@@UAEXPAVDynAny@DynamicAny@@@Z
?associated_handler@PollerImpl@omniAMI@@$4PPPPPPPM@A@AEPAV_objref_ReplyHandler@Messaging@@XZ
?associated_handler@PollerImpl@omniAMI@@$4PPPPPPPM@A@AEXPAV_objref_ReplyHandler@Messaging@@@Z
?associated_handler@PollerImpl@omniAMI@@UAEPAV_objref_ReplyHandler@Messaging@@XZ
?associated_handler@PollerImpl@omniAMI@@UAEXPAV_objref_ReplyHandler@Messaging@@@Z
?attach@DynAnyImplBase@omni@@QAEXXZ
?attach@dynException_Singleton@@QAEXXZ
?attach@omni_dynAny_initialiser@omni@@UAEXXZ
?attach@omni_valueFactory_initialiser@omni@@UAEXXZ
?base_interfaces@_objref_InterfaceDef@CORBA@@QAEPAVInterfaceDefSeq@2@XZ
?base_interfaces@_objref_InterfaceDef@CORBA@@QAEXABVInterfaceDefSeq@2@@Z
?base_value@_objref_ValueDef@CORBA@@QAEPAV12@XZ
?base_value@_objref_ValueDef@CORBA@@QAEXPAV12@@Z
?bound@_objref_SequenceDef@CORBA@@QAEKXZ
?bound@_objref_SequenceDef@CORBA@@QAEXK@Z
?bound@_objref_StringDef@CORBA@@QAEKXZ
?bound@_objref_StringDef@CORBA@@QAEXK@Z
?bound@_objref_WstringDef@CORBA@@QAEKXZ
?bound@_objref_WstringDef@CORBA@@QAEXK@Z
?bufPtr@cdrMemoryStream@@QBEPAXXZ
?bufSize@cdrMemoryStream@@QBEKXZ
?byteSwap@cdrStream@@SAFF@Z
?byteSwap@cdrStream@@SAGG@Z
?byteSwap@cdrStream@@SAJJ@Z
?byteSwap@cdrStream@@SAKK@Z
?byteSwap@cdrStream@@SA_J_J@Z
?byteSwap@cdrStream@@SA_K_K@Z
?callDescriptor@omniCurrent@@QAEPAVomniCallDescriptor@@XZ
?call_desc@omniCallHandle@@QBEPAVomniCallDescriptor@@XZ
?calldesc@omniServerRequest@omni@@QAEPAVserverRequestCallDescriptor@2@XZ
?canAppendComponent@DynAnyConstrBase@omni@@IBE_NI@Z
?capacity@?$omnivector@PAVDynAnyImplBase@omni@@@@QBEIXZ
?checkInternalRefs@TypeCode_collector@omni@@CA_NPAVTypeCode_base@2@K@Z
?check_context_name@ContextImpl@omni@@AAEXPBD@Z
?check_property_name@ContextImpl@omni@@AAEXPBD@Z
?clear@Environment@CORBA@@UAEXXZ
?clear@omniNilEnv@omni@@UAEXXZ
?complete@TypeCode_base@omni@@QAE_NXZ
?completeCallback@DIICallDescriptor@omni@@UAEXXZ
?completed@SystemException@CORBA@@QBE?AW4CompletionStatus@2@XZ
?component_count@DynAnyConstrBase@omni@@$4PPPPPPPM@7AEKXZ
?component_count@DynAnyConstrBase@omni@@$4PPPPPPPM@A@AEKXZ
?component_count@DynAnyConstrBase@omni@@$4PPPPPPPM@CM@AEKXZ
?component_count@DynAnyConstrBase@omni@@$4PPPPPPPM@M@AEKXZ
?component_count@DynAnyConstrBase@omni@@UAEKXZ
?component_count@DynAnyImpl@omni@@$4PPPPPPPM@3AEKXZ
?component_count@DynAnyImpl@omni@@$4PPPPPPPM@7AEKXZ
?component_count@DynAnyImpl@omni@@$4PPPPPPPM@A@AEKXZ
?component_count@DynAnyImpl@omni@@$4PPPPPPPM@M@AEKXZ
?component_count@DynAnyImpl@omni@@UAEKXZ
?component_count@DynUnionImpl@omni@@$4PPPPPPPM@A@AEKXZ
?component_count@DynUnionImpl@omni@@UAEKXZ
?component_count@omniNilDynAny@omni@@$4PPPPPPPM@A@AEKXZ
?component_count@omniNilDynAny@omni@@UAEKXZ
?component_from_any@DynAnyConstrBase@omni@@IAEHIABVAny@CORBA@@@Z
?component_to_any@DynAnyConstrBase@omni@@IAEHIAAVAny@CORBA@@@Z
?concrete_base_type@TypeCode@CORBA@@QBEPAV12@XZ
?containing_repository@_objref_Contained@CORBA@@QAEPAV_objref_Repository@2@XZ
?contains@TypeCode_pairlist@omni@@SAHPBV12@PBVTypeCode_base@2@1@Z
?content_type@TypeCode@CORBA@@QBEPAV12@XZ
?contents@_objref_Container@CORBA@@QAEPAVContainedSeq@2@W4DefinitionKind@2@_N@Z
?context@DIICallDescriptor@omni@@QAEXPAVContext@CORBA@@@Z
?context@DIICallDescriptor@omni@@QBEPAVContext@CORBA@@XZ
?context_name@ContextImpl@omni@@UBEPBDXZ
?context_name@omniNilContext@omni@@UBEPBDXZ
?contexts@DIICallDescriptor@omni@@QAEPAVContextList@CORBA@@XZ
?contexts@RequestImpl@omni@@UAEPAVContextList@CORBA@@XZ
?contexts@_objref_OperationDef@CORBA@@QAEPAVContextIdSeq@2@XZ
?contexts@_objref_OperationDef@CORBA@@QAEXABVContextIdSeq@2@@Z
?contexts@omniNilRequest@omni@@UAEPAVContextList@CORBA@@XZ
?copy@DynAnyImpl@omni@@$4PPPPPPPM@3AEPAVDynAny@DynamicAny@@XZ
?copy@DynAnyImpl@omni@@$4PPPPPPPM@A@AEPAVDynAny@DynamicAny@@XZ
?copy@DynAnyImpl@omni@@UAEPAVDynAny@DynamicAny@@XZ
?copy@DynArrayImpl@omni@@$4PPPPPPPM@A@AEPAVDynAny@DynamicAny@@XZ
?copy@DynArrayImpl@omni@@UAEPAVDynAny@DynamicAny@@XZ
?copy@DynEnumImpl@omni@@$4PPPPPPPM@A@AEPAVDynAny@DynamicAny@@XZ
?copy@DynEnumImpl@omni@@UAEPAVDynAny@DynamicAny@@XZ
?copy@DynFixedImpl@omni@@$4PPPPPPPM@A@AEPAVDynAny@DynamicAny@@XZ
?copy@DynFixedImpl@omni@@UAEPAVDynAny@DynamicAny@@XZ
?copy@DynSequenceImpl@omni@@$4PPPPPPPM@A@AEPAVDynAny@DynamicAny@@XZ
?copy@DynSequenceImpl@omni@@UAEPAVDynAny@DynamicAny@@XZ
?copy@DynStructImpl@omni@@$4PPPPPPPM@A@AEPAVDynAny@DynamicAny@@XZ
?copy@DynStructImpl@omni@@UAEPAVDynAny@DynamicAny@@XZ
?copy@DynUnionEnumDisc@omni@@$4PPPPPPPM@A@AEPAVDynAny@DynamicAny@@XZ
?copy@DynUnionEnumDisc@omni@@UAEPAVDynAny@DynamicAny@@XZ
?copy@DynUnionImpl@omni@@$4PPPPPPPM@A@AEPAVDynAny@DynamicAny@@XZ
?copy@DynUnionImpl@omni@@UAEPAVDynAny@DynamicAny@@XZ
?copy@DynValueBoxImpl@omni@@$4PPPPPPPM@A@AEPAVDynAny@DynamicAny@@XZ
?copy@DynValueBoxImpl@omni@@UAEPAVDynAny@DynamicAny@@XZ
?copy@DynValueImpl@omni@@$4PPPPPPPM@A@AEPAVDynAny@DynamicAny@@XZ
?copy@DynValueImpl@omni@@UAEPAVDynAny@DynamicAny@@XZ
?copy@omniNilDynAny@omni@@$4PPPPPPPM@A@AEPAVDynAny@DynamicAny@@XZ
?copy@omniNilDynAny@omni@@UAEPAVDynAny@DynamicAny@@XZ
?copyMemStreamToStream_rdonly@tcParser@omni@@YAXQAVTypeCode@CORBA@@ABVcdrAnyMemoryStream@@AAVcdrStream@@@Z
?copyStateFromActual@cdrValueChunkStream@@QAEXXZ
?copyStreamToMemStream_flush@tcParser@omni@@YAXQAVTypeCode@CORBA@@AAVcdrStream@@AAVcdrAnyMemoryStream@@@Z
?copyStreamToStream@tcParser@omni@@YAXQAVTypeCode@CORBA@@AAVcdrStream@@1@Z
?copyUsingTC@omni@@YAXPAVTypeCode_base@1@AAVcdrStream@@1@Z
?copy_from@DynAnyConstrBase@omni@@UAEHAAVcdrAnyMemoryStream@@@Z
?copy_from@DynAnyImpl@omni@@UAEHAAVcdrAnyMemoryStream@@@Z
?copy_from@DynSequenceImpl@omni@@UAEHAAVcdrAnyMemoryStream@@@Z
?copy_from@DynUnionImpl@omni@@UAEHAAVcdrAnyMemoryStream@@@Z
?copy_from@DynValueBoxImpl@omni@@UAEHAAVcdrAnyMemoryStream@@@Z
?copy_from@DynValueImpl@omni@@UAEHAAVcdrAnyMemoryStream@@@Z
?copy_to@DynAnyConstrBase@omni@@UAEHAAVcdrAnyMemoryStream@@@Z
?copy_to@DynAnyImpl@omni@@UAEHAAVcdrAnyMemoryStream@@@Z
?copy_to@DynSequenceImpl@omni@@UAEHAAVcdrAnyMemoryStream@@@Z
?copy_to@DynUnionImpl@omni@@UAEHAAVcdrAnyMemoryStream@@@Z
?copy_to@DynValueBoxImpl@omni@@UAEHAAVcdrAnyMemoryStream@@@Z
?copy_to@DynValueImpl@omni@@UAEHAAVcdrAnyMemoryStream@@@Z
?copybuffer@?$_CORBA_Sequence@E@@IAEXK@Z
?copybuffer@?$_CORBA_Sequence@F@@IAEXK@Z
?copybuffer@?$_CORBA_Sequence@G@@IAEXK@Z
?copybuffer@?$_CORBA_Sequence@J@@IAEXK@Z
?copybuffer@?$_CORBA_Sequence@K@@IAEXK@Z
?copybuffer@?$_CORBA_Sequence@M@@IAEXK@Z
?copybuffer@?$_CORBA_Sequence@N@@IAEXK@Z
?copybuffer@?$_CORBA_Sequence@UAttributeDescription@CORBA@@@@IAEXK@Z
?copybuffer@?$_CORBA_Sequence@UBinding@CosNaming@@@@IAEXK@Z
?copybuffer@?$_CORBA_Sequence@UDescription@Container@CORBA@@@@IAEXK@Z
?copybuffer@?$_CORBA_Sequence@UExceptionDescription@CORBA@@@@IAEXK@Z
?copybuffer@?$_CORBA_Sequence@UInitializer@CORBA@@@@IAEXK@Z
?copybuffer@?$_CORBA_Sequence@UNameComponent@CosNaming@@@@IAEXK@Z
?copybuffer@?$_CORBA_Sequence@UNameDynAnyPair@DynamicAny@@@@IAEXK@Z
?copybuffer@?$_CORBA_Sequence@UNameValuePair@DynamicAny@@@@IAEXK@Z
?copybuffer@?$_CORBA_Sequence@UOperationDescription@CORBA@@@@IAEXK@Z
?copybuffer@?$_CORBA_Sequence@UParameterDescription@CORBA@@@@IAEXK@Z
?copybuffer@?$_CORBA_Sequence@UStructMember@CORBA@@@@IAEXK@Z
?copybuffer@?$_CORBA_Sequence@UUnionMember@CORBA@@@@IAEXK@Z
?copybuffer@?$_CORBA_Sequence@UValueMember@CORBA@@@@IAEXK@Z
?copybuffer@?$_CORBA_Sequence@VAny@CORBA@@@@IAEXK@Z
?copybuffer@?$_CORBA_Sequence@VTypeCode_member@CORBA@@@@IAEXK@Z
?copybuffer@?$_CORBA_Sequence@_J@@IAEXK@Z
?copybuffer@?$_CORBA_Sequence@_K@@IAEXK@Z
?copybuffer@?$_CORBA_Sequence@_N@@IAEXK@Z
?copybuffer@?$_CORBA_Sequence@_W@@IAEXK@Z
?copybuffer@?$_CORBA_Sequence_ObjRef@VDynAny@DynamicAny@@V?$_CORBA_ObjRef_Element@VDynAny@DynamicAny@@VDynAny_Helper@2@@@VDynAny_Helper@2@@@IAEXK@Z
?copybuffer@?$_CORBA_Sequence_ObjRef@V_objref_AbstractInterfaceDef@CORBA@@V?$_CORBA_ObjRef_Element@V_objref_AbstractInterfaceDef@CORBA@@VAbstractInterfaceDef_Helper@2@@@VAbstractInterfaceDef_Helper@2@@@IAEXK@Z
?copybuffer@?$_CORBA_Sequence_ObjRef@V_objref_Contained@CORBA@@V?$_CORBA_ObjRef_Element@V_objref_Contained@CORBA@@VContained_Helper@2@@@VContained_Helper@2@@@IAEXK@Z
?copybuffer@?$_CORBA_Sequence_ObjRef@V_objref_ExceptionDef@CORBA@@V?$_CORBA_ObjRef_Element@V_objref_ExceptionDef@CORBA@@VExceptionDef_Helper@2@@@VExceptionDef_Helper@2@@@IAEXK@Z
?copybuffer@?$_CORBA_Sequence_ObjRef@V_objref_InterfaceDef@CORBA@@V?$_CORBA_ObjRef_Element@V_objref_InterfaceDef@CORBA@@VInterfaceDef_Helper@2@@@VInterfaceDef_Helper@2@@@IAEXK@Z
?copybuffer@?$_CORBA_Sequence_ObjRef@V_objref_ValueDef@CORBA@@V?$_CORBA_ObjRef_Element@V_objref_ValueDef@CORBA@@VValueDef_Helper@2@@@VValueDef_Helper@2@@@IAEXK@Z
?copybuffer@?$_CORBA_Sequence_Value@VPollerImpl@omniAMI@@V?$_CORBA_Value_Element@VPollerImpl@omniAMI@@VPoller_Helper@Messaging@@@@VPoller_Helper@Messaging@@@@IAEXK@Z
?copybuffer@?$_CORBA_Sequence_Value@VValueBase@CORBA@@V?$_CORBA_Value_Element@VValueBase@CORBA@@VValueBase_Helper@2@@@VValueBase_Helper@2@@@IAEXK@Z
?copybuffer@_CORBA_Sequence_String@@AAEXK@Z
?copybuffer@_CORBA_Sequence_WString@@AAEXK@Z
?count@ContextListImpl@omni@@UBEKXZ
?count@ExceptionListImpl@omni@@UBEKXZ
?count@NVListImpl@omni@@UBEKXZ
?count@omniNilCtList@omni@@UBEKXZ
?count@omniNilExList@omni@@UBEKXZ
?count@omniNilNVList@omni@@UBEKXZ
?countInternalRefs@TypeCode_collector@omni@@CAXPAVTypeCode_base@2@@Z
?cpy@_CORBA_WString_helper@@SAXPA_WPB_W@Z
?createComponent@DynAnyConstrBase@omni@@IAEXI@Z
?create_abstract_interface@_objref_Container@CORBA@@QAEPAV_objref_AbstractInterfaceDef@2@PBD00ABVAbstractInterfaceDefSeq@2@@Z
?create_alias@_objref_Container@CORBA@@QAEPAV_objref_AliasDef@2@PBD00PAV_objref_IDLType@2@@Z
?create_alias_tc@ORB@CORBA@@QAEPAVTypeCode@2@PBD0PAV32@@Z
?create_array@_objref_Repository@CORBA@@QAEPAV_objref_ArrayDef@2@KPAV_objref_IDLType@2@@Z
?create_array_tc@ORB@CORBA@@QAEPAVTypeCode@2@KPAV32@@Z
?create_attribute@_objref_InterfaceDef@CORBA@@QAEPAV_objref_AttributeDef@2@PBD00PAV_objref_IDLType@2@W4AttributeMode@2@@Z
?create_attribute@_objref_ValueDef@CORBA@@QAEPAV_objref_AttributeDef@2@PBD00PAV_objref_IDLType@2@W4AttributeMode@2@@Z
?create_child@ContextImpl@omni@@UAEXPBDV?$_CORBA_PseudoObj_Out@VContext@CORBA@@V?$_CORBA_PseudoObj_Var@VContext@CORBA@@@@@@@Z
?create_child@omniNilContext@omni@@UAEXPBDV?$_CORBA_PseudoObj_Out@VContext@CORBA@@V?$_CORBA_PseudoObj_Var@VContext@CORBA@@@@@@@Z
?create_constant@_objref_Container@CORBA@@QAEPAV_objref_ConstantDef@2@PBD00PAV_objref_IDLType@2@ABVAny@2@@Z
?create_context_list@ORB@CORBA@@QAEXV?$_CORBA_PseudoObj_Out@VContextList@CORBA@@V?$_CORBA_PseudoObj_Var@VContextList@CORBA@@@@@@@Z
?create_dii_pollable@PollableSetImpl@omniAMI@@$4PPPPPPPM@A@AEPAVDIIPollable@CORBA@@XZ
?create_dii_pollable@PollableSetImpl@omniAMI@@UAEPAVDIIPollable@CORBA@@XZ
?create_dii_pollable@_nil_PollableSet@CORBA@@$4PPPPPPPM@A@AEPAVDIIPollable@2@XZ
?create_dii_pollable@_nil_PollableSet@CORBA@@UAEPAVDIIPollable@2@XZ
?create_dyn_any@DynAnyFactoryImpl@omni@@UAEPAVDynAny@DynamicAny@@ABVAny@CORBA@@@Z
?create_dyn_any@omniNilDynAnyFactory@omni@@$4PPPPPPPM@A@AEPAVDynAny@DynamicAny@@ABVAny@CORBA@@@Z
?create_dyn_any@omniNilDynAnyFactory@omni@@UAEPAVDynAny@DynamicAny@@ABVAny@CORBA@@@Z
?create_dyn_any_from_type_code@DynAnyFactoryImpl@omni@@UAEPAVDynAny@DynamicAny@@PAVTypeCode@CORBA@@@Z
?create_dyn_any_from_type_code@omniNilDynAnyFactory@omni@@$4PPPPPPPM@A@AEPAVDynAny@DynamicAny@@PAVTypeCode@CORBA@@@Z
?create_dyn_any_from_type_code@omniNilDynAnyFactory@omni@@UAEPAVDynAny@DynamicAny@@PAVTypeCode@CORBA@@@Z
?create_enum@_objref_Container@CORBA@@QAEPAV_objref_EnumDef@2@PBD00ABVEnumMemberSeq@2@@Z
?create_enum_tc@ORB@CORBA@@QAEPAVTypeCode@2@PBD0ABVEnumMemberSeq@2@@Z
?create_environment@ORB@CORBA@@QAEXV?$_CORBA_PseudoObj_Out@VEnvironment@CORBA@@V?$_CORBA_PseudoObj_Var@VEnvironment@CORBA@@@@@@@Z
?create_exception@_objref_Container@CORBA@@QAEPAV_objref_ExceptionDef@2@PBD00ABVStructMemberSeq@2@@Z
?create_exception_list@ORB@CORBA@@QAEXV?$_CORBA_PseudoObj_Out@VExceptionList@CORBA@@V?$_CORBA_PseudoObj_Var@VExceptionList@CORBA@@@@@@@Z
?create_exception_tc@ORB@CORBA@@QAEPAVTypeCode@2@PBD0ABVStructMemberSeq@2@@Z
?create_fixed@_objref_Repository@CORBA@@QAEPAV_objref_FixedDef@2@GF@Z
?create_fixed_tc@ORB@CORBA@@QAEPAVTypeCode@2@GF@Z
?create_for_unmarshal@_0RL_CORBA_StringValue_init@@UAEPAVValueBase@CORBA@@XZ
?create_for_unmarshal@_0RL_CORBA_WStringValue_init@@UAEPAVValueBase@CORBA@@XZ
?create_for_unmarshal@_omni_ValueFactoryManager@@SAPAVValueBase@CORBA@@PBDK@Z
?create_interface@_objref_Container@CORBA@@QAEPAV_objref_InterfaceDef@2@PBD00ABVInterfaceDefSeq@2@@Z
?create_interface_tc@ORB@CORBA@@QAEPAVTypeCode@2@PBD0@Z
?create_list@ORB@CORBA@@QAEXJV?$_CORBA_PseudoObj_Out@VNVList@CORBA@@V?$_CORBA_PseudoObj_Var@VNVList@CORBA@@@@@@@Z
?create_module@_objref_Container@CORBA@@QAEPAV_objref_ModuleDef@2@PBD00@Z
?create_named_value@ORB@CORBA@@QAEXV?$_CORBA_PseudoObj_Out@VNamedValue@CORBA@@V?$_CORBA_PseudoObj_Var@VNamedValue@CORBA@@@@@@@Z
?create_native@_objref_Container@CORBA@@QAEPAV_objref_NativeDef@2@PBD00@Z
?create_operation@_objref_InterfaceDef@CORBA@@QAEPAV_objref_OperationDef@2@PBD00PAV_objref_IDLType@2@W4OperationMode@2@ABVParDescriptionSeq@2@ABVExceptionDefSeq@2@ABVContextIdSeq@2@@Z
?create_operation@_objref_ValueDef@CORBA@@QAEPAV_objref_OperationDef@2@PBD00PAV_objref_IDLType@2@W4OperationMode@2@ABVParDescriptionSeq@2@ABVExceptionDefSeq@2@ABVContextIdSeq@2@@Z
?create_operation_list@ORB@CORBA@@QAEXPAV_objref_OperationDef@2@V?$_CORBA_PseudoObj_Out@VNVList@CORBA@@V?$_CORBA_PseudoObj_Var@VNVList@CORBA@@@@@@@Z
?create_policy@ORB@CORBA@@QAEPAVPolicy@2@KABVAny@2@@Z
?create_pollable_set@DIIPollableImpl@omniAMI@@$4PPPPPPPM@A@AEPAVPollableSet@CORBA@@XZ
?create_pollable_set@DIIPollableImpl@omniAMI@@UAEPAVPollableSet@CORBA@@XZ
?create_pollable_set@PollerImpl@omniAMI@@$4PPPPPPPM@A@AEPAVPollableSet@CORBA@@XZ
?create_pollable_set@PollerImpl@omniAMI@@UAEPAVPollableSet@CORBA@@XZ
?create_recursive_sequence_tc@ORB@CORBA@@QAEPAVTypeCode@2@KK@Z
?create_recursive_tc@ORB@CORBA@@QAEPAVTypeCode@2@PBD@Z
?create_sequence@_objref_Repository@CORBA@@QAEPAV_objref_SequenceDef@2@KPAV_objref_IDLType@2@@Z
?create_sequence_tc@ORB@CORBA@@QAEPAVTypeCode@2@KPAV32@@Z
?create_string@_objref_Repository@CORBA@@QAEPAV_objref_StringDef@2@K@Z
?create_string_tc@ORB@CORBA@@QAEPAVTypeCode@2@K@Z
?create_struct@_objref_Container@CORBA@@QAEPAV_objref_StructDef@2@PBD00ABVStructMemberSeq@2@@Z
?create_struct_tc@ORB@CORBA@@QAEPAVTypeCode@2@PBD0ABVStructMemberSeq@2@@Z
?create_union@_objref_Container@CORBA@@QAEPAV_objref_UnionDef@2@PBD00PAV_objref_IDLType@2@ABVUnionMemberSeq@2@@Z
?create_union_tc@ORB@CORBA@@QAEPAVTypeCode@2@PBD0PAV32@ABVUnionMemberSeq@2@@Z
?create_value@_objref_Container@CORBA@@QAEPAV_objref_ValueDef@2@PBD00_N1PAV32@1ABVValueDefSeq@2@ABVInterfaceDefSeq@2@ABVInitializerSeq@2@@Z
?create_value_box@_objref_Container@CORBA@@QAEPAV_objref_ValueBoxDef@2@PBD00PAV_objref_IDLType@2@@Z
?create_value_box_tc@ORB@CORBA@@QAEPAVTypeCode@2@PBD0PAV32@@Z
?create_value_member@_objref_ValueDef@CORBA@@QAEPAV_objref_ValueMemberDef@2@PBD00PAV_objref_IDLType@2@F@Z
?create_value_tc@ORB@CORBA@@QAEPAVTypeCode@2@PBD0FPAV32@ABVValueMemberSeq@2@@Z
?create_wstring@_objref_Repository@CORBA@@QAEPAV_objref_WstringDef@2@K@Z
?create_wstring_tc@ORB@CORBA@@QAEPAVTypeCode@2@K@Z
?ctx@RequestImpl@omni@@UAEXPAVContext@CORBA@@@Z
?ctx@RequestImpl@omni@@UBEPAVContext@CORBA@@XZ
?ctx@omniNilRequest@omni@@UAEXPAVContext@CORBA@@@Z
?ctx@omniNilRequest@omni@@UBEPAVContext@CORBA@@XZ
?ctx@omniServerRequest@omni@@UAEPAVContext@CORBA@@XZ
?currentKind@DynAnyConstrBase@omni@@IAE?AW4TCKind@CORBA@@XZ
?currentOffset@TypeCode_offsetTable@omni@@QAEJXZ
?current_component@DynAnyConstrBase@omni@@$4PPPPPPPM@7AEPAVDynAny@DynamicAny@@XZ
?current_component@DynAnyConstrBase@omni@@$4PPPPPPPM@A@AEPAVDynAny@DynamicAny@@XZ
?current_component@DynAnyConstrBase@omni@@$4PPPPPPPM@CM@AEPAVDynAny@DynamicAny@@XZ
?current_component@DynAnyConstrBase@omni@@$4PPPPPPPM@M@AEPAVDynAny@DynamicAny@@XZ
?current_component@DynAnyConstrBase@omni@@UAEPAVDynAny@DynamicAny@@XZ
?current_component@DynAnyImpl@omni@@$4PPPPPPPM@3AEPAVDynAny@DynamicAny@@XZ
?current_component@DynAnyImpl@omni@@$4PPPPPPPM@7AEPAVDynAny@DynamicAny@@XZ
?current_component@DynAnyImpl@omni@@$4PPPPPPPM@A@AEPAVDynAny@DynamicAny@@XZ
?current_component@DynAnyImpl@omni@@$4PPPPPPPM@M@AEPAVDynAny@DynamicAny@@XZ
?current_component@DynAnyImpl@omni@@UAEPAVDynAny@DynamicAny@@XZ
?current_component@DynUnionImpl@omni@@$4PPPPPPPM@A@AEPAVDynAny@DynamicAny@@XZ
?current_component@DynUnionImpl@omni@@UAEPAVDynAny@DynamicAny@@XZ
?current_component@omniNilDynAny@omni@@$4PPPPPPPM@A@AEPAVDynAny@DynamicAny@@XZ
?current_component@omniNilDynAny@omni@@UAEPAVDynAny@DynamicAny@@XZ
?current_member_kind@DynStructImpl@omni@@UAE?AW4TCKind@CORBA@@XZ
?current_member_kind@DynValueImpl@omni@@UAE?AW4TCKind@CORBA@@XZ
?current_member_kind@omniNilDynStruct@omni@@UAE?AW4TCKind@CORBA@@XZ
?current_member_kind@omniNilDynValue@omni@@UAE?AW4TCKind@CORBA@@XZ
?current_member_name@DynStructImpl@omni@@UAEPADXZ
?current_member_name@DynValueImpl@omni@@UAEPADXZ
?current_member_name@omniNilDynStruct@omni@@UAEPADXZ
?current_member_name@omniNilDynValue@omni@@UAEPADXZ
?dealloc@_CORBA_String_helper@@SAXPAD@Z
?dealloc@_CORBA_WString_helper@@SAXPA_W@Z
?deallocate@?$omnivector@PAVDynAnyImplBase@omni@@@@AAEXXZ
?dec@omni_refcount@@QAEHXZ
?decrRefCount@ContextImpl@omni@@QAEXXZ
?decrRefCount@PseudoObjBase@omni@@QAEXXZ
?def_kind@_objref_IRObject@CORBA@@QAE?AW4DefinitionKind@2@XZ
?default_index@TypeCode@CORBA@@QBEJXZ
?defined_in@_objref_Contained@CORBA@@QAEPAV_objref_Container@2@XZ
?delete_values@ContextImpl@omni@@UAEXPBD@Z
?delete_values@omniNilContext@omni@@UAEXPBD@Z
?describe@_objref_Contained@CORBA@@QAEPAUDescription@Contained@2@XZ
?describe_contents@_objref_Container@CORBA@@QAEPAVDescriptionSeq@Container@2@W4DefinitionKind@2@_NJ@Z
?describe_interface@_objref_InterfaceDef@CORBA@@QAEPAUFullInterfaceDescription@InterfaceDef@2@XZ
?describe_value@_objref_ValueDef@CORBA@@QAEPAUFullValueDescription@ValueDef@2@XZ
?destroy@DynAnyImplBase@omni@@$4PPPPPPPM@3AEXXZ
?destroy@DynAnyImplBase@omni@@$4PPPPPPPM@7AEXXZ
?destroy@DynAnyImplBase@omni@@$4PPPPPPPM@A@AEXXZ
?destroy@DynAnyImplBase@omni@@$4PPPPPPPM@BA@AEXXZ
?destroy@DynAnyImplBase@omni@@$4PPPPPPPM@CE@AEXXZ
?destroy@DynAnyImplBase@omni@@$4PPPPPPPM@CM@AEXXZ
?destroy@DynAnyImplBase@omni@@$4PPPPPPPM@DA@AEXXZ
?destroy@DynAnyImplBase@omni@@$4PPPPPPPM@FA@AEXXZ
?destroy@DynAnyImplBase@omni@@$4PPPPPPPM@M@AEXXZ
?destroy@DynAnyImplBase@omni@@UAEXXZ
?destroy@_objref_IRObject@CORBA@@QAEXXZ
?destroy@omniNilDynAny@omni@@$4PPPPPPPM@A@AEXXZ
?destroy@omniNilDynAny@omni@@UAEXXZ
?destroyed@DynAnyImplBase@omni@@QBE_NXZ
?detach@DynAnyImplBase@omni@@QAEXXZ
?detach@DynUnionDisc@omni@@QAEXXZ
?detach@omni_dynAny_initialiser@omni@@UAEXXZ
?detach@omni_valueFactory_initialiser@omni@@UAEXXZ
?detachMember@DynUnionImpl@omni@@AAEXXZ
?digits@_objref_FixedDef@CORBA@@QAEGXZ
?digits@_objref_FixedDef@CORBA@@QAEXG@Z
?discriminatorHasChanged@DynUnionImpl@omni@@QAEXXZ
?discriminator_kind@DynUnionImpl@omni@@UAE?AW4TCKind@CORBA@@XZ
?discriminator_kind@omniNilDynUnion@omni@@UAE?AW4TCKind@CORBA@@XZ
?discriminator_type@TypeCode@CORBA@@QBEPAV12@XZ
?discriminator_type@_objref_UnionDef@CORBA@@QAEPAVTypeCode@2@XZ
?discriminator_type_def@_objref_UnionDef@CORBA@@QAEPAV_objref_IDLType@2@XZ
?discriminator_type_def@_objref_UnionDef@CORBA@@QAEXPAV_objref_IDLType@2@@Z
?doRead@DynAnyImpl@omni@@IAEAAVcdrAnyMemoryStream@@W4TCKind@CORBA@@@Z
?doWrite@DynAnyImpl@omni@@IAEAAVcdrAnyMemoryStream@@W4TCKind@CORBA@@@Z
?do_reply@omniServerRequest@omni@@QAEXXZ
?downcast@GIOP_C@omni@@SAPAV12@PAVcdrStream@@@Z
?downcast@GIOP_S@omni@@SAPAV12@PAVcdrStream@@@Z
?downcast@cdrAnyMemoryStream@@SAPAV1@PAVcdrStream@@@Z
?downcast@cdrValueChunkStream@@SAPAV1@PAVcdrStream@@@Z
?downcast@giopStream@omni@@SAPAV12@PAVcdrStream@@@Z
?dup@_CORBA_String_helper@@SAPADPBD@Z
?dup@_CORBA_WString_helper@@SAPA_WPB_W@Z
?duplicate@AbstractInterfaceDef_Helper@CORBA@@SAXPAV_objref_AbstractInterfaceDef@2@@Z
?duplicate@AliasDef_Helper@CORBA@@SAXPAV_objref_AliasDef@2@@Z
?duplicate@ArrayDef_Helper@CORBA@@SAXPAV_objref_ArrayDef@2@@Z
?duplicate@AttributeDef_Helper@CORBA@@SAXPAV_objref_AttributeDef@2@@Z
?duplicate@ConstantDef_Helper@CORBA@@SAXPAV_objref_ConstantDef@2@@Z
?duplicate@Contained_Helper@CORBA@@SAXPAV_objref_Contained@2@@Z
?duplicate@Container_Helper@CORBA@@SAXPAV_objref_Container@2@@Z
?duplicate@DynAny_Helper@DynamicAny@@SAXPAVDynAny@2@@Z
?duplicate@EnumDef_Helper@CORBA@@SAXPAV_objref_EnumDef@2@@Z
?duplicate@ExceptionDef_Helper@CORBA@@SAXPAV_objref_ExceptionDef@2@@Z
?duplicate@FixedDef_Helper@CORBA@@SAXPAV_objref_FixedDef@2@@Z
?duplicate@IDLType_Helper@CORBA@@SAXPAV_objref_IDLType@2@@Z
?duplicate@IRObject_Helper@CORBA@@SAXPAV_objref_IRObject@2@@Z
?duplicate@InterfaceDef_Helper@CORBA@@SAXPAV_objref_InterfaceDef@2@@Z
?duplicate@ModuleDef_Helper@CORBA@@SAXPAV_objref_ModuleDef@2@@Z
?duplicate@NativeDef_Helper@CORBA@@SAXPAV_objref_NativeDef@2@@Z
?duplicate@OperationDef_Helper@CORBA@@SAXPAV_objref_OperationDef@2@@Z
?duplicate@PollableSet_Helper@CORBA@@SAXPAVPollableSet@2@@Z
?duplicate@PrimitiveDef_Helper@CORBA@@SAXPAV_objref_PrimitiveDef@2@@Z
?duplicate@ReplyHandler_Helper@Messaging@@SAXPAV_objref_ReplyHandler@2@@Z
?duplicate@Repository_Helper@CORBA@@SAXPAV_objref_Repository@2@@Z
?duplicate@SequenceDef_Helper@CORBA@@SAXPAV_objref_SequenceDef@2@@Z
?duplicate@StringDef_Helper@CORBA@@SAXPAV_objref_StringDef@2@@Z
?duplicate@StructDef_Helper@CORBA@@SAXPAV_objref_StructDef@2@@Z
?duplicate@TypedefDef_Helper@CORBA@@SAXPAV_objref_TypedefDef@2@@Z
?duplicate@UnionDef_Helper@CORBA@@SAXPAV_objref_UnionDef@2@@Z
?duplicate@ValueBoxDef_Helper@CORBA@@SAXPAV_objref_ValueBoxDef@2@@Z
?duplicate@ValueDef_Helper@CORBA@@SAXPAV_objref_ValueDef@2@@Z
?duplicate@ValueMemberDef_Helper@CORBA@@SAXPAV_objref_ValueMemberDef@2@@Z
?duplicate@WstringDef_Helper@CORBA@@SAXPAV_objref_WstringDef@2@@Z
?duplicateRef@TypeCode_collector@omni@@SAPAVTypeCode_base@2@PAV32@@Z
?element_type@_objref_ArrayDef@CORBA@@QAEPAVTypeCode@2@XZ
?element_type@_objref_SequenceDef@CORBA@@QAEPAVTypeCode@2@XZ
?element_type_def@_objref_ArrayDef@CORBA@@QAEPAV_objref_IDLType@2@XZ
?element_type_def@_objref_ArrayDef@CORBA@@QAEXPAV_objref_IDLType@2@@Z
?element_type_def@_objref_SequenceDef@CORBA@@QAEPAV_objref_IDLType@2@XZ
?element_type_def@_objref_SequenceDef@CORBA@@QAEXPAV_objref_IDLType@2@@Z
?endTruncatable@OutputValueTracker@omni@@QAEXXZ
?entries@TypeCode_alignTable@omni@@QBEIXZ
?env@RequestImpl@omni@@UAEPAVEnvironment@CORBA@@XZ
?env@omniNilRequest@omni@@UAEPAVEnvironment@CORBA@@XZ
?environment@DIICallDescriptor@omni@@QBEPAVEnvironment@CORBA@@XZ
?equal@DynAnyConstrBase@omni@@$4PPPPPPPM@7AE_NPAVDynAny@DynamicAny@@@Z
?equal@DynAnyConstrBase@omni@@$4PPPPPPPM@A@AE_NPAVDynAny@DynamicAny@@@Z
?equal@DynAnyConstrBase@omni@@$4PPPPPPPM@CM@AE_NPAVDynAny@DynamicAny@@@Z
?equal@DynAnyConstrBase@omni@@$4PPPPPPPM@M@AE_NPAVDynAny@DynamicAny@@@Z
?equal@DynAnyConstrBase@omni@@UAE_NPAVDynAny@DynamicAny@@@Z
?equal@DynAnyImpl@omni@@$4PPPPPPPM@3AE_NPAVDynAny@DynamicAny@@@Z
?equal@DynAnyImpl@omni@@$4PPPPPPPM@7AE_NPAVDynAny@DynamicAny@@@Z
?equal@DynAnyImpl@omni@@$4PPPPPPPM@A@AE_NPAVDynAny@DynamicAny@@@Z
?equal@DynAnyImpl@omni@@$4PPPPPPPM@M@AE_NPAVDynAny@DynamicAny@@@Z
?equal@DynAnyImpl@omni@@UAE_NPAVDynAny@DynamicAny@@@Z
?equal@DynUnionImpl@omni@@$4PPPPPPPM@A@AE_NPAVDynAny@DynamicAny@@@Z
?equal@DynUnionImpl@omni@@UAE_NPAVDynAny@DynamicAny@@@Z
?equal@TypeCode@CORBA@@QBE_NPAV12@@Z
?equal@omniNilDynAny@omni@@$4PPPPPPPM@A@AE_NPAVDynAny@DynamicAny@@@Z
?equal@omniNilDynAny@omni@@UAE_NPAVDynAny@DynamicAny@@@Z
?equivalent@TypeCode@CORBA@@QBE_NPAV12@@Z
?exception@Environment@CORBA@@UAEXPAVException@2@@Z
?exception@Environment@CORBA@@UBEPAVException@2@XZ
?exception@UnknownUserException@CORBA@@QAEAAVAny@2@XZ
?exception@omniNilEnv@omni@@UAEXPAVException@CORBA@@@Z
?exception@omniNilEnv@omni@@UBEPAVException@CORBA@@XZ
?exceptionOccurred@cdrValueChunkStream@@QAEXXZ
?exceptionOccurred@omniAsyncCallDescriptor@@QAE_NXZ
?exceptions@DIICallDescriptor@omni@@QAEPAVExceptionList@CORBA@@XZ
?exceptions@RequestImpl@omni@@UAEPAVExceptionList@CORBA@@XZ
?exceptions@_objref_OperationDef@CORBA@@QAEPAVExceptionDefSeq@2@XZ
?exceptions@_objref_OperationDef@CORBA@@QAEXABVExceptionDefSeq@2@@Z
?exceptions@omniNilRequest@omni@@UAEPAVExceptionList@CORBA@@XZ
?extractLabel@TypeCode_union_helper@omni@@SA_KABVAny@CORBA@@PAVTypeCode@4@@Z
?fastCopyUsingTC@omni@@YAXPAVTypeCode_base@1@AAVcdrStream@@1@Z
?filterContext@Context@CORBA@@SAPAV12@PAV12@PBQBDH@Z
?find@omniTypeCodeCollection@omni@@QAEPAVTypeCode@CORBA@@PBD@Z
?fixed_digits@TypeCode@CORBA@@QBEGXZ
?fixed_scale@TypeCode@CORBA@@QBEFXZ
?flags@NamedValueImpl@omni@@UBEKXZ
?flags@omniNilNV@omni@@UBEKXZ
?freeU@omniCodeSetUtil@omni@@SAXPA_W@Z
?free_entries@ContextListImpl@omni@@AAEXXZ
?free_entries@ExceptionListImpl@omni@@AAEXXZ
?freebuf@?$_CORBA_Sequence@E@@SAXPAE@Z
?freebuf@?$_CORBA_Sequence@F@@SAXPAF@Z
?freebuf@?$_CORBA_Sequence@G@@SAXPAG@Z
?freebuf@?$_CORBA_Sequence@J@@SAXPAJ@Z
?freebuf@?$_CORBA_Sequence@K@@SAXPAK@Z
?freebuf@?$_CORBA_Sequence@M@@SAXPAM@Z
?freebuf@?$_CORBA_Sequence@N@@SAXPAN@Z
?freebuf@?$_CORBA_Sequence@UAttributeDescription@CORBA@@@@SAXPAUAttributeDescription@CORBA@@@Z
?freebuf@?$_CORBA_Sequence@UBinding@CosNaming@@@@SAXPAUBinding@CosNaming@@@Z
?freebuf@?$_CORBA_Sequence@UDescription@Container@CORBA@@@@SAXPAUDescription@Container@CORBA@@@Z
?freebuf@?$_CORBA_Sequence@UExceptionDescription@CORBA@@@@SAXPAUExceptionDescription@CORBA@@@Z
?freebuf@?$_CORBA_Sequence@UInitializer@CORBA@@@@SAXPAUInitializer@CORBA@@@Z
?freebuf@?$_CORBA_Sequence@UNameComponent@CosNaming@@@@SAXPAUNameComponent@CosNaming@@@Z
?freebuf@?$_CORBA_Sequence@UNameDynAnyPair@DynamicAny@@@@SAXPAUNameDynAnyPair@DynamicAny@@@Z
?freebuf@?$_CORBA_Sequence@UNameValuePair@DynamicAny@@@@SAXPAUNameValuePair@DynamicAny@@@Z
?freebuf@?$_CORBA_Sequence@UOperationDescription@CORBA@@@@SAXPAUOperationDescription@CORBA@@@Z
?freebuf@?$_CORBA_Sequence@UParameterDescription@CORBA@@@@SAXPAUParameterDescription@CORBA@@@Z
?freebuf@?$_CORBA_Sequence@UStructMember@CORBA@@@@SAXPAUStructMember@CORBA@@@Z
?freebuf@?$_CORBA_Sequence@UUnionMember@CORBA@@@@SAXPAUUnionMember@CORBA@@@Z
?freebuf@?$_CORBA_Sequence@UValueMember@CORBA@@@@SAXPAUValueMember@CORBA@@@Z
?freebuf@?$_CORBA_Sequence@VAny@CORBA@@@@SAXPAVAny@CORBA@@@Z
?freebuf@?$_CORBA_Sequence@VTypeCode_member@CORBA@@@@SAXPAVTypeCode_member@CORBA@@@Z
?freebuf@?$_CORBA_Sequence@_J@@SAXPA_J@Z
?freebuf@?$_CORBA_Sequence@_K@@SAXPA_K@Z
?freebuf@?$_CORBA_Sequence@_N@@SAXPA_N@Z
?freebuf@?$_CORBA_Sequence@_W@@SAXPA_W@Z
?freebuf@?$_CORBA_Sequence_ObjRef@VDynAny@DynamicAny@@V?$_CORBA_ObjRef_Element@VDynAny@DynamicAny@@VDynAny_Helper@2@@@VDynAny_Helper@2@@@SAXPAPAVDynAny@DynamicAny@@@Z
?freebuf@?$_CORBA_Sequence_ObjRef@V_objref_AbstractInterfaceDef@CORBA@@V?$_CORBA_ObjRef_Element@V_objref_AbstractInterfaceDef@CORBA@@VAbstractInterfaceDef_Helper@2@@@VAbstractInterfaceDef_Helper@2@@@SAXPAPAV_objref_AbstractInterfaceDef@CORBA@@@Z
?freebuf@?$_CORBA_Sequence_ObjRef@V_objref_Contained@CORBA@@V?$_CORBA_ObjRef_Element@V_objref_Contained@CORBA@@VContained_Helper@2@@@VContained_Helper@2@@@SAXPAPAV_objref_Contained@CORBA@@@Z
?freebuf@?$_CORBA_Sequence_ObjRef@V_objref_ExceptionDef@CORBA@@V?$_CORBA_ObjRef_Element@V_objref_ExceptionDef@CORBA@@VExceptionDef_Helper@2@@@VExceptionDef_Helper@2@@@SAXPAPAV_objref_ExceptionDef@CORBA@@@Z
?freebuf@?$_CORBA_Sequence_ObjRef@V_objref_InterfaceDef@CORBA@@V?$_CORBA_ObjRef_Element@V_objref_InterfaceDef@CORBA@@VInterfaceDef_Helper@2@@@VInterfaceDef_Helper@2@@@SAXPAPAV_objref_InterfaceDef@CORBA@@@Z
?freebuf@?$_CORBA_Sequence_ObjRef@V_objref_ValueDef@CORBA@@V?$_CORBA_ObjRef_Element@V_objref_ValueDef@CORBA@@VValueDef_Helper@2@@@VValueDef_Helper@2@@@SAXPAPAV_objref_ValueDef@CORBA@@@Z
?freebuf@?$_CORBA_Sequence_Value@VPollerImpl@omniAMI@@V?$_CORBA_Value_Element@VPollerImpl@omniAMI@@VPoller_Helper@Messaging@@@@VPoller_Helper@Messaging@@@@SAXPAPAVPollerImpl@omniAMI@@@Z
?freebuf@?$_CORBA_Sequence_Value@VValueBase@CORBA@@V?$_CORBA_Value_Element@VValueBase@CORBA@@VValueBase_Helper@2@@@VValueBase_Helper@2@@@SAXPAPAVValueBase@CORBA@@@Z
?freebuf@_CORBA_Sequence_String@@SAXPAPAD@Z
?freebuf@_CORBA_Sequence_WString@@SAXPAPA_W@Z
?from_any@DynAnyImplBase@omni@@$4PPPPPPPM@3AEXABVAny@CORBA@@@Z
?from_any@DynAnyImplBase@omni@@$4PPPPPPPM@7AEXABVAny@CORBA@@@Z
?from_any@DynAnyImplBase@omni@@$4PPPPPPPM@A@AEXABVAny@CORBA@@@Z
?from_any@DynAnyImplBase@omni@@$4PPPPPPPM@BA@AEXABVAny@CORBA@@@Z
?from_any@DynAnyImplBase@omni@@$4PPPPPPPM@CE@AEXABVAny@CORBA@@@Z
?from_any@DynAnyImplBase@omni@@$4PPPPPPPM@CM@AEXABVAny@CORBA@@@Z
?from_any@DynAnyImplBase@omni@@$4PPPPPPPM@DA@AEXABVAny@CORBA@@@Z
?from_any@DynAnyImplBase@omni@@$4PPPPPPPM@FA@AEXABVAny@CORBA@@@Z
?from_any@DynAnyImplBase@omni@@$4PPPPPPPM@M@AEXABVAny@CORBA@@@Z
?from_any@DynAnyImplBase@omni@@UAEXABVAny@CORBA@@@Z
?from_any@omniNilDynAny@omni@@$4PPPPPPPM@A@AEXABVAny@CORBA@@@Z
?from_any@omniNilDynAny@omni@@UAEXABVAny@CORBA@@@Z
?generateAlignmentTable@TypeCode_array@omni@@AAEXXZ
?generateAlignmentTable@TypeCode_except@omni@@AAEXXZ
?generateAlignmentTable@TypeCode_struct@omni@@AAEXXZ
?get@omniCurrent@@SAPAV1@PAVomni_thread@@@Z
?get@omniCurrent@@SAPAV1@XZ
?getAndRemoveReadyPollable@PollableSetImpl@omniAMI@@AAEPAVPollable@CORBA@@XZ
?getCurrent@DynAnyConstrBase@omni@@IAEPAVDynAnyImplBase@2@XZ
?getException@omniAsyncCallDescriptor@@QAEPAVException@CORBA@@XZ
?get_abstract@DynAnyConstrBase@omni@@$4PPPPPPPM@7AEPAVAbstractBase@CORBA@@XZ
?get_abstract@DynAnyConstrBase@omni@@$4PPPPPPPM@A@AEPAVAbstractBase@CORBA@@XZ
?get_abstract@DynAnyConstrBase@omni@@$4PPPPPPPM@CM@AEPAVAbstractBase@CORBA@@XZ
?get_abstract@DynAnyConstrBase@omni@@$4PPPPPPPM@M@AEPAVAbstractBase@CORBA@@XZ
?get_abstract@DynAnyConstrBase@omni@@UAEPAVAbstractBase@CORBA@@XZ
?get_abstract@DynAnyImpl@omni@@$4PPPPPPPM@3AEPAVAbstractBase@CORBA@@XZ
?get_abstract@DynAnyImpl@omni@@$4PPPPPPPM@7AEPAVAbstractBase@CORBA@@XZ
?get_abstract@DynAnyImpl@omni@@$4PPPPPPPM@A@AEPAVAbstractBase@CORBA@@XZ
?get_abstract@DynAnyImpl@omni@@$4PPPPPPPM@M@AEPAVAbstractBase@CORBA@@XZ
?get_abstract@DynAnyImpl@omni@@UAEPAVAbstractBase@CORBA@@XZ
?get_abstract@DynUnionImpl@omni@@$4PPPPPPPM@A@AEPAVAbstractBase@CORBA@@XZ
?get_abstract@DynUnionImpl@omni@@UAEPAVAbstractBase@CORBA@@XZ
?get_abstract@omniNilDynAny@omni@@$4PPPPPPPM@A@AEPAVAbstractBase@CORBA@@XZ
?get_abstract@omniNilDynAny@omni@@UAEPAVAbstractBase@CORBA@@XZ
?get_any@DynAnyConstrBase@omni@@$4PPPPPPPM@7AEPAVAny@CORBA@@XZ
?get_any@DynAnyConstrBase@omni@@$4PPPPPPPM@A@AEPAVAny@CORBA@@XZ
?get_any@DynAnyConstrBase@omni@@$4PPPPPPPM@CM@AEPAVAny@CORBA@@XZ
?get_any@DynAnyConstrBase@omni@@$4PPPPPPPM@M@AEPAVAny@CORBA@@XZ
?get_any@DynAnyConstrBase@omni@@UAEPAVAny@CORBA@@XZ
?get_any@DynAnyImpl@omni@@$4PPPPPPPM@3AEPAVAny@CORBA@@XZ
?get_any@DynAnyImpl@omni@@$4PPPPPPPM@7AEPAVAny@CORBA@@XZ
?get_any@DynAnyImpl@omni@@$4PPPPPPPM@A@AEPAVAny@CORBA@@XZ
?get_any@DynAnyImpl@omni@@$4PPPPPPPM@M@AEPAVAny@CORBA@@XZ
?get_any@DynAnyImpl@omni@@UAEPAVAny@CORBA@@XZ
?get_any@DynUnionImpl@omni@@$4PPPPPPPM@A@AEPAVAny@CORBA@@XZ
?get_any@DynUnionImpl@omni@@UAEPAVAny@CORBA@@XZ
?get_any@omniNilDynAny@omni@@$4PPPPPPPM@A@AEPAVAny@CORBA@@XZ
?get_any@omniNilDynAny@omni@@UAEPAVAny@CORBA@@XZ
?get_as_string@DynEnumImpl@omni@@UAEPADXZ
?get_as_string@DynUnionEnumDisc@omni@@UAEPADXZ
?get_as_string@omniNilDynEnum@omni@@UAEPADXZ
?get_as_ulong@DynEnumImpl@omni@@UAEKXZ
?get_as_ulong@DynUnionEnumDisc@omni@@UAEKXZ
?get_as_ulong@omniNilDynEnum@omni@@UAEKXZ
?get_boolean@DynAnyConstrBase@omni@@$4PPPPPPPM@7AE_NXZ
?get_boolean@DynAnyConstrBase@omni@@$4PPPPPPPM@A@AE_NXZ
?get_boolean@DynAnyConstrBase@omni@@$4PPPPPPPM@CM@AE_NXZ
?get_boolean@DynAnyConstrBase@omni@@$4PPPPPPPM@M@AE_NXZ
?get_boolean@DynAnyConstrBase@omni@@UAE_NXZ
?get_boolean@DynAnyImpl@omni@@$4PPPPPPPM@3AE_NXZ
?get_boolean@DynAnyImpl@omni@@$4PPPPPPPM@7AE_NXZ
?get_boolean@DynAnyImpl@omni@@$4PPPPPPPM@A@AE_NXZ
?get_boolean@DynAnyImpl@omni@@$4PPPPPPPM@M@AE_NXZ
?get_boolean@DynAnyImpl@omni@@UAE_NXZ
?get_boolean@DynUnionImpl@omni@@$4PPPPPPPM@A@AE_NXZ
?get_boolean@DynUnionImpl@omni@@UAE_NXZ
?get_boolean@omniNilDynAny@omni@@$4PPPPPPPM@A@AE_NXZ
?get_boolean@omniNilDynAny@omni@@UAE_NXZ
?get_boolean_seq@DynAnyConstrBase@omni@@$4PPPPPPPM@7AEPAVBooleanSeq@CORBA@@XZ
?get_boolean_seq@DynAnyConstrBase@omni@@$4PPPPPPPM@A@AEPAVBooleanSeq@CORBA@@XZ
?get_boolean_seq@DynAnyConstrBase@omni@@$4PPPPPPPM@CM@AEPAVBooleanSeq@CORBA@@XZ
?get_boolean_seq@DynAnyConstrBase@omni@@$4PPPPPPPM@M@AEPAVBooleanSeq@CORBA@@XZ
?get_boolean_seq@DynAnyConstrBase@omni@@UAEPAVBooleanSeq@CORBA@@XZ
?get_boolean_seq@DynAnyImpl@omni@@$4PPPPPPPM@3AEPAVBooleanSeq@CORBA@@XZ
?get_boolean_seq@DynAnyImpl@omni@@$4PPPPPPPM@7AEPAVBooleanSeq@CORBA@@XZ
?get_boolean_seq@DynAnyImpl@omni@@$4PPPPPPPM@A@AEPAVBooleanSeq@CORBA@@XZ
?get_boolean_seq@DynAnyImpl@omni@@$4PPPPPPPM@M@AEPAVBooleanSeq@CORBA@@XZ
?get_boolean_seq@DynAnyImpl@omni@@UAEPAVBooleanSeq@CORBA@@XZ
?get_boolean_seq@DynUnionImpl@omni@@$4PPPPPPPM@A@AEPAVBooleanSeq@CORBA@@XZ
?get_boolean_seq@DynUnionImpl@omni@@UAEPAVBooleanSeq@CORBA@@XZ
?get_boolean_seq@omniNilDynAny@omni@@$4PPPPPPPM@A@AEPAVBooleanSeq@CORBA@@XZ
?get_boolean_seq@omniNilDynAny@omni@@UAEPAVBooleanSeq@CORBA@@XZ
?get_boxed_value@DynValueBoxImpl@omni@@UAEPAVAny@CORBA@@XZ
?get_boxed_value@omniNilDynValueBox@omni@@UAEPAVAny@CORBA@@XZ
?get_boxed_value_as_dyn_any@DynValueBoxImpl@omni@@UAEPAVDynAny@DynamicAny@@XZ
?get_boxed_value_as_dyn_any@omniNilDynValueBox@omni@@UAEPAVDynAny@DynamicAny@@XZ
?get_buffer@_CORBA_Sequence_String@@QAEPAPAD_N@Z
?get_buffer@_CORBA_Sequence_String@@QBEPBQBDXZ
?get_canonical_typecode@_objref_Repository@CORBA@@QAEPAVTypeCode@2@PAV32@@Z
?get_char@DynAnyConstrBase@omni@@$4PPPPPPPM@7AEEXZ
?get_char@DynAnyConstrBase@omni@@$4PPPPPPPM@A@AEEXZ
?get_char@DynAnyConstrBase@omni@@$4PPPPPPPM@CM@AEEXZ
?get_char@DynAnyConstrBase@omni@@$4PPPPPPPM@M@AEEXZ
?get_char@DynAnyConstrBase@omni@@UAEEXZ
?get_char@DynAnyImpl@omni@@$4PPPPPPPM@3AEEXZ
?get_char@DynAnyImpl@omni@@$4PPPPPPPM@7AEEXZ
?get_char@DynAnyImpl@omni@@$4PPPPPPPM@A@AEEXZ
?get_char@DynAnyImpl@omni@@$4PPPPPPPM@M@AEEXZ
?get_char@DynAnyImpl@omni@@UAEEXZ
?get_char@DynUnionImpl@omni@@$4PPPPPPPM@A@AEEXZ
?get_char@DynUnionImpl@omni@@UAEEXZ
?get_char@omniNilDynAny@omni@@$4PPPPPPPM@A@AEEXZ
?get_char@omniNilDynAny@omni@@UAEEXZ
?get_char_seq@DynAnyConstrBase@omni@@$4PPPPPPPM@7AEPAVCharSeq@CORBA@@XZ
?get_char_seq@DynAnyConstrBase@omni@@$4PPPPPPPM@A@AEPAVCharSeq@CORBA@@XZ
?get_char_seq@DynAnyConstrBase@omni@@$4PPPPPPPM@CM@AEPAVCharSeq@CORBA@@XZ
?get_char_seq@DynAnyConstrBase@omni@@$4PPPPPPPM@M@AEPAVCharSeq@CORBA@@XZ
?get_char_seq@DynAnyConstrBase@omni@@UAEPAVCharSeq@CORBA@@XZ
?get_char_seq@DynAnyImpl@omni@@$4PPPPPPPM@3AEPAVCharSeq@CORBA@@XZ
?get_char_seq@DynAnyImpl@omni@@$4PPPPPPPM@7AEPAVCharSeq@CORBA@@XZ
?get_char_seq@DynAnyImpl@omni@@$4PPPPPPPM@A@AEPAVCharSeq@CORBA@@XZ
?get_char_seq@DynAnyImpl@omni@@$4PPPPPPPM@M@AEPAVCharSeq@CORBA@@XZ
?get_char_seq@DynAnyImpl@omni@@UAEPAVCharSeq@CORBA@@XZ
?get_char_seq@DynUnionImpl@omni@@$4PPPPPPPM@A@AEPAVCharSeq@CORBA@@XZ
?get_char_seq@DynUnionImpl@omni@@UAEPAVCharSeq@CORBA@@XZ
?get_char_seq@omniNilDynAny@omni@@$4PPPPPPPM@A@AEPAVCharSeq@CORBA@@XZ
?get_char_seq@omniNilDynAny@omni@@UAEPAVCharSeq@CORBA@@XZ
?get_compact_typecode@TypeCode@CORBA@@QBEPAV12@XZ
?get_default_context@ORB@CORBA@@QAEXV?$_CORBA_PseudoObj_Out@VContext@CORBA@@V?$_CORBA_PseudoObj_Var@VContext@CORBA@@@@@@@Z
?get_discriminator@DynUnionImpl@omni@@UAEPAVDynAny@DynamicAny@@XZ
?get_discriminator@omniNilDynUnion@omni@@UAEPAVDynAny@DynamicAny@@XZ
?get_double@DynAnyConstrBase@omni@@$4PPPPPPPM@7AENXZ
?get_double@DynAnyConstrBase@omni@@$4PPPPPPPM@A@AENXZ
?get_double@DynAnyConstrBase@omni@@$4PPPPPPPM@CM@AENXZ
?get_double@DynAnyConstrBase@omni@@$4PPPPPPPM@M@AENXZ
?get_double@DynAnyConstrBase@omni@@UAENXZ
?get_double@DynAnyImpl@omni@@$4PPPPPPPM@3AENXZ
?get_double@DynAnyImpl@omni@@$4PPPPPPPM@7AENXZ
?get_double@DynAnyImpl@omni@@$4PPPPPPPM@A@AENXZ
?get_double@DynAnyImpl@omni@@$4PPPPPPPM@M@AENXZ
?get_double@DynAnyImpl@omni@@UAENXZ
?get_double@DynUnionImpl@omni@@$4PPPPPPPM@A@AENXZ
?get_double@DynUnionImpl@omni@@UAENXZ
?get_double@omniNilDynAny@omni@@$4PPPPPPPM@A@AENXZ
?get_double@omniNilDynAny@omni@@UAENXZ
?get_double_seq@DynAnyConstrBase@omni@@$4PPPPPPPM@7AEPAVDoubleSeq@CORBA@@XZ
?get_double_seq@DynAnyConstrBase@omni@@$4PPPPPPPM@A@AEPAVDoubleSeq@CORBA@@XZ
?get_double_seq@DynAnyConstrBase@omni@@$4PPPPPPPM@CM@AEPAVDoubleSeq@CORBA@@XZ
?get_double_seq@DynAnyConstrBase@omni@@$4PPPPPPPM@M@AEPAVDoubleSeq@CORBA@@XZ
?get_double_seq@DynAnyConstrBase@omni@@UAEPAVDoubleSeq@CORBA@@XZ
?get_double_seq@DynAnyImpl@omni@@$4PPPPPPPM@3AEPAVDoubleSeq@CORBA@@XZ
?get_double_seq@DynAnyImpl@omni@@$4PPPPPPPM@7AEPAVDoubleSeq@CORBA@@XZ
?get_double_seq@DynAnyImpl@omni@@$4PPPPPPPM@A@AEPAVDoubleSeq@CORBA@@XZ
?get_double_seq@DynAnyImpl@omni@@$4PPPPPPPM@M@AEPAVDoubleSeq@CORBA@@XZ
?get_double_seq@DynAnyImpl@omni@@UAEPAVDoubleSeq@CORBA@@XZ
?get_double_seq@DynUnionImpl@omni@@$4PPPPPPPM@A@AEPAVDoubleSeq@CORBA@@XZ
?get_double_seq@DynUnionImpl@omni@@UAEPAVDoubleSeq@CORBA@@XZ
?get_double_seq@omniNilDynAny@omni@@$4PPPPPPPM@A@AEPAVDoubleSeq@CORBA@@XZ
?get_double_seq@omniNilDynAny@omni@@UAEPAVDoubleSeq@CORBA@@XZ
?get_dyn_any@DynAnyConstrBase@omni@@$4PPPPPPPM@7AEPAVDynAny@DynamicAny@@XZ
?get_dyn_any@DynAnyConstrBase@omni@@$4PPPPPPPM@A@AEPAVDynAny@DynamicAny@@XZ
?get_dyn_any@DynAnyConstrBase@omni@@$4PPPPPPPM@CM@AEPAVDynAny@DynamicAny@@XZ
?get_dyn_any@DynAnyConstrBase@omni@@$4PPPPPPPM@M@AEPAVDynAny@DynamicAny@@XZ
?get_dyn_any@DynAnyConstrBase@omni@@UAEPAVDynAny@DynamicAny@@XZ
?get_dyn_any@DynAnyImpl@omni@@$4PPPPPPPM@3AEPAVDynAny@DynamicAny@@XZ
?get_dyn_any@DynAnyImpl@omni@@$4PPPPPPPM@7AEPAVDynAny@DynamicAny@@XZ
?get_dyn_any@DynAnyImpl@omni@@$4PPPPPPPM@A@AEPAVDynAny@DynamicAny@@XZ
?get_dyn_any@DynAnyImpl@omni@@$4PPPPPPPM@M@AEPAVDynAny@DynamicAny@@XZ
?get_dyn_any@DynAnyImpl@omni@@UAEPAVDynAny@DynamicAny@@XZ
?get_dyn_any@DynUnionImpl@omni@@$4PPPPPPPM@A@AEPAVDynAny@DynamicAny@@XZ
?get_dyn_any@DynUnionImpl@omni@@UAEPAVDynAny@DynamicAny@@XZ
?get_dyn_any@omniNilDynAny@omni@@$4PPPPPPPM@A@AEPAVDynAny@DynamicAny@@XZ
?get_dyn_any@omniNilDynAny@omni@@UAEPAVDynAny@DynamicAny@@XZ
?get_elements@DynArrayImpl@omni@@UAEPAVAnySeq@DynamicAny@@XZ
?get_elements@DynSequenceImpl@omni@@UAEPAVAnySeq@DynamicAny@@XZ
?get_elements@omniNilDynArray@omni@@UAEPAVAnySeq@DynamicAny@@XZ
?get_elements@omniNilDynSequence@omni@@UAEPAVAnySeq@DynamicAny@@XZ
?get_elements_as_dyn_any@DynArrayImpl@omni@@UAEPAVDynAnySeq@DynamicAny@@XZ
?get_elements_as_dyn_any@DynSequenceImpl@omni@@UAEPAVDynAnySeq@DynamicAny@@XZ
?get_elements_as_dyn_any@omniNilDynArray@omni@@UAEPAVDynAnySeq@DynamicAny@@XZ
?get_elements_as_dyn_any@omniNilDynSequence@omni@@UAEPAVDynAnySeq@DynamicAny@@XZ
?get_float@DynAnyConstrBase@omni@@$4PPPPPPPM@7AEMXZ
?get_float@DynAnyConstrBase@omni@@$4PPPPPPPM@A@AEMXZ
?get_float@DynAnyConstrBase@omni@@$4PPPPPPPM@CM@AEMXZ
?get_float@DynAnyConstrBase@omni@@$4PPPPPPPM@M@AEMXZ
?get_float@DynAnyConstrBase@omni@@UAEMXZ
?get_float@DynAnyImpl@omni@@$4PPPPPPPM@3AEMXZ
?get_float@DynAnyImpl@omni@@$4PPPPPPPM@7AEMXZ
?get_float@DynAnyImpl@omni@@$4PPPPPPPM@A@AEMXZ
?get_float@DynAnyImpl@omni@@$4PPPPPPPM@M@AEMXZ
?get_float@DynAnyImpl@omni@@UAEMXZ
?get_float@DynUnionImpl@omni@@$4PPPPPPPM@A@AEMXZ
?get_float@DynUnionImpl@omni@@UAEMXZ
?get_float@omniNilDynAny@omni@@$4PPPPPPPM@A@AEMXZ
?get_float@omniNilDynAny@omni@@UAEMXZ
?get_float_seq@DynAnyConstrBase@omni@@$4PPPPPPPM@7AEPAVFloatSeq@CORBA@@XZ
?get_float_seq@DynAnyConstrBase@omni@@$4PPPPPPPM@A@AEPAVFloatSeq@CORBA@@XZ
?get_float_seq@DynAnyConstrBase@omni@@$4PPPPPPPM@CM@AEPAVFloatSeq@CORBA@@XZ
?get_float_seq@DynAnyConstrBase@omni@@$4PPPPPPPM@M@AEPAVFloatSeq@CORBA@@XZ
?get_float_seq@DynAnyConstrBase@omni@@UAEPAVFloatSeq@CORBA@@XZ
?get_float_seq@DynAnyImpl@omni@@$4PPPPPPPM@3AEPAVFloatSeq@CORBA@@XZ
?get_float_seq@DynAnyImpl@omni@@$4PPPPPPPM@7AEPAVFloatSeq@CORBA@@XZ
?get_float_seq@DynAnyImpl@omni@@$4PPPPPPPM@A@AEPAVFloatSeq@CORBA@@XZ
?get_float_seq@DynAnyImpl@omni@@$4PPPPPPPM@M@AEPAVFloatSeq@CORBA@@XZ
?get_float_seq@DynAnyImpl@omni@@UAEPAVFloatSeq@CORBA@@XZ
?get_float_seq@DynUnionImpl@omni@@$4PPPPPPPM@A@AEPAVFloatSeq@CORBA@@XZ
?get_float_seq@DynUnionImpl@omni@@UAEPAVFloatSeq@CORBA@@XZ
?get_float_seq@omniNilDynAny@omni@@$4PPPPPPPM@A@AEPAVFloatSeq@CORBA@@XZ
?get_float_seq@omniNilDynAny@omni@@UAEPAVFloatSeq@CORBA@@XZ
?get_length@DynSequenceImpl@omni@@UAEKXZ
?get_length@omniNilDynSequence@omni@@UAEKXZ
?get_long@DynAnyConstrBase@omni@@$4PPPPPPPM@7AEJXZ
?get_long@DynAnyConstrBase@omni@@$4PPPPPPPM@A@AEJXZ
?get_long@DynAnyConstrBase@omni@@$4PPPPPPPM@CM@AEJXZ
?get_long@DynAnyConstrBase@omni@@$4PPPPPPPM@M@AEJXZ
?get_long@DynAnyConstrBase@omni@@UAEJXZ
?get_long@DynAnyImpl@omni@@$4PPPPPPPM@3AEJXZ
?get_long@DynAnyImpl@omni@@$4PPPPPPPM@7AEJXZ
?get_long@DynAnyImpl@omni@@$4PPPPPPPM@A@AEJXZ
?get_long@DynAnyImpl@omni@@$4PPPPPPPM@M@AEJXZ
?get_long@DynAnyImpl@omni@@UAEJXZ
?get_long@DynUnionImpl@omni@@$4PPPPPPPM@A@AEJXZ
?get_long@DynUnionImpl@omni@@UAEJXZ
?get_long@omniNilDynAny@omni@@$4PPPPPPPM@A@AEJXZ
?get_long@omniNilDynAny@omni@@UAEJXZ
?get_long_seq@DynAnyConstrBase@omni@@$4PPPPPPPM@7AEPAVLongSeq@CORBA@@XZ
?get_long_seq@DynAnyConstrBase@omni@@$4PPPPPPPM@A@AEPAVLongSeq@CORBA@@XZ
?get_long_seq@DynAnyConstrBase@omni@@$4PPPPPPPM@CM@AEPAVLongSeq@CORBA@@XZ
?get_long_seq@DynAnyConstrBase@omni@@$4PPPPPPPM@M@AEPAVLongSeq@CORBA@@XZ
?get_long_seq@DynAnyConstrBase@omni@@UAEPAVLongSeq@CORBA@@XZ
?get_long_seq@DynAnyImpl@omni@@$4PPPPPPPM@3AEPAVLongSeq@CORBA@@XZ
?get_long_seq@DynAnyImpl@omni@@$4PPPPPPPM@7AEPAVLongSeq@CORBA@@XZ
?get_long_seq@DynAnyImpl@omni@@$4PPPPPPPM@A@AEPAVLongSeq@CORBA@@XZ
?get_long_seq@DynAnyImpl@omni@@$4PPPPPPPM@M@AEPAVLongSeq@CORBA@@XZ
?get_long_seq@DynAnyImpl@omni@@UAEPAVLongSeq@CORBA@@XZ
?get_long_seq@DynUnionImpl@omni@@$4PPPPPPPM@A@AEPAVLongSeq@CORBA@@XZ
?get_long_seq@DynUnionImpl@omni@@UAEPAVLongSeq@CORBA@@XZ
?get_long_seq@omniNilDynAny@omni@@$4PPPPPPPM@A@AEPAVLongSeq@CORBA@@XZ
?get_long_seq@omniNilDynAny@omni@@UAEPAVLongSeq@CORBA@@XZ
?get_longlong@DynAnyConstrBase@omni@@$4PPPPPPPM@7AE_JXZ
?get_longlong@DynAnyConstrBase@omni@@$4PPPPPPPM@A@AE_JXZ
?get_longlong@DynAnyConstrBase@omni@@$4PPPPPPPM@CM@AE_JXZ
?get_longlong@DynAnyConstrBase@omni@@$4PPPPPPPM@M@AE_JXZ
?get_longlong@DynAnyConstrBase@omni@@UAE_JXZ
?get_longlong@DynAnyImpl@omni@@$4PPPPPPPM@3AE_JXZ
?get_longlong@DynAnyImpl@omni@@$4PPPPPPPM@7AE_JXZ
?get_longlong@DynAnyImpl@omni@@$4PPPPPPPM@A@AE_JXZ
?get_longlong@DynAnyImpl@omni@@$4PPPPPPPM@M@AE_JXZ
?get_longlong@DynAnyImpl@omni@@UAE_JXZ
?get_longlong@DynUnionImpl@omni@@$4PPPPPPPM@A@AE_JXZ
?get_longlong@DynUnionImpl@omni@@UAE_JXZ
?get_longlong@omniNilDynAny@omni@@$4PPPPPPPM@A@AE_JXZ
?get_longlong@omniNilDynAny@omni@@UAE_JXZ
?get_longlong_seq@DynAnyConstrBase@omni@@$4PPPPPPPM@7AEPAVLongLongSeq@CORBA@@XZ
?get_longlong_seq@DynAnyConstrBase@omni@@$4PPPPPPPM@A@AEPAVLongLongSeq@CORBA@@XZ
?get_longlong_seq@DynAnyConstrBase@omni@@$4PPPPPPPM@CM@AEPAVLongLongSeq@CORBA@@XZ
?get_longlong_seq@DynAnyConstrBase@omni@@$4PPPPPPPM@M@AEPAVLongLongSeq@CORBA@@XZ
?get_longlong_seq@DynAnyConstrBase@omni@@UAEPAVLongLongSeq@CORBA@@XZ
?get_longlong_seq@DynAnyImpl@omni@@$4PPPPPPPM@3AEPAVLongLongSeq@CORBA@@XZ
?get_longlong_seq@DynAnyImpl@omni@@$4PPPPPPPM@7AEPAVLongLongSeq@CORBA@@XZ
?get_longlong_seq@DynAnyImpl@omni@@$4PPPPPPPM@A@AEPAVLongLongSeq@CORBA@@XZ
?get_longlong_seq@DynAnyImpl@omni@@$4PPPPPPPM@M@AEPAVLongLongSeq@CORBA@@XZ
?get_longlong_seq@DynAnyImpl@omni@@UAEPAVLongLongSeq@CORBA@@XZ
?get_longlong_seq@DynUnionImpl@omni@@$4PPPPPPPM@A@AEPAVLongLongSeq@CORBA@@XZ
?get_longlong_seq@DynUnionImpl@omni@@UAEPAVLongLongSeq@CORBA@@XZ
?get_longlong_seq@omniNilDynAny@omni@@$4PPPPPPPM@A@AEPAVLongLongSeq@CORBA@@XZ
?get_longlong_seq@omniNilDynAny@omni@@UAEPAVLongLongSeq@CORBA@@XZ
?get_members@DynStructImpl@omni@@UAEPAVNameValuePairSeq@DynamicAny@@XZ
?get_members@DynValueImpl@omni@@UAEPAVNameValuePairSeq@DynamicAny@@XZ
?get_members@omniNilDynStruct@omni@@UAEPAVNameValuePairSeq@DynamicAny@@XZ
?get_members@omniNilDynValue@omni@@UAEPAVNameValuePairSeq@DynamicAny@@XZ
?get_members_as_dyn_any@DynStructImpl@omni@@UAEPAVNameDynAnyPairSeq@DynamicAny@@XZ
?get_members_as_dyn_any@DynValueImpl@omni@@UAEPAVNameDynAnyPairSeq@DynamicAny@@XZ
?get_members_as_dyn_any@omniNilDynStruct@omni@@UAEPAVNameDynAnyPairSeq@DynamicAny@@XZ
?get_members_as_dyn_any@omniNilDynValue@omni@@UAEPAVNameDynAnyPairSeq@DynamicAny@@XZ
?get_next_response@ORB@CORBA@@QAEXV?$_CORBA_PseudoObj_Out@VRequest@CORBA@@V?$_CORBA_PseudoObj_Var@VRequest@CORBA@@@@@@@Z
?get_octet@DynAnyConstrBase@omni@@$4PPPPPPPM@7AEEXZ
?get_octet@DynAnyConstrBase@omni@@$4PPPPPPPM@A@AEEXZ
?get_octet@DynAnyConstrBase@omni@@$4PPPPPPPM@CM@AEEXZ
?get_octet@DynAnyConstrBase@omni@@$4PPPPPPPM@M@AEEXZ
?get_octet@DynAnyConstrBase@omni@@UAEEXZ
?get_octet@DynAnyImpl@omni@@$4PPPPPPPM@3AEEXZ
?get_octet@DynAnyImpl@omni@@$4PPPPPPPM@7AEEXZ
?get_octet@DynAnyImpl@omni@@$4PPPPPPPM@A@AEEXZ
?get_octet@DynAnyImpl@omni@@$4PPPPPPPM@M@AEEXZ
?get_octet@DynAnyImpl@omni@@UAEEXZ
?get_octet@DynUnionImpl@omni@@$4PPPPPPPM@A@AEEXZ
?get_octet@DynUnionImpl@omni@@UAEEXZ
?get_octet@omniNilDynAny@omni@@$4PPPPPPPM@A@AEEXZ
?get_octet@omniNilDynAny@omni@@UAEEXZ
?get_octet_seq@DynAnyConstrBase@omni@@$4PPPPPPPM@7AEPAVOctetSeq@CORBA@@XZ
?get_octet_seq@DynAnyConstrBase@omni@@$4PPPPPPPM@A@AEPAVOctetSeq@CORBA@@XZ
?get_octet_seq@DynAnyConstrBase@omni@@$4PPPPPPPM@CM@AEPAVOctetSeq@CORBA@@XZ
?get_octet_seq@DynAnyConstrBase@omni@@$4PPPPPPPM@M@AEPAVOctetSeq@CORBA@@XZ
?get_octet_seq@DynAnyConstrBase@omni@@UAEPAVOctetSeq@CORBA@@XZ
?get_octet_seq@DynAnyImpl@omni@@$4PPPPPPPM@3AEPAVOctetSeq@CORBA@@XZ
?get_octet_seq@DynAnyImpl@omni@@$4PPPPPPPM@7AEPAVOctetSeq@CORBA@@XZ
?get_octet_seq@DynAnyImpl@omni@@$4PPPPPPPM@A@AEPAVOctetSeq@CORBA@@XZ
?get_octet_seq@DynAnyImpl@omni@@$4PPPPPPPM@M@AEPAVOctetSeq@CORBA@@XZ
?get_octet_seq@DynAnyImpl@omni@@UAEPAVOctetSeq@CORBA@@XZ
?get_octet_seq@DynUnionImpl@omni@@$4PPPPPPPM@A@AEPAVOctetSeq@CORBA@@XZ
?get_octet_seq@DynUnionImpl@omni@@UAEPAVOctetSeq@CORBA@@XZ
?get_octet_seq@omniNilDynAny@omni@@$4PPPPPPPM@A@AEPAVOctetSeq@CORBA@@XZ
?get_octet_seq@omniNilDynAny@omni@@UAEPAVOctetSeq@CORBA@@XZ
?get_primitive@_objref_Repository@CORBA@@QAEPAV_objref_PrimitiveDef@2@W4PrimitiveKind@2@@Z
?get_ready_pollable@PollableSetImpl@omniAMI@@$4PPPPPPPM@A@AEPAVPollable@CORBA@@K@Z
?get_ready_pollable@PollableSetImpl@omniAMI@@UAEPAVPollable@CORBA@@K@Z
?get_ready_pollable@_nil_PollableSet@CORBA@@$4PPPPPPPM@A@AEPAVPollable@2@K@Z
?get_ready_pollable@_nil_PollableSet@CORBA@@UAEPAVPollable@2@K@Z
?get_reference@DynAnyConstrBase@omni@@$4PPPPPPPM@7AEPAVObject@CORBA@@XZ
?get_reference@DynAnyConstrBase@omni@@$4PPPPPPPM@A@AEPAVObject@CORBA@@XZ
?get_reference@DynAnyConstrBase@omni@@$4PPPPPPPM@CM@AEPAVObject@CORBA@@XZ
?get_reference@DynAnyConstrBase@omni@@$4PPPPPPPM@M@AEPAVObject@CORBA@@XZ
?get_reference@DynAnyConstrBase@omni@@UAEPAVObject@CORBA@@XZ
?get_reference@DynAnyImpl@omni@@$4PPPPPPPM@3AEPAVObject@CORBA@@XZ
?get_reference@DynAnyImpl@omni@@$4PPPPPPPM@7AEPAVObject@CORBA@@XZ
?get_reference@DynAnyImpl@omni@@$4PPPPPPPM@A@AEPAVObject@CORBA@@XZ
?get_reference@DynAnyImpl@omni@@$4PPPPPPPM@M@AEPAVObject@CORBA@@XZ
?get_reference@DynAnyImpl@omni@@UAEPAVObject@CORBA@@XZ
?get_reference@DynUnionImpl@omni@@$4PPPPPPPM@A@AEPAVObject@CORBA@@XZ
?get_reference@DynUnionImpl@omni@@UAEPAVObject@CORBA@@XZ
?get_reference@omniNilDynAny@omni@@$4PPPPPPPM@A@AEPAVObject@CORBA@@XZ
?get_reference@omniNilDynAny@omni@@UAEPAVObject@CORBA@@XZ
?get_response@RequestImpl@omni@@UAEXXZ
?get_response@omniNilRequest@omni@@UAEXXZ
?get_short@DynAnyConstrBase@omni@@$4PPPPPPPM@7AEFXZ
?get_short@DynAnyConstrBase@omni@@$4PPPPPPPM@A@AEFXZ
?get_short@DynAnyConstrBase@omni@@$4PPPPPPPM@CM@AEFXZ
?get_short@DynAnyConstrBase@omni@@$4PPPPPPPM@M@AEFXZ
?get_short@DynAnyConstrBase@omni@@UAEFXZ
?get_short@DynAnyImpl@omni@@$4PPPPPPPM@3AEFXZ
?get_short@DynAnyImpl@omni@@$4PPPPPPPM@7AEFXZ
?get_short@DynAnyImpl@omni@@$4PPPPPPPM@A@AEFXZ
?get_short@DynAnyImpl@omni@@$4PPPPPPPM@M@AEFXZ
?get_short@DynAnyImpl@omni@@UAEFXZ
?get_short@DynUnionImpl@omni@@$4PPPPPPPM@A@AEFXZ
?get_short@DynUnionImpl@omni@@UAEFXZ
?get_short@omniNilDynAny@omni@@$4PPPPPPPM@A@AEFXZ
?get_short@omniNilDynAny@omni@@UAEFXZ
?get_short_seq@DynAnyConstrBase@omni@@$4PPPPPPPM@7AEPAVShortSeq@CORBA@@XZ
?get_short_seq@DynAnyConstrBase@omni@@$4PPPPPPPM@A@AEPAVShortSeq@CORBA@@XZ
?get_short_seq@DynAnyConstrBase@omni@@$4PPPPPPPM@CM@AEPAVShortSeq@CORBA@@XZ
?get_short_seq@DynAnyConstrBase@omni@@$4PPPPPPPM@M@AEPAVShortSeq@CORBA@@XZ
?get_short_seq@DynAnyConstrBase@omni@@UAEPAVShortSeq@CORBA@@XZ
?get_short_seq@DynAnyImpl@omni@@$4PPPPPPPM@3AEPAVShortSeq@CORBA@@XZ
?get_short_seq@DynAnyImpl@omni@@$4PPPPPPPM@7AEPAVShortSeq@CORBA@@XZ
?get_short_seq@DynAnyImpl@omni@@$4PPPPPPPM@A@AEPAVShortSeq@CORBA@@XZ
?get_short_seq@DynAnyImpl@omni@@$4PPPPPPPM@M@AEPAVShortSeq@CORBA@@XZ
?get_short_seq@DynAnyImpl@omni@@UAEPAVShortSeq@CORBA@@XZ
?get_short_seq@DynUnionImpl@omni@@$4PPPPPPPM@A@AEPAVShortSeq@CORBA@@XZ
?get_short_seq@DynUnionImpl@omni@@UAEPAVShortSeq@CORBA@@XZ
?get_short_seq@omniNilDynAny@omni@@$4PPPPPPPM@A@AEPAVShortSeq@CORBA@@XZ
?get_short_seq@omniNilDynAny@omni@@UAEPAVShortSeq@CORBA@@XZ
?get_string@DynAnyConstrBase@omni@@$4PPPPPPPM@7AEPADXZ
?get_string@DynAnyConstrBase@omni@@$4PPPPPPPM@A@AEPADXZ
?get_string@DynAnyConstrBase@omni@@$4PPPPPPPM@CM@AEPADXZ
?get_string@DynAnyConstrBase@omni@@$4PPPPPPPM@M@AEPADXZ
?get_string@DynAnyConstrBase@omni@@UAEPADXZ
?get_string@DynAnyImpl@omni@@$4PPPPPPPM@3AEPADXZ
?get_string@DynAnyImpl@omni@@$4PPPPPPPM@7AEPADXZ
?get_string@DynAnyImpl@omni@@$4PPPPPPPM@A@AEPADXZ
?get_string@DynAnyImpl@omni@@$4PPPPPPPM@M@AEPADXZ
?get_string@DynAnyImpl@omni@@UAEPADXZ
?get_string@DynUnionImpl@omni@@$4PPPPPPPM@A@AEPADXZ
?get_string@DynUnionImpl@omni@@UAEPADXZ
?get_string@omniNilDynAny@omni@@$4PPPPPPPM@A@AEPADXZ
?get_string@omniNilDynAny@omni@@UAEPADXZ
?get_time@omni_thread@@SAXAAUomni_time_t@@@Z
?get_time@omni_thread@@SAXAAUomni_time_t@@ABU2@@Z
?get_typecode@DynAnyConstrBase@omni@@$4PPPPPPPM@7AEPAVTypeCode@CORBA@@XZ
?get_typecode@DynAnyConstrBase@omni@@$4PPPPPPPM@A@AEPAVTypeCode@CORBA@@XZ
?get_typecode@DynAnyConstrBase@omni@@$4PPPPPPPM@CM@AEPAVTypeCode@CORBA@@XZ
?get_typecode@DynAnyConstrBase@omni@@$4PPPPPPPM@M@AEPAVTypeCode@CORBA@@XZ
?get_typecode@DynAnyConstrBase@omni@@UAEPAVTypeCode@CORBA@@XZ
?get_typecode@DynAnyImpl@omni@@$4PPPPPPPM@3AEPAVTypeCode@CORBA@@XZ
?get_typecode@DynAnyImpl@omni@@$4PPPPPPPM@7AEPAVTypeCode@CORBA@@XZ
?get_typecode@DynAnyImpl@omni@@$4PPPPPPPM@A@AEPAVTypeCode@CORBA@@XZ
?get_typecode@DynAnyImpl@omni@@$4PPPPPPPM@M@AEPAVTypeCode@CORBA@@XZ
?get_typecode@DynAnyImpl@omni@@UAEPAVTypeCode@CORBA@@XZ
?get_typecode@DynUnionImpl@omni@@$4PPPPPPPM@A@AEPAVTypeCode@CORBA@@XZ
?get_typecode@DynUnionImpl@omni@@UAEPAVTypeCode@CORBA@@XZ
?get_typecode@omniNilDynAny@omni@@$4PPPPPPPM@A@AEPAVTypeCode@CORBA@@XZ
?get_typecode@omniNilDynAny@omni@@UAEPAVTypeCode@CORBA@@XZ
?get_ulong@DynAnyConstrBase@omni@@$4PPPPPPPM@7AEKXZ
?get_ulong@DynAnyConstrBase@omni@@$4PPPPPPPM@A@AEKXZ
?get_ulong@DynAnyConstrBase@omni@@$4PPPPPPPM@CM@AEKXZ
?get_ulong@DynAnyConstrBase@omni@@$4PPPPPPPM@M@AEKXZ
?get_ulong@DynAnyConstrBase@omni@@UAEKXZ
?get_ulong@DynAnyImpl@omni@@$4PPPPPPPM@3AEKXZ
?get_ulong@DynAnyImpl@omni@@$4PPPPPPPM@7AEKXZ
?get_ulong@DynAnyImpl@omni@@$4PPPPPPPM@A@AEKXZ
?get_ulong@DynAnyImpl@omni@@$4PPPPPPPM@M@AEKXZ
?get_ulong@DynAnyImpl@omni@@UAEKXZ
?get_ulong@DynUnionImpl@omni@@$4PPPPPPPM@A@AEKXZ
?get_ulong@DynUnionImpl@omni@@UAEKXZ
?get_ulong@omniNilDynAny@omni@@$4PPPPPPPM@A@AEKXZ
?get_ulong@omniNilDynAny@omni@@UAEKXZ
?get_ulong_seq@DynAnyConstrBase@omni@@$4PPPPPPPM@7AEPAVULongSeq@CORBA@@XZ
?get_ulong_seq@DynAnyConstrBase@omni@@$4PPPPPPPM@A@AEPAVULongSeq@CORBA@@XZ
?get_ulong_seq@DynAnyConstrBase@omni@@$4PPPPPPPM@CM@AEPAVULongSeq@CORBA@@XZ
?get_ulong_seq@DynAnyConstrBase@omni@@$4PPPPPPPM@M@AEPAVULongSeq@CORBA@@XZ
?get_ulong_seq@DynAnyConstrBase@omni@@UAEPAVULongSeq@CORBA@@XZ
?get_ulong_seq@DynAnyImpl@omni@@$4PPPPPPPM@3AEPAVULongSeq@CORBA@@XZ
?get_ulong_seq@DynAnyImpl@omni@@$4PPPPPPPM@7AEPAVULongSeq@CORBA@@XZ
?get_ulong_seq@DynAnyImpl@omni@@$4PPPPPPPM@A@AEPAVULongSeq@CORBA@@XZ
?get_ulong_seq@DynAnyImpl@omni@@$4PPPPPPPM@M@AEPAVULongSeq@CORBA@@XZ
?get_ulong_seq@DynAnyImpl@omni@@UAEPAVULongSeq@CORBA@@XZ
?get_ulong_seq@DynUnionImpl@omni@@$4PPPPPPPM@A@AEPAVULongSeq@CORBA@@XZ
?get_ulong_seq@DynUnionImpl@omni@@UAEPAVULongSeq@CORBA@@XZ
?get_ulong_seq@omniNilDynAny@omni@@$4PPPPPPPM@A@AEPAVULongSeq@CORBA@@XZ
?get_ulong_seq@omniNilDynAny@omni@@UAEPAVULongSeq@CORBA@@XZ
?get_ulonglong@DynAnyConstrBase@omni@@$4PPPPPPPM@7AE_KXZ
?get_ulonglong@DynAnyConstrBase@omni@@$4PPPPPPPM@A@AE_KXZ
?get_ulonglong@DynAnyConstrBase@omni@@$4PPPPPPPM@CM@AE_KXZ
?get_ulonglong@DynAnyConstrBase@omni@@$4PPPPPPPM@M@AE_KXZ
?get_ulonglong@DynAnyConstrBase@omni@@UAE_KXZ
?get_ulonglong@DynAnyImpl@omni@@$4PPPPPPPM@3AE_KXZ
?get_ulonglong@DynAnyImpl@omni@@$4PPPPPPPM@7AE_KXZ
?get_ulonglong@DynAnyImpl@omni@@$4PPPPPPPM@A@AE_KXZ
?get_ulonglong@DynAnyImpl@omni@@$4PPPPPPPM@M@AE_KXZ
?get_ulonglong@DynAnyImpl@omni@@UAE_KXZ
?get_ulonglong@DynUnionImpl@omni@@$4PPPPPPPM@A@AE_KXZ
?get_ulonglong@DynUnionImpl@omni@@UAE_KXZ
?get_ulonglong@omniNilDynAny@omni@@$4PPPPPPPM@A@AE_KXZ
?get_ulonglong@omniNilDynAny@omni@@UAE_KXZ
?get_ulonglong_seq@DynAnyConstrBase@omni@@$4PPPPPPPM@7AEPAVULongLongSeq@CORBA@@XZ
?get_ulonglong_seq@DynAnyConstrBase@omni@@$4PPPPPPPM@A@AEPAVULongLongSeq@CORBA@@XZ
?get_ulonglong_seq@DynAnyConstrBase@omni@@$4PPPPPPPM@CM@AEPAVULongLongSeq@CORBA@@XZ
?get_ulonglong_seq@DynAnyConstrBase@omni@@$4PPPPPPPM@M@AEPAVULongLongSeq@CORBA@@XZ
?get_ulonglong_seq@DynAnyConstrBase@omni@@UAEPAVULongLongSeq@CORBA@@XZ
?get_ulonglong_seq@DynAnyImpl@omni@@$4PPPPPPPM@3AEPAVULongLongSeq@CORBA@@XZ
?get_ulonglong_seq@DynAnyImpl@omni@@$4PPPPPPPM@7AEPAVULongLongSeq@CORBA@@XZ
?get_ulonglong_seq@DynAnyImpl@omni@@$4PPPPPPPM@A@AEPAVULongLongSeq@CORBA@@XZ
?get_ulonglong_seq@DynAnyImpl@omni@@$4PPPPPPPM@M@AEPAVULongLongSeq@CORBA@@XZ
?get_ulonglong_seq@DynAnyImpl@omni@@UAEPAVULongLongSeq@CORBA@@XZ
?get_ulonglong_seq@DynUnionImpl@omni@@$4PPPPPPPM@A@AEPAVULongLongSeq@CORBA@@XZ
?get_ulonglong_seq@DynUnionImpl@omni@@UAEPAVULongLongSeq@CORBA@@XZ
?get_ulonglong_seq@omniNilDynAny@omni@@$4PPPPPPPM@A@AEPAVULongLongSeq@CORBA@@XZ
?get_ulonglong_seq@omniNilDynAny@omni@@UAEPAVULongLongSeq@CORBA@@XZ
?get_ushort@DynAnyConstrBase@omni@@$4PPPPPPPM@7AEGXZ
?get_ushort@DynAnyConstrBase@omni@@$4PPPPPPPM@A@AEGXZ
?get_ushort@DynAnyConstrBase@omni@@$4PPPPPPPM@CM@AEGXZ
?get_ushort@DynAnyConstrBase@omni@@$4PPPPPPPM@M@AEGXZ
?get_ushort@DynAnyConstrBase@omni@@UAEGXZ
?get_ushort@DynAnyImpl@omni@@$4PPPPPPPM@3AEGXZ
?get_ushort@DynAnyImpl@omni@@$4PPPPPPPM@7AEGXZ
?get_ushort@DynAnyImpl@omni@@$4PPPPPPPM@A@AEGXZ
?get_ushort@DynAnyImpl@omni@@$4PPPPPPPM@M@AEGXZ
?get_ushort@DynAnyImpl@omni@@UAEGXZ
?get_ushort@DynUnionImpl@omni@@$4PPPPPPPM@A@AEGXZ
?get_ushort@DynUnionImpl@omni@@UAEGXZ
?get_ushort@omniNilDynAny@omni@@$4PPPPPPPM@A@AEGXZ
?get_ushort@omniNilDynAny@omni@@UAEGXZ
?get_ushort_seq@DynAnyConstrBase@omni@@$4PPPPPPPM@7AEPAVUShortSeq@CORBA@@XZ
?get_ushort_seq@DynAnyConstrBase@omni@@$4PPPPPPPM@A@AEPAVUShortSeq@CORBA@@XZ
?get_ushort_seq@DynAnyConstrBase@omni@@$4PPPPPPPM@CM@AEPAVUShortSeq@CORBA@@XZ
?get_ushort_seq@DynAnyConstrBase@omni@@$4PPPPPPPM@M@AEPAVUShortSeq@CORBA@@XZ
?get_ushort_seq@DynAnyConstrBase@omni@@UAEPAVUShortSeq@CORBA@@XZ
?get_ushort_seq@DynAnyImpl@omni@@$4PPPPPPPM@3AEPAVUShortSeq@CORBA@@XZ
?get_ushort_seq@DynAnyImpl@omni@@$4PPPPPPPM@7AEPAVUShortSeq@CORBA@@XZ
?get_ushort_seq@DynAnyImpl@omni@@$4PPPPPPPM@A@AEPAVUShortSeq@CORBA@@XZ
?get_ushort_seq@DynAnyImpl@omni@@$4PPPPPPPM@M@AEPAVUShortSeq@CORBA@@XZ
?get_ushort_seq@DynAnyImpl@omni@@UAEPAVUShortSeq@CORBA@@XZ
?get_ushort_seq@DynUnionImpl@omni@@$4PPPPPPPM@A@AEPAVUShortSeq@CORBA@@XZ
?get_ushort_seq@DynUnionImpl@omni@@UAEPAVUShortSeq@CORBA@@XZ
?get_ushort_seq@omniNilDynAny@omni@@$4PPPPPPPM@A@AEPAVUShortSeq@CORBA@@XZ
?get_ushort_seq@omniNilDynAny@omni@@UAEPAVUShortSeq@CORBA@@XZ
?get_val@DynAnyConstrBase@omni@@$4PPPPPPPM@7AEPAVValueBase@CORBA@@XZ
?get_val@DynAnyConstrBase@omni@@$4PPPPPPPM@A@AEPAVValueBase@CORBA@@XZ
?get_val@DynAnyConstrBase@omni@@$4PPPPPPPM@CM@AEPAVValueBase@CORBA@@XZ
?get_val@DynAnyConstrBase@omni@@$4PPPPPPPM@M@AEPAVValueBase@CORBA@@XZ
?get_val@DynAnyConstrBase@omni@@UAEPAVValueBase@CORBA@@XZ
?get_val@DynAnyImpl@omni@@$4PPPPPPPM@3AEPAVValueBase@CORBA@@XZ
?get_val@DynAnyImpl@omni@@$4PPPPPPPM@7AEPAVValueBase@CORBA@@XZ
?get_val@DynAnyImpl@omni@@$4PPPPPPPM@A@AEPAVValueBase@CORBA@@XZ
?get_val@DynAnyImpl@omni@@$4PPPPPPPM@M@AEPAVValueBase@CORBA@@XZ
?get_val@DynAnyImpl@omni@@UAEPAVValueBase@CORBA@@XZ
?get_val@DynUnionImpl@omni@@$4PPPPPPPM@A@AEPAVValueBase@CORBA@@XZ
?get_val@DynUnionImpl@omni@@UAEPAVValueBase@CORBA@@XZ
?get_val@omniNilDynAny@omni@@$4PPPPPPPM@A@AEPAVValueBase@CORBA@@XZ
?get_val@omniNilDynAny@omni@@UAEPAVValueBase@CORBA@@XZ
?get_value@DynFixedImpl@omni@@UAEPADXZ
?get_value@omniNilDynFixed@omni@@UAEPADXZ
?get_values@ContextImpl@omni@@UAEXPBDK0V?$_CORBA_PseudoObj_Out@VNVList@CORBA@@V?$_CORBA_PseudoObj_Var@VNVList@CORBA@@@@@@@Z
?get_values@omniNilContext@omni@@UAEXPBDK0V?$_CORBA_PseudoObj_Out@VNVList@CORBA@@V?$_CORBA_PseudoObj_Var@VNVList@CORBA@@@@@@@Z
?get_wchar@DynAnyConstrBase@omni@@$4PPPPPPPM@7AE_WXZ
?get_wchar@DynAnyConstrBase@omni@@$4PPPPPPPM@A@AE_WXZ
?get_wchar@DynAnyConstrBase@omni@@$4PPPPPPPM@CM@AE_WXZ
?get_wchar@DynAnyConstrBase@omni@@$4PPPPPPPM@M@AE_WXZ
?get_wchar@DynAnyConstrBase@omni@@UAE_WXZ
?get_wchar@DynAnyImpl@omni@@$4PPPPPPPM@3AE_WXZ
?get_wchar@DynAnyImpl@omni@@$4PPPPPPPM@7AE_WXZ
?get_wchar@DynAnyImpl@omni@@$4PPPPPPPM@A@AE_WXZ
?get_wchar@DynAnyImpl@omni@@$4PPPPPPPM@M@AE_WXZ
?get_wchar@DynAnyImpl@omni@@UAE_WXZ
?get_wchar@DynUnionImpl@omni@@$4PPPPPPPM@A@AE_WXZ
?get_wchar@DynUnionImpl@omni@@UAE_WXZ
?get_wchar@omniNilDynAny@omni@@$4PPPPPPPM@A@AE_WXZ
?get_wchar@omniNilDynAny@omni@@UAE_WXZ
?get_wchar_seq@DynAnyConstrBase@omni@@$4PPPPPPPM@7AEPAVWCharSeq@CORBA@@XZ
?get_wchar_seq@DynAnyConstrBase@omni@@$4PPPPPPPM@A@AEPAVWCharSeq@CORBA@@XZ
?get_wchar_seq@DynAnyConstrBase@omni@@$4PPPPPPPM@CM@AEPAVWCharSeq@CORBA@@XZ
?get_wchar_seq@DynAnyConstrBase@omni@@$4PPPPPPPM@M@AEPAVWCharSeq@CORBA@@XZ
?get_wchar_seq@DynAnyConstrBase@omni@@UAEPAVWCharSeq@CORBA@@XZ
?get_wchar_seq@DynAnyImpl@omni@@$4PPPPPPPM@3AEPAVWCharSeq@CORBA@@XZ
?get_wchar_seq@DynAnyImpl@omni@@$4PPPPPPPM@7AEPAVWCharSeq@CORBA@@XZ
?get_wchar_seq@DynAnyImpl@omni@@$4PPPPPPPM@A@AEPAVWCharSeq@CORBA@@XZ
?get_wchar_seq@DynAnyImpl@omni@@$4PPPPPPPM@M@AEPAVWCharSeq@CORBA@@XZ
?get_wchar_seq@DynAnyImpl@omni@@UAEPAVWCharSeq@CORBA@@XZ
?get_wchar_seq@DynUnionImpl@omni@@$4PPPPPPPM@A@AEPAVWCharSeq@CORBA@@XZ
?get_wchar_seq@DynUnionImpl@omni@@UAEPAVWCharSeq@CORBA@@XZ
?get_wchar_seq@omniNilDynAny@omni@@$4PPPPPPPM@A@AEPAVWCharSeq@CORBA@@XZ
?get_wchar_seq@omniNilDynAny@omni@@UAEPAVWCharSeq@CORBA@@XZ
?get_wstring@DynAnyConstrBase@omni@@$4PPPPPPPM@7AEPA_WXZ
?get_wstring@DynAnyConstrBase@omni@@$4PPPPPPPM@A@AEPA_WXZ
?get_wstring@DynAnyConstrBase@omni@@$4PPPPPPPM@CM@AEPA_WXZ
?get_wstring@DynAnyConstrBase@omni@@$4PPPPPPPM@M@AEPA_WXZ
?get_wstring@DynAnyConstrBase@omni@@UAEPA_WXZ
?get_wstring@DynAnyImpl@omni@@$4PPPPPPPM@3AEPA_WXZ
?get_wstring@DynAnyImpl@omni@@$4PPPPPPPM@7AEPA_WXZ
?get_wstring@DynAnyImpl@omni@@$4PPPPPPPM@A@AEPA_WXZ
?get_wstring@DynAnyImpl@omni@@$4PPPPPPPM@M@AEPA_WXZ
?get_wstring@DynAnyImpl@omni@@UAEPA_WXZ
?get_wstring@DynUnionImpl@omni@@$4PPPPPPPM@A@AEPA_WXZ
?get_wstring@DynUnionImpl@omni@@UAEPA_WXZ
?get_wstring@omniNilDynAny@omni@@$4PPPPPPPM@A@AEPA_WXZ
?get_wstring@omniNilDynAny@omni@@UAEPA_WXZ
?handleIncompatibleValue@omniValueType@@SAPAVValueBase@CORBA@@PBDKPAV23@W4CompletionStatus@3@@Z
?has_implicit_default@TypeCode_union_helper@omni@@SA_NPAVTypeCode_base@2@@Z
?has_no_active_member@DynUnionImpl@omni@@UAE_NXZ
?has_no_active_member@omniNilDynUnion@omni@@UAE_NXZ
?has_only_simple@TypeCode_alignTable@omni@@QBE_NXZ
?hash_id@omniTypeCodeCollection@omni@@AAEKPBD@Z
?hash_id@omniValueType@@SAKPBD@Z
?hash_ids@omniValueType@@SAKPBU_omni_ValueIds@@@Z
?i_own@TypeCode_alignTable@omni@@ABEHI@Z
?id@TypeCode@CORBA@@QBEPBDXZ
?id@_objref_Contained@CORBA@@QAEPADXZ
?id@_objref_Contained@CORBA@@QAEXPBD@Z
?in@?$_CORBA_ObjRef_Var@V_objref_Container@CORBA@@VContainer_Helper@2@@@QBEPAV_objref_Container@CORBA@@XZ
?in@?$_CORBA_ObjRef_Var@V_objref_IDLType@CORBA@@VIDLType_Helper@2@@@QBEPAV_objref_IDLType@CORBA@@XZ
?in@?$_CORBA_ObjRef_Var@V_objref_ValueDef@CORBA@@VValueDef_Helper@2@@@QBEPAV_objref_ValueDef@CORBA@@XZ
?in@AbstractInterfaceDefSeq_var@CORBA@@QBEABVAbstractInterfaceDefSeq@2@XZ
?in@Any_var@CORBA@@QBEABVAny@2@XZ
?in@ContextIdSeq_var@CORBA@@QBEABVContextIdSeq@2@XZ
?in@EnumMemberSeq_var@CORBA@@QBEABVEnumMemberSeq@2@XZ
?in@ExceptionDefSeq_var@CORBA@@QBEABVExceptionDefSeq@2@XZ
?in@InitializerSeq_var@CORBA@@QBEABVInitializerSeq@2@XZ
?in@InterfaceDefSeq_var@CORBA@@QBEABVInterfaceDefSeq@2@XZ
?in@ParDescriptionSeq_var@CORBA@@QBEABVParDescriptionSeq@2@XZ
?in@StructMemberSeq_var@CORBA@@QBEABVStructMemberSeq@2@XZ
?in@TypeCode_var@CORBA@@QBEPAVTypeCode@2@XZ
?in@UnionMemberSeq_var@CORBA@@QBEABVUnionMemberSeq@2@XZ
?in@ValueBase_var@CORBA@@QBEPAVValueBase@2@XZ
?in@ValueDefSeq_var@CORBA@@QBEABVValueDefSeq@2@XZ
?in@_CORBA_String_var@@QBEPBDXZ
?inMkr@cdrStream@@IAEKW4alignment_t@omni@@@Z
?inMkr@cdrStream@@IAEKXZ
?inTruncatable@OutputValueTracker@omni@@QAE_NXZ
?inc@omni_refcount@@QAEHXZ
?incrRefCount@PseudoObjBase@omni@@QAEXXZ
?initializers@_objref_ValueDef@CORBA@@QAEPAVInitializerSeq@2@XZ
?initializers@_objref_ValueDef@CORBA@@QAEXABVInitializerSeq@2@@Z
?insertLabel@TypeCode_union_helper@omni@@SAXAAVAny@CORBA@@_KPAVTypeCode@4@@Z
?insertToAnyFn@BadKind@TypeCode@CORBA@@2P6AXAAVAny@3@ABVException@3@@ZA
?insertToAnyFn@Bounds@ContextList@CORBA@@2P6AXAAVAny@3@ABVException@3@@ZA
?insertToAnyFn@Bounds@ExceptionList@CORBA@@2P6AXAAVAny@3@ABVException@3@@ZA
?insertToAnyFn@Bounds@NVList@CORBA@@2P6AXAAVAny@3@ABVException@3@@ZA
?insertToAnyFn@Bounds@TypeCode@CORBA@@2P6AXAAVAny@3@ABVException@3@@ZA
?insertToAnyFn@Exception@CORBA@@QBEP6AXAAVAny@2@ABV12@@ZXZ
?insertToAnyFn@InconsistentTypeCode@DynAnyFactory@DynamicAny@@2P6AXAAVAny@CORBA@@ABVException@5@@ZA
?insertToAnyFn@InconsistentTypeCode@ORB@CORBA@@2P6AXAAVAny@3@ABVException@3@@ZA
?insertToAnyFn@InvalidValue@DynAny@DynamicAny@@2P6AXAAVAny@CORBA@@ABVException@5@@ZA
?insertToAnyFn@NoPossiblePollable@PollableSet@CORBA@@2P6AXAAVAny@3@ABVException@3@@ZA
?insertToAnyFn@TypeMismatch@DynAny@DynamicAny@@2P6AXAAVAny@CORBA@@ABVException@5@@ZA
?insertToAnyFn@UnknownPollable@PollableSet@CORBA@@2P6AXAAVAny@3@ABVException@3@@ZA
?insertToAnyFn@UnknownUserException@CORBA@@2P6AXAAVAny@2@ABVException@2@@ZA
?insertToAnyFn@WrongTransaction@CORBA@@2P6AXAAVAny@2@ABVException@2@@ZA
?insertToAnyFnNCP@BadKind@TypeCode@CORBA@@2P6AXAAVAny@3@PBVException@3@@ZA
?insertToAnyFnNCP@Bounds@ContextList@CORBA@@2P6AXAAVAny@3@PBVException@3@@ZA
?insertToAnyFnNCP@Bounds@ExceptionList@CORBA@@2P6AXAAVAny@3@PBVException@3@@ZA
?insertToAnyFnNCP@Bounds@NVList@CORBA@@2P6AXAAVAny@3@PBVException@3@@ZA
?insertToAnyFnNCP@Bounds@TypeCode@CORBA@@2P6AXAAVAny@3@PBVException@3@@ZA
?insertToAnyFnNCP@Exception@CORBA@@QBEP6AXAAVAny@2@PBV12@@ZXZ
?insertToAnyFnNCP@InconsistentTypeCode@DynAnyFactory@DynamicAny@@2P6AXAAVAny@CORBA@@PBVException@5@@ZA
?insertToAnyFnNCP@InconsistentTypeCode@ORB@CORBA@@2P6AXAAVAny@3@PBVException@3@@ZA
?insertToAnyFnNCP@InvalidValue@DynAny@DynamicAny@@2P6AXAAVAny@CORBA@@PBVException@5@@ZA
?insertToAnyFnNCP@NoPossiblePollable@PollableSet@CORBA@@2P6AXAAVAny@3@PBVException@3@@ZA
?insertToAnyFnNCP@TypeMismatch@DynAny@DynamicAny@@2P6AXAAVAny@CORBA@@PBVException@5@@ZA
?insertToAnyFnNCP@UnknownPollable@PollableSet@CORBA@@2P6AXAAVAny@3@PBVException@3@@ZA
?insertToAnyFnNCP@UnknownUserException@CORBA@@2P6AXAAVAny@2@PBVException@2@@ZA
?insertToAnyFnNCP@WrongTransaction@CORBA@@2P6AXAAVAny@2@PBVException@2@@ZA
?insert_abstract@DynAnyConstrBase@omni@@$4PPPPPPPM@7AEXPAVAbstractBase@CORBA@@@Z
?insert_abstract@DynAnyConstrBase@omni@@$4PPPPPPPM@A@AEXPAVAbstractBase@CORBA@@@Z
?insert_abstract@DynAnyConstrBase@omni@@$4PPPPPPPM@CM@AEXPAVAbstractBase@CORBA@@@Z
?insert_abstract@DynAnyConstrBase@omni@@$4PPPPPPPM@M@AEXPAVAbstractBase@CORBA@@@Z
?insert_abstract@DynAnyConstrBase@omni@@UAEXPAVAbstractBase@CORBA@@@Z
?insert_abstract@DynAnyImpl@omni@@$4PPPPPPPM@7AEXPAVAbstractBase@CORBA@@@Z
?insert_abstract@DynAnyImpl@omni@@$4PPPPPPPM@A@AEXPAVAbstractBase@CORBA@@@Z
?insert_abstract@DynAnyImpl@omni@@UAEXPAVAbstractBase@CORBA@@@Z
?insert_abstract@DynUnionDisc@omni@@$4PPPPPPPM@7AEXPAVAbstractBase@CORBA@@@Z
?insert_abstract@DynUnionDisc@omni@@$4PPPPPPPM@A@AEXPAVAbstractBase@CORBA@@@Z
?insert_abstract@DynUnionDisc@omni@@UAEXPAVAbstractBase@CORBA@@@Z
?insert_abstract@DynUnionImpl@omni@@$4PPPPPPPM@A@AEXPAVAbstractBase@CORBA@@@Z
?insert_abstract@DynUnionImpl@omni@@UAEXPAVAbstractBase@CORBA@@@Z
?insert_abstract@omniNilDynAny@omni@@$4PPPPPPPM@A@AEXPAVAbstractBase@CORBA@@@Z
?insert_abstract@omniNilDynAny@omni@@UAEXPAVAbstractBase@CORBA@@@Z
?insert_any@DynAnyConstrBase@omni@@$4PPPPPPPM@7AEXABVAny@CORBA@@@Z
?insert_any@DynAnyConstrBase@omni@@$4PPPPPPPM@A@AEXABVAny@CORBA@@@Z
?insert_any@DynAnyConstrBase@omni@@$4PPPPPPPM@CM@AEXABVAny@CORBA@@@Z
?insert_any@DynAnyConstrBase@omni@@$4PPPPPPPM@M@AEXABVAny@CORBA@@@Z
?insert_any@DynAnyConstrBase@omni@@UAEXABVAny@CORBA@@@Z
?insert_any@DynAnyImpl@omni@@$4PPPPPPPM@7AEXABVAny@CORBA@@@Z
?insert_any@DynAnyImpl@omni@@$4PPPPPPPM@A@AEXABVAny@CORBA@@@Z
?insert_any@DynAnyImpl@omni@@UAEXABVAny@CORBA@@@Z
?insert_any@DynUnionDisc@omni@@$4PPPPPPPM@7AEXABVAny@CORBA@@@Z
?insert_any@DynUnionDisc@omni@@$4PPPPPPPM@A@AEXABVAny@CORBA@@@Z
?insert_any@DynUnionDisc@omni@@UAEXABVAny@CORBA@@@Z
?insert_any@DynUnionImpl@omni@@$4PPPPPPPM@A@AEXABVAny@CORBA@@@Z
?insert_any@DynUnionImpl@omni@@UAEXABVAny@CORBA@@@Z
?insert_any@omniNilDynAny@omni@@$4PPPPPPPM@A@AEXABVAny@CORBA@@@Z
?insert_any@omniNilDynAny@omni@@UAEXABVAny@CORBA@@@Z
?insert_boolean@DynAnyConstrBase@omni@@$4PPPPPPPM@7AEX_N@Z
?insert_boolean@DynAnyConstrBase@omni@@$4PPPPPPPM@A@AEX_N@Z
?insert_boolean@DynAnyConstrBase@omni@@$4PPPPPPPM@CM@AEX_N@Z
?insert_boolean@DynAnyConstrBase@omni@@$4PPPPPPPM@M@AEX_N@Z
?insert_boolean@DynAnyConstrBase@omni@@UAEX_N@Z
?insert_boolean@DynAnyImpl@omni@@$4PPPPPPPM@7AEX_N@Z
?insert_boolean@DynAnyImpl@omni@@$4PPPPPPPM@A@AEX_N@Z
?insert_boolean@DynAnyImpl@omni@@UAEX_N@Z
?insert_boolean@DynUnionDisc@omni@@$4PPPPPPPM@7AEX_N@Z
?insert_boolean@DynUnionDisc@omni@@$4PPPPPPPM@A@AEX_N@Z
?insert_boolean@DynUnionDisc@omni@@UAEX_N@Z
?insert_boolean@DynUnionImpl@omni@@$4PPPPPPPM@A@AEX_N@Z
?insert_boolean@DynUnionImpl@omni@@UAEX_N@Z
?insert_boolean@omniNilDynAny@omni@@$4PPPPPPPM@A@AEX_N@Z
?insert_boolean@omniNilDynAny@omni@@UAEX_N@Z
?insert_boolean_seq@DynAnyConstrBase@omni@@$4PPPPPPPM@7AEXAAVBooleanSeq@CORBA@@@Z
?insert_boolean_seq@DynAnyConstrBase@omni@@$4PPPPPPPM@A@AEXAAVBooleanSeq@CORBA@@@Z
?insert_boolean_seq@DynAnyConstrBase@omni@@$4PPPPPPPM@CM@AEXAAVBooleanSeq@CORBA@@@Z
?insert_boolean_seq@DynAnyConstrBase@omni@@$4PPPPPPPM@M@AEXAAVBooleanSeq@CORBA@@@Z
?insert_boolean_seq@DynAnyConstrBase@omni@@UAEXAAVBooleanSeq@CORBA@@@Z
?insert_boolean_seq@DynAnyImpl@omni@@$4PPPPPPPM@3AEXAAVBooleanSeq@CORBA@@@Z
?insert_boolean_seq@DynAnyImpl@omni@@$4PPPPPPPM@7AEXAAVBooleanSeq@CORBA@@@Z
?insert_boolean_seq@DynAnyImpl@omni@@$4PPPPPPPM@A@AEXAAVBooleanSeq@CORBA@@@Z
?insert_boolean_seq@DynAnyImpl@omni@@$4PPPPPPPM@M@AEXAAVBooleanSeq@CORBA@@@Z
?insert_boolean_seq@DynAnyImpl@omni@@UAEXAAVBooleanSeq@CORBA@@@Z
?insert_boolean_seq@DynUnionImpl@omni@@$4PPPPPPPM@A@AEXAAVBooleanSeq@CORBA@@@Z
?insert_boolean_seq@DynUnionImpl@omni@@UAEXAAVBooleanSeq@CORBA@@@Z
?insert_boolean_seq@omniNilDynAny@omni@@$4PPPPPPPM@A@AEXAAVBooleanSeq@CORBA@@@Z
?insert_boolean_seq@omniNilDynAny@omni@@UAEXAAVBooleanSeq@CORBA@@@Z
?insert_char@DynAnyConstrBase@omni@@$4PPPPPPPM@7AEXE@Z
?insert_char@DynAnyConstrBase@omni@@$4PPPPPPPM@A@AEXE@Z
?insert_char@DynAnyConstrBase@omni@@$4PPPPPPPM@CM@AEXE@Z
?insert_char@DynAnyConstrBase@omni@@$4PPPPPPPM@M@AEXE@Z
?insert_char@DynAnyConstrBase@omni@@UAEXE@Z
?insert_char@DynAnyImpl@omni@@$4PPPPPPPM@7AEXE@Z
?insert_char@DynAnyImpl@omni@@$4PPPPPPPM@A@AEXE@Z
?insert_char@DynAnyImpl@omni@@UAEXE@Z
?insert_char@DynUnionDisc@omni@@$4PPPPPPPM@7AEXE@Z
?insert_char@DynUnionDisc@omni@@$4PPPPPPPM@A@AEXE@Z
?insert_char@DynUnionDisc@omni@@UAEXE@Z
?insert_char@DynUnionImpl@omni@@$4PPPPPPPM@A@AEXE@Z
?insert_char@DynUnionImpl@omni@@UAEXE@Z
?insert_char@omniNilDynAny@omni@@$4PPPPPPPM@A@AEXE@Z
?insert_char@omniNilDynAny@omni@@UAEXE@Z
?insert_char_seq@DynAnyConstrBase@omni@@$4PPPPPPPM@7AEXAAVCharSeq@CORBA@@@Z
?insert_char_seq@DynAnyConstrBase@omni@@$4PPPPPPPM@A@AEXAAVCharSeq@CORBA@@@Z
?insert_char_seq@DynAnyConstrBase@omni@@$4PPPPPPPM@CM@AEXAAVCharSeq@CORBA@@@Z
?insert_char_seq@DynAnyConstrBase@omni@@$4PPPPPPPM@M@AEXAAVCharSeq@CORBA@@@Z
?insert_char_seq@DynAnyConstrBase@omni@@UAEXAAVCharSeq@CORBA@@@Z
?insert_char_seq@DynAnyImpl@omni@@$4PPPPPPPM@3AEXAAVCharSeq@CORBA@@@Z
?insert_char_seq@DynAnyImpl@omni@@$4PPPPPPPM@7AEXAAVCharSeq@CORBA@@@Z
?insert_char_seq@DynAnyImpl@omni@@$4PPPPPPPM@A@AEXAAVCharSeq@CORBA@@@Z
?insert_char_seq@DynAnyImpl@omni@@$4PPPPPPPM@M@AEXAAVCharSeq@CORBA@@@Z
?insert_char_seq@DynAnyImpl@omni@@UAEXAAVCharSeq@CORBA@@@Z
?insert_char_seq@DynUnionImpl@omni@@$4PPPPPPPM@A@AEXAAVCharSeq@CORBA@@@Z
?insert_char_seq@DynUnionImpl@omni@@UAEXAAVCharSeq@CORBA@@@Z
?insert_char_seq@omniNilDynAny@omni@@$4PPPPPPPM@A@AEXAAVCharSeq@CORBA@@@Z
?insert_char_seq@omniNilDynAny@omni@@UAEXAAVCharSeq@CORBA@@@Z
?insert_double@DynAnyConstrBase@omni@@$4PPPPPPPM@7AEXN@Z
?insert_double@DynAnyConstrBase@omni@@$4PPPPPPPM@A@AEXN@Z
?insert_double@DynAnyConstrBase@omni@@$4PPPPPPPM@CM@AEXN@Z
?insert_double@DynAnyConstrBase@omni@@$4PPPPPPPM@M@AEXN@Z
?insert_double@DynAnyConstrBase@omni@@UAEXN@Z
?insert_double@DynAnyImpl@omni@@$4PPPPPPPM@7AEXN@Z
?insert_double@DynAnyImpl@omni@@$4PPPPPPPM@A@AEXN@Z
?insert_double@DynAnyImpl@omni@@UAEXN@Z
?insert_double@DynUnionDisc@omni@@$4PPPPPPPM@7AEXN@Z
?insert_double@DynUnionDisc@omni@@$4PPPPPPPM@A@AEXN@Z
?insert_double@DynUnionDisc@omni@@UAEXN@Z
?insert_double@DynUnionImpl@omni@@$4PPPPPPPM@A@AEXN@Z
?insert_double@DynUnionImpl@omni@@UAEXN@Z
?insert_double@omniNilDynAny@omni@@$4PPPPPPPM@A@AEXN@Z
?insert_double@omniNilDynAny@omni@@UAEXN@Z
?insert_double_seq@DynAnyConstrBase@omni@@$4PPPPPPPM@7AEXAAVDoubleSeq@CORBA@@@Z
?insert_double_seq@DynAnyConstrBase@omni@@$4PPPPPPPM@A@AEXAAVDoubleSeq@CORBA@@@Z
?insert_double_seq@DynAnyConstrBase@omni@@$4PPPPPPPM@CM@AEXAAVDoubleSeq@CORBA@@@Z
?insert_double_seq@DynAnyConstrBase@omni@@$4PPPPPPPM@M@AEXAAVDoubleSeq@CORBA@@@Z
?insert_double_seq@DynAnyConstrBase@omni@@UAEXAAVDoubleSeq@CORBA@@@Z
?insert_double_seq@DynAnyImpl@omni@@$4PPPPPPPM@3AEXAAVDoubleSeq@CORBA@@@Z
?insert_double_seq@DynAnyImpl@omni@@$4PPPPPPPM@7AEXAAVDoubleSeq@CORBA@@@Z
?insert_double_seq@DynAnyImpl@omni@@$4PPPPPPPM@A@AEXAAVDoubleSeq@CORBA@@@Z
?insert_double_seq@DynAnyImpl@omni@@$4PPPPPPPM@M@AEXAAVDoubleSeq@CORBA@@@Z
?insert_double_seq@DynAnyImpl@omni@@UAEXAAVDoubleSeq@CORBA@@@Z
?insert_double_seq@DynUnionImpl@omni@@$4PPPPPPPM@A@AEXAAVDoubleSeq@CORBA@@@Z
?insert_double_seq@DynUnionImpl@omni@@UAEXAAVDoubleSeq@CORBA@@@Z
?insert_double_seq@omniNilDynAny@omni@@$4PPPPPPPM@A@AEXAAVDoubleSeq@CORBA@@@Z
?insert_double_seq@omniNilDynAny@omni@@UAEXAAVDoubleSeq@CORBA@@@Z
?insert_dyn_any@DynAnyConstrBase@omni@@$4PPPPPPPM@7AEXPAVDynAny@DynamicAny@@@Z
?insert_dyn_any@DynAnyConstrBase@omni@@$4PPPPPPPM@A@AEXPAVDynAny@DynamicAny@@@Z
?insert_dyn_any@DynAnyConstrBase@omni@@$4PPPPPPPM@CM@AEXPAVDynAny@DynamicAny@@@Z
?insert_dyn_any@DynAnyConstrBase@omni@@$4PPPPPPPM@M@AEXPAVDynAny@DynamicAny@@@Z
?insert_dyn_any@DynAnyConstrBase@omni@@UAEXPAVDynAny@DynamicAny@@@Z
?insert_dyn_any@DynAnyImpl@omni@@$4PPPPPPPM@7AEXPAVDynAny@DynamicAny@@@Z
?insert_dyn_any@DynAnyImpl@omni@@$4PPPPPPPM@A@AEXPAVDynAny@DynamicAny@@@Z
?insert_dyn_any@DynAnyImpl@omni@@UAEXPAVDynAny@DynamicAny@@@Z
?insert_dyn_any@DynUnionDisc@omni@@$4PPPPPPPM@7AEXPAVDynAny@DynamicAny@@@Z
?insert_dyn_any@DynUnionDisc@omni@@$4PPPPPPPM@A@AEXPAVDynAny@DynamicAny@@@Z
?insert_dyn_any@DynUnionDisc@omni@@UAEXPAVDynAny@DynamicAny@@@Z
?insert_dyn_any@DynUnionImpl@omni@@$4PPPPPPPM@A@AEXPAVDynAny@DynamicAny@@@Z
?insert_dyn_any@DynUnionImpl@omni@@UAEXPAVDynAny@DynamicAny@@@Z
?insert_dyn_any@omniNilDynAny@omni@@$4PPPPPPPM@A@AEXPAVDynAny@DynamicAny@@@Z
?insert_dyn_any@omniNilDynAny@omni@@UAEXPAVDynAny@DynamicAny@@@Z
?insert_float@DynAnyConstrBase@omni@@$4PPPPPPPM@7AEXM@Z
?insert_float@DynAnyConstrBase@omni@@$4PPPPPPPM@A@AEXM@Z
?insert_float@DynAnyConstrBase@omni@@$4PPPPPPPM@CM@AEXM@Z
?insert_float@DynAnyConstrBase@omni@@$4PPPPPPPM@M@AEXM@Z
?insert_float@DynAnyConstrBase@omni@@UAEXM@Z
?insert_float@DynAnyImpl@omni@@$4PPPPPPPM@7AEXM@Z
?insert_float@DynAnyImpl@omni@@$4PPPPPPPM@A@AEXM@Z
?insert_float@DynAnyImpl@omni@@UAEXM@Z
?insert_float@DynUnionDisc@omni@@$4PPPPPPPM@7AEXM@Z
?insert_float@DynUnionDisc@omni@@$4PPPPPPPM@A@AEXM@Z
?insert_float@DynUnionDisc@omni@@UAEXM@Z
?insert_float@DynUnionImpl@omni@@$4PPPPPPPM@A@AEXM@Z
?insert_float@DynUnionImpl@omni@@UAEXM@Z
?insert_float@omniNilDynAny@omni@@$4PPPPPPPM@A@AEXM@Z
?insert_float@omniNilDynAny@omni@@UAEXM@Z
?insert_float_seq@DynAnyConstrBase@omni@@$4PPPPPPPM@7AEXAAVFloatSeq@CORBA@@@Z
?insert_float_seq@DynAnyConstrBase@omni@@$4PPPPPPPM@A@AEXAAVFloatSeq@CORBA@@@Z
?insert_float_seq@DynAnyConstrBase@omni@@$4PPPPPPPM@CM@AEXAAVFloatSeq@CORBA@@@Z
?insert_float_seq@DynAnyConstrBase@omni@@$4PPPPPPPM@M@AEXAAVFloatSeq@CORBA@@@Z
?insert_float_seq@DynAnyConstrBase@omni@@UAEXAAVFloatSeq@CORBA@@@Z
?insert_float_seq@DynAnyImpl@omni@@$4PPPPPPPM@3AEXAAVFloatSeq@CORBA@@@Z
?insert_float_seq@DynAnyImpl@omni@@$4PPPPPPPM@7AEXAAVFloatSeq@CORBA@@@Z
?insert_float_seq@DynAnyImpl@omni@@$4PPPPPPPM@A@AEXAAVFloatSeq@CORBA@@@Z
?insert_float_seq@DynAnyImpl@omni@@$4PPPPPPPM@M@AEXAAVFloatSeq@CORBA@@@Z
?insert_float_seq@DynAnyImpl@omni@@UAEXAAVFloatSeq@CORBA@@@Z
?insert_float_seq@DynUnionImpl@omni@@$4PPPPPPPM@A@AEXAAVFloatSeq@CORBA@@@Z
?insert_float_seq@DynUnionImpl@omni@@UAEXAAVFloatSeq@CORBA@@@Z
?insert_float_seq@omniNilDynAny@omni@@$4PPPPPPPM@A@AEXAAVFloatSeq@CORBA@@@Z
?insert_float_seq@omniNilDynAny@omni@@UAEXAAVFloatSeq@CORBA@@@Z
?insert_long@DynAnyConstrBase@omni@@$4PPPPPPPM@7AEXJ@Z
?insert_long@DynAnyConstrBase@omni@@$4PPPPPPPM@A@AEXJ@Z
?insert_long@DynAnyConstrBase@omni@@$4PPPPPPPM@CM@AEXJ@Z
?insert_long@DynAnyConstrBase@omni@@$4PPPPPPPM@M@AEXJ@Z
?insert_long@DynAnyConstrBase@omni@@UAEXJ@Z
?insert_long@DynAnyImpl@omni@@$4PPPPPPPM@7AEXJ@Z
?insert_long@DynAnyImpl@omni@@$4PPPPPPPM@A@AEXJ@Z
?insert_long@DynAnyImpl@omni@@UAEXJ@Z
?insert_long@DynUnionDisc@omni@@$4PPPPPPPM@7AEXJ@Z
?insert_long@DynUnionDisc@omni@@$4PPPPPPPM@A@AEXJ@Z
?insert_long@DynUnionDisc@omni@@UAEXJ@Z
?insert_long@DynUnionImpl@omni@@$4PPPPPPPM@A@AEXJ@Z
?insert_long@DynUnionImpl@omni@@UAEXJ@Z
?insert_long@omniNilDynAny@omni@@$4PPPPPPPM@A@AEXJ@Z
?insert_long@omniNilDynAny@omni@@UAEXJ@Z
?insert_long_seq@DynAnyConstrBase@omni@@$4PPPPPPPM@7AEXAAVLongSeq@CORBA@@@Z
?insert_long_seq@DynAnyConstrBase@omni@@$4PPPPPPPM@A@AEXAAVLongSeq@CORBA@@@Z
?insert_long_seq@DynAnyConstrBase@omni@@$4PPPPPPPM@CM@AEXAAVLongSeq@CORBA@@@Z
?insert_long_seq@DynAnyConstrBase@omni@@$4PPPPPPPM@M@AEXAAVLongSeq@CORBA@@@Z
?insert_long_seq@DynAnyConstrBase@omni@@UAEXAAVLongSeq@CORBA@@@Z
?insert_long_seq@DynAnyImpl@omni@@$4PPPPPPPM@3AEXAAVLongSeq@CORBA@@@Z
?insert_long_seq@DynAnyImpl@omni@@$4PPPPPPPM@7AEXAAVLongSeq@CORBA@@@Z
?insert_long_seq@DynAnyImpl@omni@@$4PPPPPPPM@A@AEXAAVLongSeq@CORBA@@@Z
?insert_long_seq@DynAnyImpl@omni@@$4PPPPPPPM@M@AEXAAVLongSeq@CORBA@@@Z
?insert_long_seq@DynAnyImpl@omni@@UAEXAAVLongSeq@CORBA@@@Z
?insert_long_seq@DynUnionImpl@omni@@$4PPPPPPPM@A@AEXAAVLongSeq@CORBA@@@Z
?insert_long_seq@DynUnionImpl@omni@@UAEXAAVLongSeq@CORBA@@@Z
?insert_long_seq@omniNilDynAny@omni@@$4PPPPPPPM@A@AEXAAVLongSeq@CORBA@@@Z
?insert_long_seq@omniNilDynAny@omni@@UAEXAAVLongSeq@CORBA@@@Z
?insert_longlong@DynAnyConstrBase@omni@@$4PPPPPPPM@7AEX_J@Z
?insert_longlong@DynAnyConstrBase@omni@@$4PPPPPPPM@A@AEX_J@Z
?insert_longlong@DynAnyConstrBase@omni@@$4PPPPPPPM@CM@AEX_J@Z
?insert_longlong@DynAnyConstrBase@omni@@$4PPPPPPPM@M@AEX_J@Z
?insert_longlong@DynAnyConstrBase@omni@@UAEX_J@Z
?insert_longlong@DynAnyImpl@omni@@$4PPPPPPPM@7AEX_J@Z
?insert_longlong@DynAnyImpl@omni@@$4PPPPPPPM@A@AEX_J@Z
?insert_longlong@DynAnyImpl@omni@@UAEX_J@Z
?insert_longlong@DynUnionDisc@omni@@$4PPPPPPPM@7AEX_J@Z
?insert_longlong@DynUnionDisc@omni@@$4PPPPPPPM@A@AEX_J@Z
?insert_longlong@DynUnionDisc@omni@@UAEX_J@Z
?insert_longlong@DynUnionImpl@omni@@$4PPPPPPPM@A@AEX_J@Z
?insert_longlong@DynUnionImpl@omni@@UAEX_J@Z
?insert_longlong@omniNilDynAny@omni@@$4PPPPPPPM@A@AEX_J@Z
?insert_longlong@omniNilDynAny@omni@@UAEX_J@Z
?insert_longlong_seq@DynAnyConstrBase@omni@@$4PPPPPPPM@7AEXAAVLongLongSeq@CORBA@@@Z
?insert_longlong_seq@DynAnyConstrBase@omni@@$4PPPPPPPM@A@AEXAAVLongLongSeq@CORBA@@@Z
?insert_longlong_seq@DynAnyConstrBase@omni@@$4PPPPPPPM@CM@AEXAAVLongLongSeq@CORBA@@@Z
?insert_longlong_seq@DynAnyConstrBase@omni@@$4PPPPPPPM@M@AEXAAVLongLongSeq@CORBA@@@Z
?insert_longlong_seq@DynAnyConstrBase@omni@@UAEXAAVLongLongSeq@CORBA@@@Z
?insert_longlong_seq@DynAnyImpl@omni@@$4PPPPPPPM@3AEXAAVLongLongSeq@CORBA@@@Z
?insert_longlong_seq@DynAnyImpl@omni@@$4PPPPPPPM@7AEXAAVLongLongSeq@CORBA@@@Z
?insert_longlong_seq@DynAnyImpl@omni@@$4PPPPPPPM@A@AEXAAVLongLongSeq@CORBA@@@Z
?insert_longlong_seq@DynAnyImpl@omni@@$4PPPPPPPM@M@AEXAAVLongLongSeq@CORBA@@@Z
?insert_longlong_seq@DynAnyImpl@omni@@UAEXAAVLongLongSeq@CORBA@@@Z
?insert_longlong_seq@DynUnionImpl@omni@@$4PPPPPPPM@A@AEXAAVLongLongSeq@CORBA@@@Z
?insert_longlong_seq@DynUnionImpl@omni@@UAEXAAVLongLongSeq@CORBA@@@Z
?insert_longlong_seq@omniNilDynAny@omni@@$4PPPPPPPM@A@AEXAAVLongLongSeq@CORBA@@@Z
?insert_longlong_seq@omniNilDynAny@omni@@UAEXAAVLongLongSeq@CORBA@@@Z
?insert_octet@DynAnyConstrBase@omni@@$4PPPPPPPM@7AEXE@Z
?insert_octet@DynAnyConstrBase@omni@@$4PPPPPPPM@A@AEXE@Z
?insert_octet@DynAnyConstrBase@omni@@$4PPPPPPPM@CM@AEXE@Z
?insert_octet@DynAnyConstrBase@omni@@$4PPPPPPPM@M@AEXE@Z
?insert_octet@DynAnyConstrBase@omni@@UAEXE@Z
?insert_octet@DynAnyImpl@omni@@$4PPPPPPPM@7AEXE@Z
?insert_octet@DynAnyImpl@omni@@$4PPPPPPPM@A@AEXE@Z
?insert_octet@DynAnyImpl@omni@@UAEXE@Z
?insert_octet@DynUnionDisc@omni@@$4PPPPPPPM@7AEXE@Z
?insert_octet@DynUnionDisc@omni@@$4PPPPPPPM@A@AEXE@Z
?insert_octet@DynUnionDisc@omni@@UAEXE@Z
?insert_octet@DynUnionImpl@omni@@$4PPPPPPPM@A@AEXE@Z
?insert_octet@DynUnionImpl@omni@@UAEXE@Z
?insert_octet@omniNilDynAny@omni@@$4PPPPPPPM@A@AEXE@Z
?insert_octet@omniNilDynAny@omni@@UAEXE@Z
?insert_octet_seq@DynAnyConstrBase@omni@@$4PPPPPPPM@7AEXAAVOctetSeq@CORBA@@@Z
?insert_octet_seq@DynAnyConstrBase@omni@@$4PPPPPPPM@A@AEXAAVOctetSeq@CORBA@@@Z
?insert_octet_seq@DynAnyConstrBase@omni@@$4PPPPPPPM@CM@AEXAAVOctetSeq@CORBA@@@Z
?insert_octet_seq@DynAnyConstrBase@omni@@$4PPPPPPPM@M@AEXAAVOctetSeq@CORBA@@@Z
?insert_octet_seq@DynAnyConstrBase@omni@@UAEXAAVOctetSeq@CORBA@@@Z
?insert_octet_seq@DynAnyImpl@omni@@$4PPPPPPPM@3AEXAAVOctetSeq@CORBA@@@Z
?insert_octet_seq@DynAnyImpl@omni@@$4PPPPPPPM@7AEXAAVOctetSeq@CORBA@@@Z
?insert_octet_seq@DynAnyImpl@omni@@$4PPPPPPPM@A@AEXAAVOctetSeq@CORBA@@@Z
?insert_octet_seq@DynAnyImpl@omni@@$4PPPPPPPM@M@AEXAAVOctetSeq@CORBA@@@Z
?insert_octet_seq@DynAnyImpl@omni@@UAEXAAVOctetSeq@CORBA@@@Z
?insert_octet_seq@DynUnionImpl@omni@@$4PPPPPPPM@A@AEXAAVOctetSeq@CORBA@@@Z
?insert_octet_seq@DynUnionImpl@omni@@UAEXAAVOctetSeq@CORBA@@@Z
?insert_octet_seq@omniNilDynAny@omni@@$4PPPPPPPM@A@AEXAAVOctetSeq@CORBA@@@Z
?insert_octet_seq@omniNilDynAny@omni@@UAEXAAVOctetSeq@CORBA@@@Z
?insert_reference@DynAnyConstrBase@omni@@$4PPPPPPPM@7AEXPAVObject@CORBA@@@Z
?insert_reference@DynAnyConstrBase@omni@@$4PPPPPPPM@A@AEXPAVObject@CORBA@@@Z
?insert_reference@DynAnyConstrBase@omni@@$4PPPPPPPM@CM@AEXPAVObject@CORBA@@@Z
?insert_reference@DynAnyConstrBase@omni@@$4PPPPPPPM@M@AEXPAVObject@CORBA@@@Z
?insert_reference@DynAnyConstrBase@omni@@UAEXPAVObject@CORBA@@@Z
?insert_reference@DynAnyImpl@omni@@$4PPPPPPPM@7AEXPAVObject@CORBA@@@Z
?insert_reference@DynAnyImpl@omni@@$4PPPPPPPM@A@AEXPAVObject@CORBA@@@Z
?insert_reference@DynAnyImpl@omni@@UAEXPAVObject@CORBA@@@Z
?insert_reference@DynUnionDisc@omni@@$4PPPPPPPM@7AEXPAVObject@CORBA@@@Z
?insert_reference@DynUnionDisc@omni@@$4PPPPPPPM@A@AEXPAVObject@CORBA@@@Z
?insert_reference@DynUnionDisc@omni@@UAEXPAVObject@CORBA@@@Z
?insert_reference@DynUnionImpl@omni@@$4PPPPPPPM@A@AEXPAVObject@CORBA@@@Z
?insert_reference@DynUnionImpl@omni@@UAEXPAVObject@CORBA@@@Z
?insert_reference@omniNilDynAny@omni@@$4PPPPPPPM@A@AEXPAVObject@CORBA@@@Z
?insert_reference@omniNilDynAny@omni@@UAEXPAVObject@CORBA@@@Z
?insert_short@DynAnyConstrBase@omni@@$4PPPPPPPM@7AEXF@Z
?insert_short@DynAnyConstrBase@omni@@$4PPPPPPPM@A@AEXF@Z
?insert_short@DynAnyConstrBase@omni@@$4PPPPPPPM@CM@AEXF@Z
?insert_short@DynAnyConstrBase@omni@@$4PPPPPPPM@M@AEXF@Z
?insert_short@DynAnyConstrBase@omni@@UAEXF@Z
?insert_short@DynAnyImpl@omni@@$4PPPPPPPM@7AEXF@Z
?insert_short@DynAnyImpl@omni@@$4PPPPPPPM@A@AEXF@Z
?insert_short@DynAnyImpl@omni@@UAEXF@Z
?insert_short@DynUnionDisc@omni@@$4PPPPPPPM@7AEXF@Z
?insert_short@DynUnionDisc@omni@@$4PPPPPPPM@A@AEXF@Z
?insert_short@DynUnionDisc@omni@@UAEXF@Z
?insert_short@DynUnionImpl@omni@@$4PPPPPPPM@A@AEXF@Z
?insert_short@DynUnionImpl@omni@@UAEXF@Z
?insert_short@omniNilDynAny@omni@@$4PPPPPPPM@A@AEXF@Z
?insert_short@omniNilDynAny@omni@@UAEXF@Z
?insert_short_seq@DynAnyConstrBase@omni@@$4PPPPPPPM@7AEXAAVShortSeq@CORBA@@@Z
?insert_short_seq@DynAnyConstrBase@omni@@$4PPPPPPPM@A@AEXAAVShortSeq@CORBA@@@Z
?insert_short_seq@DynAnyConstrBase@omni@@$4PPPPPPPM@CM@AEXAAVShortSeq@CORBA@@@Z
?insert_short_seq@DynAnyConstrBase@omni@@$4PPPPPPPM@M@AEXAAVShortSeq@CORBA@@@Z
?insert_short_seq@DynAnyConstrBase@omni@@UAEXAAVShortSeq@CORBA@@@Z
?insert_short_seq@DynAnyImpl@omni@@$4PPPPPPPM@3AEXAAVShortSeq@CORBA@@@Z
?insert_short_seq@DynAnyImpl@omni@@$4PPPPPPPM@7AEXAAVShortSeq@CORBA@@@Z
?insert_short_seq@DynAnyImpl@omni@@$4PPPPPPPM@A@AEXAAVShortSeq@CORBA@@@Z
?insert_short_seq@DynAnyImpl@omni@@$4PPPPPPPM@M@AEXAAVShortSeq@CORBA@@@Z
?insert_short_seq@DynAnyImpl@omni@@UAEXAAVShortSeq@CORBA@@@Z
?insert_short_seq@DynUnionImpl@omni@@$4PPPPPPPM@A@AEXAAVShortSeq@CORBA@@@Z
?insert_short_seq@DynUnionImpl@omni@@UAEXAAVShortSeq@CORBA@@@Z
?insert_short_seq@omniNilDynAny@omni@@$4PPPPPPPM@A@AEXAAVShortSeq@CORBA@@@Z
?insert_short_seq@omniNilDynAny@omni@@UAEXAAVShortSeq@CORBA@@@Z
?insert_single_consume@ContextImpl@omni@@QAEXPAD0@Z
?insert_string@DynAnyConstrBase@omni@@$4PPPPPPPM@7AEXPBD@Z
?insert_string@DynAnyConstrBase@omni@@$4PPPPPPPM@A@AEXPBD@Z
?insert_string@DynAnyConstrBase@omni@@$4PPPPPPPM@CM@AEXPBD@Z
?insert_string@DynAnyConstrBase@omni@@$4PPPPPPPM@M@AEXPBD@Z
?insert_string@DynAnyConstrBase@omni@@UAEXPBD@Z
?insert_string@DynAnyImpl@omni@@$4PPPPPPPM@7AEXPBD@Z
?insert_string@DynAnyImpl@omni@@$4PPPPPPPM@A@AEXPBD@Z
?insert_string@DynAnyImpl@omni@@UAEXPBD@Z
?insert_string@DynUnionDisc@omni@@$4PPPPPPPM@7AEXPBD@Z
?insert_string@DynUnionDisc@omni@@$4PPPPPPPM@A@AEXPBD@Z
?insert_string@DynUnionDisc@omni@@UAEXPBD@Z
?insert_string@DynUnionImpl@omni@@$4PPPPPPPM@A@AEXPBD@Z
?insert_string@DynUnionImpl@omni@@UAEXPBD@Z
?insert_string@omniNilDynAny@omni@@$4PPPPPPPM@A@AEXPBD@Z
?insert_string@omniNilDynAny@omni@@UAEXPBD@Z
?insert_typecode@DynAnyConstrBase@omni@@$4PPPPPPPM@7AEXPAVTypeCode@CORBA@@@Z
?insert_typecode@DynAnyConstrBase@omni@@$4PPPPPPPM@A@AEXPAVTypeCode@CORBA@@@Z
?insert_typecode@DynAnyConstrBase@omni@@$4PPPPPPPM@CM@AEXPAVTypeCode@CORBA@@@Z
?insert_typecode@DynAnyConstrBase@omni@@$4PPPPPPPM@M@AEXPAVTypeCode@CORBA@@@Z
?insert_typecode@DynAnyConstrBase@omni@@UAEXPAVTypeCode@CORBA@@@Z
?insert_typecode@DynAnyImpl@omni@@$4PPPPPPPM@7AEXPAVTypeCode@CORBA@@@Z
?insert_typecode@DynAnyImpl@omni@@$4PPPPPPPM@A@AEXPAVTypeCode@CORBA@@@Z
?insert_typecode@DynAnyImpl@omni@@UAEXPAVTypeCode@CORBA@@@Z
?insert_typecode@DynUnionDisc@omni@@$4PPPPPPPM@7AEXPAVTypeCode@CORBA@@@Z
?insert_typecode@DynUnionDisc@omni@@$4PPPPPPPM@A@AEXPAVTypeCode@CORBA@@@Z
?insert_typecode@DynUnionDisc@omni@@UAEXPAVTypeCode@CORBA@@@Z
?insert_typecode@DynUnionImpl@omni@@$4PPPPPPPM@A@AEXPAVTypeCode@CORBA@@@Z
?insert_typecode@DynUnionImpl@omni@@UAEXPAVTypeCode@CORBA@@@Z
?insert_typecode@omniNilDynAny@omni@@$4PPPPPPPM@A@AEXPAVTypeCode@CORBA@@@Z
?insert_typecode@omniNilDynAny@omni@@UAEXPAVTypeCode@CORBA@@@Z
?insert_ulong@DynAnyConstrBase@omni@@$4PPPPPPPM@7AEXK@Z
?insert_ulong@DynAnyConstrBase@omni@@$4PPPPPPPM@A@AEXK@Z
?insert_ulong@DynAnyConstrBase@omni@@$4PPPPPPPM@CM@AEXK@Z
?insert_ulong@DynAnyConstrBase@omni@@$4PPPPPPPM@M@AEXK@Z
?insert_ulong@DynAnyConstrBase@omni@@UAEXK@Z
?insert_ulong@DynAnyImpl@omni@@$4PPPPPPPM@7AEXK@Z
?insert_ulong@DynAnyImpl@omni@@$4PPPPPPPM@A@AEXK@Z
?insert_ulong@DynAnyImpl@omni@@UAEXK@Z
?insert_ulong@DynUnionDisc@omni@@$4PPPPPPPM@7AEXK@Z
?insert_ulong@DynUnionDisc@omni@@$4PPPPPPPM@A@AEXK@Z
?insert_ulong@DynUnionDisc@omni@@UAEXK@Z
?insert_ulong@DynUnionImpl@omni@@$4PPPPPPPM@A@AEXK@Z
?insert_ulong@DynUnionImpl@omni@@UAEXK@Z
?insert_ulong@omniNilDynAny@omni@@$4PPPPPPPM@A@AEXK@Z
?insert_ulong@omniNilDynAny@omni@@UAEXK@Z
?insert_ulong_seq@DynAnyConstrBase@omni@@$4PPPPPPPM@7AEXAAVULongSeq@CORBA@@@Z
?insert_ulong_seq@DynAnyConstrBase@omni@@$4PPPPPPPM@A@AEXAAVULongSeq@CORBA@@@Z
?insert_ulong_seq@DynAnyConstrBase@omni@@$4PPPPPPPM@CM@AEXAAVULongSeq@CORBA@@@Z
?insert_ulong_seq@DynAnyConstrBase@omni@@$4PPPPPPPM@M@AEXAAVULongSeq@CORBA@@@Z
?insert_ulong_seq@DynAnyConstrBase@omni@@UAEXAAVULongSeq@CORBA@@@Z
?insert_ulong_seq@DynAnyImpl@omni@@$4PPPPPPPM@3AEXAAVULongSeq@CORBA@@@Z
?insert_ulong_seq@DynAnyImpl@omni@@$4PPPPPPPM@7AEXAAVULongSeq@CORBA@@@Z
?insert_ulong_seq@DynAnyImpl@omni@@$4PPPPPPPM@A@AEXAAVULongSeq@CORBA@@@Z
?insert_ulong_seq@DynAnyImpl@omni@@$4PPPPPPPM@M@AEXAAVULongSeq@CORBA@@@Z
?insert_ulong_seq@DynAnyImpl@omni@@UAEXAAVULongSeq@CORBA@@@Z
?insert_ulong_seq@DynUnionImpl@omni@@$4PPPPPPPM@A@AEXAAVULongSeq@CORBA@@@Z
?insert_ulong_seq@DynUnionImpl@omni@@UAEXAAVULongSeq@CORBA@@@Z
?insert_ulong_seq@omniNilDynAny@omni@@$4PPPPPPPM@A@AEXAAVULongSeq@CORBA@@@Z
?insert_ulong_seq@omniNilDynAny@omni@@UAEXAAVULongSeq@CORBA@@@Z
?insert_ulonglong@DynAnyConstrBase@omni@@$4PPPPPPPM@7AEX_K@Z
?insert_ulonglong@DynAnyConstrBase@omni@@$4PPPPPPPM@A@AEX_K@Z
?insert_ulonglong@DynAnyConstrBase@omni@@$4PPPPPPPM@CM@AEX_K@Z
?insert_ulonglong@DynAnyConstrBase@omni@@$4PPPPPPPM@M@AEX_K@Z
?insert_ulonglong@DynAnyConstrBase@omni@@UAEX_K@Z
?insert_ulonglong@DynAnyImpl@omni@@$4PPPPPPPM@7AEX_K@Z
?insert_ulonglong@DynAnyImpl@omni@@$4PPPPPPPM@A@AEX_K@Z
?insert_ulonglong@DynAnyImpl@omni@@UAEX_K@Z
?insert_ulonglong@DynUnionDisc@omni@@$4PPPPPPPM@7AEX_K@Z
?insert_ulonglong@DynUnionDisc@omni@@$4PPPPPPPM@A@AEX_K@Z
?insert_ulonglong@DynUnionDisc@omni@@UAEX_K@Z
?insert_ulonglong@DynUnionImpl@omni@@$4PPPPPPPM@A@AEX_K@Z
?insert_ulonglong@DynUnionImpl@omni@@UAEX_K@Z
?insert_ulonglong@omniNilDynAny@omni@@$4PPPPPPPM@A@AEX_K@Z
?insert_ulonglong@omniNilDynAny@omni@@UAEX_K@Z
?insert_ulonglong_seq@DynAnyConstrBase@omni@@$4PPPPPPPM@7AEXAAVULongLongSeq@CORBA@@@Z
?insert_ulonglong_seq@DynAnyConstrBase@omni@@$4PPPPPPPM@A@AEXAAVULongLongSeq@CORBA@@@Z
?insert_ulonglong_seq@DynAnyConstrBase@omni@@$4PPPPPPPM@CM@AEXAAVULongLongSeq@CORBA@@@Z
?insert_ulonglong_seq@DynAnyConstrBase@omni@@$4PPPPPPPM@M@AEXAAVULongLongSeq@CORBA@@@Z
?insert_ulonglong_seq@DynAnyConstrBase@omni@@UAEXAAVULongLongSeq@CORBA@@@Z
?insert_ulonglong_seq@DynAnyImpl@omni@@$4PPPPPPPM@3AEXAAVULongLongSeq@CORBA@@@Z
?insert_ulonglong_seq@DynAnyImpl@omni@@$4PPPPPPPM@7AEXAAVULongLongSeq@CORBA@@@Z
?insert_ulonglong_seq@DynAnyImpl@omni@@$4PPPPPPPM@A@AEXAAVULongLongSeq@CORBA@@@Z
?insert_ulonglong_seq@DynAnyImpl@omni@@$4PPPPPPPM@M@AEXAAVULongLongSeq@CORBA@@@Z
?insert_ulonglong_seq@DynAnyImpl@omni@@UAEXAAVULongLongSeq@CORBA@@@Z
?insert_ulonglong_seq@DynUnionImpl@omni@@$4PPPPPPPM@A@AEXAAVULongLongSeq@CORBA@@@Z
?insert_ulonglong_seq@DynUnionImpl@omni@@UAEXAAVULongLongSeq@CORBA@@@Z
?insert_ulonglong_seq@omniNilDynAny@omni@@$4PPPPPPPM@A@AEXAAVULongLongSeq@CORBA@@@Z
?insert_ulonglong_seq@omniNilDynAny@omni@@UAEXAAVULongLongSeq@CORBA@@@Z
?insert_ushort@DynAnyConstrBase@omni@@$4PPPPPPPM@7AEXG@Z
?insert_ushort@DynAnyConstrBase@omni@@$4PPPPPPPM@A@AEXG@Z
?insert_ushort@DynAnyConstrBase@omni@@$4PPPPPPPM@CM@AEXG@Z
?insert_ushort@DynAnyConstrBase@omni@@$4PPPPPPPM@M@AEXG@Z
?insert_ushort@DynAnyConstrBase@omni@@UAEXG@Z
?insert_ushort@DynAnyImpl@omni@@$4PPPPPPPM@7AEXG@Z
?insert_ushort@DynAnyImpl@omni@@$4PPPPPPPM@A@AEXG@Z
?insert_ushort@DynAnyImpl@omni@@UAEXG@Z
?insert_ushort@DynUnionDisc@omni@@$4PPPPPPPM@7AEXG@Z
?insert_ushort@DynUnionDisc@omni@@$4PPPPPPPM@A@AEXG@Z
?insert_ushort@DynUnionDisc@omni@@UAEXG@Z
?insert_ushort@DynUnionImpl@omni@@$4PPPPPPPM@A@AEXG@Z
?insert_ushort@DynUnionImpl@omni@@UAEXG@Z
?insert_ushort@omniNilDynAny@omni@@$4PPPPPPPM@A@AEXG@Z
?insert_ushort@omniNilDynAny@omni@@UAEXG@Z
?insert_ushort_seq@DynAnyConstrBase@omni@@$4PPPPPPPM@7AEXAAVUShortSeq@CORBA@@@Z
?insert_ushort_seq@DynAnyConstrBase@omni@@$4PPPPPPPM@A@AEXAAVUShortSeq@CORBA@@@Z
?insert_ushort_seq@DynAnyConstrBase@omni@@$4PPPPPPPM@CM@AEXAAVUShortSeq@CORBA@@@Z
?insert_ushort_seq@DynAnyConstrBase@omni@@$4PPPPPPPM@M@AEXAAVUShortSeq@CORBA@@@Z
?insert_ushort_seq@DynAnyConstrBase@omni@@UAEXAAVUShortSeq@CORBA@@@Z
?insert_ushort_seq@DynAnyImpl@omni@@$4PPPPPPPM@3AEXAAVUShortSeq@CORBA@@@Z
?insert_ushort_seq@DynAnyImpl@omni@@$4PPPPPPPM@7AEXAAVUShortSeq@CORBA@@@Z
?insert_ushort_seq@DynAnyImpl@omni@@$4PPPPPPPM@A@AEXAAVUShortSeq@CORBA@@@Z
?insert_ushort_seq@DynAnyImpl@omni@@$4PPPPPPPM@M@AEXAAVUShortSeq@CORBA@@@Z
?insert_ushort_seq@DynAnyImpl@omni@@UAEXAAVUShortSeq@CORBA@@@Z
?insert_ushort_seq@DynUnionImpl@omni@@$4PPPPPPPM@A@AEXAAVUShortSeq@CORBA@@@Z
?insert_ushort_seq@DynUnionImpl@omni@@UAEXAAVUShortSeq@CORBA@@@Z
?insert_ushort_seq@omniNilDynAny@omni@@$4PPPPPPPM@A@AEXAAVUShortSeq@CORBA@@@Z
?insert_ushort_seq@omniNilDynAny@omni@@UAEXAAVUShortSeq@CORBA@@@Z
?insert_val@DynAnyConstrBase@omni@@$4PPPPPPPM@7AEXPAVValueBase@CORBA@@@Z
?insert_val@DynAnyConstrBase@omni@@$4PPPPPPPM@A@AEXPAVValueBase@CORBA@@@Z
?insert_val@DynAnyConstrBase@omni@@$4PPPPPPPM@CM@AEXPAVValueBase@CORBA@@@Z
?insert_val@DynAnyConstrBase@omni@@$4PPPPPPPM@M@AEXPAVValueBase@CORBA@@@Z
?insert_val@DynAnyConstrBase@omni@@UAEXPAVValueBase@CORBA@@@Z
?insert_val@DynAnyImpl@omni@@$4PPPPPPPM@7AEXPAVValueBase@CORBA@@@Z
?insert_val@DynAnyImpl@omni@@$4PPPPPPPM@A@AEXPAVValueBase@CORBA@@@Z
?insert_val@DynAnyImpl@omni@@UAEXPAVValueBase@CORBA@@@Z
?insert_val@DynUnionDisc@omni@@$4PPPPPPPM@7AEXPAVValueBase@CORBA@@@Z
?insert_val@DynUnionDisc@omni@@$4PPPPPPPM@A@AEXPAVValueBase@CORBA@@@Z
?insert_val@DynUnionDisc@omni@@UAEXPAVValueBase@CORBA@@@Z
?insert_val@DynUnionImpl@omni@@$4PPPPPPPM@A@AEXPAVValueBase@CORBA@@@Z
?insert_val@DynUnionImpl@omni@@UAEXPAVValueBase@CORBA@@@Z
?insert_val@omniNilDynAny@omni@@$4PPPPPPPM@A@AEXPAVValueBase@CORBA@@@Z
?insert_val@omniNilDynAny@omni@@UAEXPAVValueBase@CORBA@@@Z
?insert_wchar@DynAnyConstrBase@omni@@$4PPPPPPPM@7AEX_W@Z
?insert_wchar@DynAnyConstrBase@omni@@$4PPPPPPPM@A@AEX_W@Z
?insert_wchar@DynAnyConstrBase@omni@@$4PPPPPPPM@CM@AEX_W@Z
?insert_wchar@DynAnyConstrBase@omni@@$4PPPPPPPM@M@AEX_W@Z
?insert_wchar@DynAnyConstrBase@omni@@UAEX_W@Z
?insert_wchar@DynAnyImpl@omni@@$4PPPPPPPM@7AEX_W@Z
?insert_wchar@DynAnyImpl@omni@@$4PPPPPPPM@A@AEX_W@Z
?insert_wchar@DynAnyImpl@omni@@UAEX_W@Z
?insert_wchar@DynUnionDisc@omni@@$4PPPPPPPM@7AEX_W@Z
?insert_wchar@DynUnionDisc@omni@@$4PPPPPPPM@A@AEX_W@Z
?insert_wchar@DynUnionDisc@omni@@UAEX_W@Z
?insert_wchar@DynUnionImpl@omni@@$4PPPPPPPM@A@AEX_W@Z
?insert_wchar@DynUnionImpl@omni@@UAEX_W@Z
?insert_wchar@omniNilDynAny@omni@@$4PPPPPPPM@A@AEX_W@Z
?insert_wchar@omniNilDynAny@omni@@UAEX_W@Z
?insert_wchar_seq@DynAnyConstrBase@omni@@$4PPPPPPPM@7AEXAAVWCharSeq@CORBA@@@Z
?insert_wchar_seq@DynAnyConstrBase@omni@@$4PPPPPPPM@A@AEXAAVWCharSeq@CORBA@@@Z
?insert_wchar_seq@DynAnyConstrBase@omni@@$4PPPPPPPM@CM@AEXAAVWCharSeq@CORBA@@@Z
?insert_wchar_seq@DynAnyConstrBase@omni@@$4PPPPPPPM@M@AEXAAVWCharSeq@CORBA@@@Z
?insert_wchar_seq@DynAnyConstrBase@omni@@UAEXAAVWCharSeq@CORBA@@@Z
?insert_wchar_seq@DynAnyImpl@omni@@$4PPPPPPPM@3AEXAAVWCharSeq@CORBA@@@Z
?insert_wchar_seq@DynAnyImpl@omni@@$4PPPPPPPM@7AEXAAVWCharSeq@CORBA@@@Z
?insert_wchar_seq@DynAnyImpl@omni@@$4PPPPPPPM@A@AEXAAVWCharSeq@CORBA@@@Z
?insert_wchar_seq@DynAnyImpl@omni@@$4PPPPPPPM@M@AEXAAVWCharSeq@CORBA@@@Z
?insert_wchar_seq@DynAnyImpl@omni@@UAEXAAVWCharSeq@CORBA@@@Z
?insert_wchar_seq@DynUnionImpl@omni@@$4PPPPPPPM@A@AEXAAVWCharSeq@CORBA@@@Z
?insert_wchar_seq@DynUnionImpl@omni@@UAEXAAVWCharSeq@CORBA@@@Z
?insert_wchar_seq@omniNilDynAny@omni@@$4PPPPPPPM@A@AEXAAVWCharSeq@CORBA@@@Z
?insert_wchar_seq@omniNilDynAny@omni@@UAEXAAVWCharSeq@CORBA@@@Z
?insert_wstring@DynAnyConstrBase@omni@@$4PPPPPPPM@7AEXPB_W@Z
?insert_wstring@DynAnyConstrBase@omni@@$4PPPPPPPM@A@AEXPB_W@Z
?insert_wstring@DynAnyConstrBase@omni@@$4PPPPPPPM@CM@AEXPB_W@Z
?insert_wstring@DynAnyConstrBase@omni@@$4PPPPPPPM@M@AEXPB_W@Z
?insert_wstring@DynAnyConstrBase@omni@@UAEXPB_W@Z
?insert_wstring@DynAnyImpl@omni@@$4PPPPPPPM@7AEXPB_W@Z
?insert_wstring@DynAnyImpl@omni@@$4PPPPPPPM@A@AEXPB_W@Z
?insert_wstring@DynAnyImpl@omni@@UAEXPB_W@Z
?insert_wstring@DynUnionDisc@omni@@$4PPPPPPPM@7AEXPB_W@Z
?insert_wstring@DynUnionDisc@omni@@$4PPPPPPPM@A@AEXPB_W@Z
?insert_wstring@DynUnionDisc@omni@@UAEXPB_W@Z
?insert_wstring@DynUnionImpl@omni@@$4PPPPPPPM@A@AEXPB_W@Z
?insert_wstring@DynUnionImpl@omni@@UAEXPB_W@Z
?insert_wstring@omniNilDynAny@omni@@$4PPPPPPPM@A@AEXPB_W@Z
?insert_wstring@omniNilDynAny@omni@@UAEXPB_W@Z
?instance@omniDynamicLib_initialiser@omni@@2U12@A
?invoke@RequestImpl@omni@@UAEXXZ
?invoke@omniNilRequest@omni@@UAEXXZ
?iop_s@omniCallHandle@@QBEPAVIOP_S@omni@@XZ
?isComplete@omniAsyncCallDescriptor@@QAE_NXZ
?isReady@omniAsyncCallDescriptor@@QAE_NK@Z
?isValid@DynAnyImpl@omni@@QBE_NXZ
?is_a@_objref_InterfaceDef@CORBA@@QAE_NPBD@Z
?is_a@_objref_ValueDef@CORBA@@QAE_NPBD@Z
?is_a@_pof_AbstractInterfaceDef@CORBA@@UBE_NPBD@Z
?is_a@_pof_AliasDef@CORBA@@UBE_NPBD@Z
?is_a@_pof_ArrayDef@CORBA@@UBE_NPBD@Z
?is_a@_pof_AttributeDef@CORBA@@UBE_NPBD@Z
?is_a@_pof_ConstantDef@CORBA@@UBE_NPBD@Z
?is_a@_pof_Contained@CORBA@@UBE_NPBD@Z
?is_a@_pof_Container@CORBA@@UBE_NPBD@Z
?is_a@_pof_EnumDef@CORBA@@UBE_NPBD@Z
?is_a@_pof_ExceptionDef@CORBA@@UBE_NPBD@Z
?is_a@_pof_FixedDef@CORBA@@UBE_NPBD@Z
?is_a@_pof_IDLType@CORBA@@UBE_NPBD@Z
?is_a@_pof_IRObject@CORBA@@UBE_NPBD@Z
?is_a@_pof_InterfaceDef@CORBA@@UBE_NPBD@Z
?is_a@_pof_ModuleDef@CORBA@@UBE_NPBD@Z
?is_a@_pof_NativeDef@CORBA@@UBE_NPBD@Z
?is_a@_pof_OperationDef@CORBA@@UBE_NPBD@Z
?is_a@_pof_PrimitiveDef@CORBA@@UBE_NPBD@Z
?is_a@_pof_ReplyHandler@Messaging@@UBE_NPBD@Z
?is_a@_pof_Repository@CORBA@@UBE_NPBD@Z
?is_a@_pof_SequenceDef@CORBA@@UBE_NPBD@Z
?is_a@_pof_StringDef@CORBA@@UBE_NPBD@Z
?is_a@_pof_StructDef@CORBA@@UBE_NPBD@Z
?is_a@_pof_TypedefDef@CORBA@@UBE_NPBD@Z
?is_a@_pof_UnionDef@CORBA@@UBE_NPBD@Z
?is_a@_pof_ValueBoxDef@CORBA@@UBE_NPBD@Z
?is_a@_pof_ValueDef@CORBA@@UBE_NPBD@Z
?is_a@_pof_ValueMemberDef@CORBA@@UBE_NPBD@Z
?is_a@_pof_WstringDef@CORBA@@UBE_NPBD@Z
?is_abstract@_objref_ValueDef@CORBA@@QAEX_N@Z
?is_abstract@_objref_ValueDef@CORBA@@QAE_NXZ
?is_custom@_objref_ValueDef@CORBA@@QAEX_N@Z
?is_custom@_objref_ValueDef@CORBA@@QAE_NXZ
?is_from_poller@PollerImpl@omniAMI@@$4PPPPPPPM@A@AE_NXZ
?is_from_poller@PollerImpl@omniAMI@@UAE_NXZ
?is_nil@AbstractInterfaceDef_Helper@CORBA@@SA_NPAV_objref_AbstractInterfaceDef@2@@Z
?is_nil@AliasDef_Helper@CORBA@@SA_NPAV_objref_AliasDef@2@@Z
?is_nil@ArrayDef_Helper@CORBA@@SA_NPAV_objref_ArrayDef@2@@Z
?is_nil@AttributeDef_Helper@CORBA@@SA_NPAV_objref_AttributeDef@2@@Z
?is_nil@CORBA@@YA_NPAVContext@1@@Z
?is_nil@CORBA@@YA_NPAVContextList@1@@Z
?is_nil@CORBA@@YA_NPAVEnvironment@1@@Z
?is_nil@CORBA@@YA_NPAVExceptionList@1@@Z
?is_nil@CORBA@@YA_NPAVNVList@1@@Z
?is_nil@CORBA@@YA_NPAVNamedValue@1@@Z
?is_nil@CORBA@@YA_NPAVObject@1@@Z
?is_nil@CORBA@@YA_NPAVRequest@1@@Z
?is_nil@CORBA@@YA_NPAVTypeCode@1@@Z
?is_nil@ConstantDef_Helper@CORBA@@SA_NPAV_objref_ConstantDef@2@@Z
?is_nil@Contained_Helper@CORBA@@SA_NPAV_objref_Contained@2@@Z
?is_nil@Container_Helper@CORBA@@SA_NPAV_objref_Container@2@@Z
?is_nil@DynAny_Helper@DynamicAny@@SA_NPAVDynAny@2@@Z
?is_nil@EnumDef_Helper@CORBA@@SA_NPAV_objref_EnumDef@2@@Z
?is_nil@ExceptionDef_Helper@CORBA@@SA_NPAV_objref_ExceptionDef@2@@Z
?is_nil@FixedDef_Helper@CORBA@@SA_NPAV_objref_FixedDef@2@@Z
?is_nil@IDLType_Helper@CORBA@@SA_NPAV_objref_IDLType@2@@Z
?is_nil@IRObject_Helper@CORBA@@SA_NPAV_objref_IRObject@2@@Z
?is_nil@InterfaceDef_Helper@CORBA@@SA_NPAV_objref_InterfaceDef@2@@Z
?is_nil@ModuleDef_Helper@CORBA@@SA_NPAV_objref_ModuleDef@2@@Z
?is_nil@NativeDef_Helper@CORBA@@SA_NPAV_objref_NativeDef@2@@Z
?is_nil@OperationDef_Helper@CORBA@@SA_NPAV_objref_OperationDef@2@@Z
?is_nil@PollableSet_Helper@CORBA@@SA_NPAVPollableSet@2@@Z
?is_nil@PrimitiveDef_Helper@CORBA@@SA_NPAV_objref_PrimitiveDef@2@@Z
?is_nil@ReplyHandler_Helper@Messaging@@SA_NPAV_objref_ReplyHandler@2@@Z
?is_nil@Repository_Helper@CORBA@@SA_NPAV_objref_Repository@2@@Z
?is_nil@SequenceDef_Helper@CORBA@@SA_NPAV_objref_SequenceDef@2@@Z
?is_nil@StringDef_Helper@CORBA@@SA_NPAV_objref_StringDef@2@@Z
?is_nil@StructDef_Helper@CORBA@@SA_NPAV_objref_StructDef@2@@Z
?is_nil@TypedefDef_Helper@CORBA@@SA_NPAV_objref_TypedefDef@2@@Z
?is_nil@UnionDef_Helper@CORBA@@SA_NPAV_objref_UnionDef@2@@Z
?is_nil@ValueBoxDef_Helper@CORBA@@SA_NPAV_objref_ValueBoxDef@2@@Z
?is_nil@ValueDef_Helper@CORBA@@SA_NPAV_objref_ValueDef@2@@Z
?is_nil@ValueMemberDef_Helper@CORBA@@SA_NPAV_objref_ValueMemberDef@2@@Z
?is_nil@WstringDef_Helper@CORBA@@SA_NPAV_objref_WstringDef@2@@Z
?is_null@DynValueBoxImpl@omni@@$4PPPPPPPM@A@AE_NXZ
?is_null@DynValueBoxImpl@omni@@UAE_NXZ
?is_null@DynValueImpl@omni@@$4PPPPPPPM@A@AE_NXZ
?is_null@DynValueImpl@omni@@UAE_NXZ
?is_null@omniNilDynValue@omni@@$4PPPPPPPM@A@AE_NXZ
?is_null@omniNilDynValue@omni@@UAE_NXZ
?is_null@omniNilDynValueBox@omni@@$4PPPPPPPM@A@AE_NXZ
?is_null@omniNilDynValueBox@omni@@UAE_NXZ
?is_null@omniNilDynValueCommon@omni@@UAE_NXZ
?is_ready@DIIPollableImpl@omniAMI@@$4PPPPPPPM@A@AE_NK@Z
?is_ready@DIIPollableImpl@omniAMI@@UAE_NK@Z
?is_ready@PollerImpl@omniAMI@@$4PPPPPPPM@A@AE_NK@Z
?is_ready@PollerImpl@omniAMI@@UAE_NK@Z
?is_root@DynAnyImplBase@omni@@QBE_NXZ
?is_set_to_default_member@DynUnionImpl@omni@@UAE_NXZ
?is_set_to_default_member@omniNilDynUnion@omni@@UAE_NXZ
?is_simple@TypeCode_alignTable@omni@@QBE_NXZ
?is_truncatable@_objref_ValueDef@CORBA@@QAEX_N@Z
?is_truncatable@_objref_ValueDef@CORBA@@QAE_NXZ
?is_upcall@omniCallDescriptor@@QBE_NXZ
?item@ContextListImpl@omni@@UAEPBDK@Z
?item@ExceptionListImpl@omni@@UAEPAVTypeCode@CORBA@@K@Z
?item@NVListImpl@omni@@UAEPAVNamedValue@CORBA@@K@Z
?item@omniNilCtList@omni@@UAEPBDK@Z
?item@omniNilExList@omni@@UAEPAVTypeCode@CORBA@@K@Z
?item@omniNilNVList@omni@@UAEPAVNamedValue@CORBA@@K@Z
?kind@TypeCode@CORBA@@QBE?AW4TCKind@2@XZ
?kind@_objref_PrimitiveDef@CORBA@@QAE?AW4PrimitiveKind@2@XZ
?len@_CORBA_WString_helper@@SAHPB_W@Z
?length@?$_CORBA_PseudoValue_Sequence@PAD@@QAEXK@Z
?length@?$_CORBA_PseudoValue_Sequence@PAD@@QBEKXZ
?length@?$_CORBA_PseudoValue_Sequence@PAVNamedValue@CORBA@@@@QAEXK@Z
?length@?$_CORBA_PseudoValue_Sequence@PAVNamedValue@CORBA@@@@QBEKXZ
?length@?$_CORBA_PseudoValue_Sequence@PAVTypeCode@CORBA@@@@QAEXK@Z
?length@?$_CORBA_PseudoValue_Sequence@PAVTypeCode@CORBA@@@@QBEKXZ
?length@?$_CORBA_PseudoValue_Sequence@UEntry@ContextImpl@omni@@@@QAEXK@Z
?length@?$_CORBA_PseudoValue_Sequence@UEntry@ContextImpl@omni@@@@QBEKXZ
?length@?$_CORBA_PseudoValue_Sequence@UTcUnionMember@TypeCode_union@omni@@@@QAEXK@Z
?length@?$_CORBA_PseudoValue_Sequence@UTcUnionMember@TypeCode_union@omni@@@@QBEKXZ
?length@?$_CORBA_Pseudo_Unbounded_Sequence@VRequest@CORBA@@V?$_CORBA_PseudoObj_Member@VRequest@CORBA@@V?$_CORBA_PseudoObj_Var@VRequest@CORBA@@@@@@@@QBEKXZ
?length@?$_CORBA_Sequence@E@@QAEXK@Z
?length@?$_CORBA_Sequence@E@@QBEKXZ
?length@?$_CORBA_Sequence@F@@QAEXK@Z
?length@?$_CORBA_Sequence@F@@QBEKXZ
?length@?$_CORBA_Sequence@G@@QAEXK@Z
?length@?$_CORBA_Sequence@G@@QBEKXZ
?length@?$_CORBA_Sequence@J@@QAEXK@Z
?length@?$_CORBA_Sequence@J@@QBEKXZ
?length@?$_CORBA_Sequence@K@@QAEXK@Z
?length@?$_CORBA_Sequence@K@@QBEKXZ
?length@?$_CORBA_Sequence@M@@QAEXK@Z
?length@?$_CORBA_Sequence@M@@QBEKXZ
?length@?$_CORBA_Sequence@N@@QAEXK@Z
?length@?$_CORBA_Sequence@N@@QBEKXZ
?length@?$_CORBA_Sequence@UAttributeDescription@CORBA@@@@QAEXK@Z
?length@?$_CORBA_Sequence@UBinding@CosNaming@@@@QAEXK@Z
?length@?$_CORBA_Sequence@UDescription@Container@CORBA@@@@QAEXK@Z
?length@?$_CORBA_Sequence@UExceptionDescription@CORBA@@@@QAEXK@Z
?length@?$_CORBA_Sequence@UInitializer@CORBA@@@@QAEXK@Z
?length@?$_CORBA_Sequence@UNameComponent@CosNaming@@@@QAEXK@Z
?length@?$_CORBA_Sequence@UNameDynAnyPair@DynamicAny@@@@QAEXK@Z
?length@?$_CORBA_Sequence@UNameDynAnyPair@DynamicAny@@@@QBEKXZ
?length@?$_CORBA_Sequence@UNameValuePair@DynamicAny@@@@QAEXK@Z
?length@?$_CORBA_Sequence@UNameValuePair@DynamicAny@@@@QBEKXZ
?length@?$_CORBA_Sequence@UOperationDescription@CORBA@@@@QAEXK@Z
?length@?$_CORBA_Sequence@UParameterDescription@CORBA@@@@QAEXK@Z
?length@?$_CORBA_Sequence@UStructMember@CORBA@@@@QAEXK@Z
?length@?$_CORBA_Sequence@UStructMember@CORBA@@@@QBEKXZ
?length@?$_CORBA_Sequence@UUnionMember@CORBA@@@@QAEXK@Z
?length@?$_CORBA_Sequence@UUnionMember@CORBA@@@@QBEKXZ
?length@?$_CORBA_Sequence@UValueMember@CORBA@@@@QAEXK@Z
?length@?$_CORBA_Sequence@UValueMember@CORBA@@@@QBEKXZ
?length@?$_CORBA_Sequence@VAny@CORBA@@@@QAEXK@Z
?length@?$_CORBA_Sequence@VAny@CORBA@@@@QBEKXZ
?length@?$_CORBA_Sequence@VTypeCode_member@CORBA@@@@QAEXK@Z
?length@?$_CORBA_Sequence@VTypeCode_member@CORBA@@@@QBEKXZ
?length@?$_CORBA_Sequence@_J@@QAEXK@Z
?length@?$_CORBA_Sequence@_J@@QBEKXZ
?length@?$_CORBA_Sequence@_K@@QAEXK@Z
?length@?$_CORBA_Sequence@_K@@QBEKXZ
?length@?$_CORBA_Sequence@_N@@QAEXK@Z
?length@?$_CORBA_Sequence@_N@@QBEKXZ
?length@?$_CORBA_Sequence@_W@@QAEXK@Z
?length@?$_CORBA_Sequence@_W@@QBEKXZ
?length@?$_CORBA_Sequence_ObjRef@VDynAny@DynamicAny@@V?$_CORBA_ObjRef_Element@VDynAny@DynamicAny@@VDynAny_Helper@2@@@VDynAny_Helper@2@@@QAEXK@Z
?length@?$_CORBA_Sequence_ObjRef@VDynAny@DynamicAny@@V?$_CORBA_ObjRef_Element@VDynAny@DynamicAny@@VDynAny_Helper@2@@@VDynAny_Helper@2@@@QBEKXZ
?length@?$_CORBA_Sequence_ObjRef@V_objref_AbstractInterfaceDef@CORBA@@V?$_CORBA_ObjRef_Element@V_objref_AbstractInterfaceDef@CORBA@@VAbstractInterfaceDef_Helper@2@@@VAbstractInterfaceDef_Helper@2@@@QAEXK@Z
?length@?$_CORBA_Sequence_ObjRef@V_objref_Contained@CORBA@@V?$_CORBA_ObjRef_Element@V_objref_Contained@CORBA@@VContained_Helper@2@@@VContained_Helper@2@@@QAEXK@Z
?length@?$_CORBA_Sequence_ObjRef@V_objref_ExceptionDef@CORBA@@V?$_CORBA_ObjRef_Element@V_objref_ExceptionDef@CORBA@@VExceptionDef_Helper@2@@@VExceptionDef_Helper@2@@@QAEXK@Z
?length@?$_CORBA_Sequence_ObjRef@V_objref_InterfaceDef@CORBA@@V?$_CORBA_ObjRef_Element@V_objref_InterfaceDef@CORBA@@VInterfaceDef_Helper@2@@@VInterfaceDef_Helper@2@@@QAEXK@Z
?length@?$_CORBA_Sequence_ObjRef@V_objref_ValueDef@CORBA@@V?$_CORBA_ObjRef_Element@V_objref_ValueDef@CORBA@@VValueDef_Helper@2@@@VValueDef_Helper@2@@@QAEXK@Z
?length@?$_CORBA_Sequence_Value@VPollerImpl@omniAMI@@V?$_CORBA_Value_Element@VPollerImpl@omniAMI@@VPoller_Helper@Messaging@@@@VPoller_Helper@Messaging@@@@QAEXK@Z
?length@?$_CORBA_Sequence_Value@VPollerImpl@omniAMI@@V?$_CORBA_Value_Element@VPollerImpl@omniAMI@@VPoller_Helper@Messaging@@@@VPoller_Helper@Messaging@@@@QBEKXZ
?length@?$_CORBA_Sequence_Value@VValueBase@CORBA@@V?$_CORBA_Value_Element@VValueBase@CORBA@@VValueBase_Helper@2@@@VValueBase_Helper@2@@@QAEXK@Z
?length@?$_CORBA_Sequence_Value@VValueBase@CORBA@@V?$_CORBA_Value_Element@VValueBase@CORBA@@VValueBase_Helper@2@@@VValueBase_Helper@2@@@QBEKXZ
?length@TypeCode@CORBA@@QBEKXZ
?length@_CORBA_Sequence_String@@QAEXK@Z
?length@_CORBA_Sequence_String@@QBEKXZ
?length@_CORBA_Sequence_WString@@QAEXK@Z
?length@_objref_ArrayDef@CORBA@@QAEKXZ
?length@_objref_ArrayDef@CORBA@@QAEXK@Z
?localId@omniCallDescriptor@@QAEPAVomniLocalIdentity@@XZ
?localId@omniCallDescriptor@@QAEXPAVomniLocalIdentity@@@Z
?localId@omniCallHandle@@QAEPAVomniLocalIdentity@@XZ
?lock@omni_mutex@@QAEXXZ
?lockedIsComplete@omniAsyncCallDescriptor@@QAE_NXZ
?logs@omniORB@@YAXKPBD@Z
?lookup@_objref_Container@CORBA@@QAEPAV_objref_Contained@2@PBD@Z
?lookup@_omni_ValueFactoryManager@@SAPAVValueFactoryBase@CORBA@@PBDK@Z
?lookupOffset@TypeCode_offsetTable@omni@@QAEPAVTypeCode_base@2@J@Z
?lookupRepoId@InputValueTracker@omni@@QAEPBDJJW4CompletionStatus@CORBA@@@Z
?lookupRepoIds@InputValueTracker@omni@@QAEPBU_omni_ValueIds@@JJW4CompletionStatus@CORBA@@@Z
?lookupTypeCode@TypeCode_offsetTable@omni@@QAE_NPBVTypeCode_base@2@AAJ@Z
?lookupValue@InputValueTracker@omni@@QAEPAVValueBase@CORBA@@JJW4CompletionStatus@4@@Z
?lookup_id@_objref_Repository@CORBA@@QAEPAV_objref_Contained@2@PBD@Z
?lookup_name@_objref_Container@CORBA@@QAEPAVContainedSeq@2@PBDJW4DefinitionKind@2@_N@Z
?lookup_value_factory@ORB@CORBA@@QAEPAVValueFactoryBase@2@PBD@Z
?loseChild@ContextImpl@omni@@AAEXPAV12@@Z
?mainthread_cond@omniCallHandle@@QAEPAVomni_tracedcondition@@XZ
?mainthread_mu@omniCallHandle@@QAEPAVomni_tracedmutex@@XZ
?markLoopMembers@TypeCode_collector@omni@@SAXPAVTypeCode_base@2@@Z
?markLoops@TypeCode_collector@omni@@CAKPAVTypeCode_base@2@K@Z
?marshal@DIIPollable_Helper@CORBA@@SAXPAVDIIPollable@2@AAVcdrStream@@@Z
?marshal@ExceptionHolder_Helper@Messaging@@SAXPAVExceptionHolder@2@AAVcdrStream@@@Z
?marshal@Pollable_Helper@CORBA@@SAXPAVPollable@2@AAVcdrStream@@@Z
?marshal@Poller_Helper@Messaging@@SAXPAVPoller@2@AAVcdrStream@@@Z
?marshal@StringValue_Helper@CORBA@@SAXPAVStringValue@2@AAVcdrStream@@@Z
?marshal@TypeCode_marshaller@omni@@SAXPAVTypeCode_base@2@AAVcdrStream@@PAVTypeCode_offsetTable@2@@Z
?marshal@WStringValue_Helper@CORBA@@SAXPAVWStringValue@2@AAVcdrStream@@@Z
?marshal@omniValueType@@SAXPAVValueBase@CORBA@@PBDAAVcdrStream@@@Z
?marshalArguments@DIICallDescriptor@omni@@UAEXAAVcdrStream@@@Z
?marshalArguments@_0RL_cd_7963219a43724a61_04000000@@UAEXAAVcdrStream@@@Z
?marshalArguments@_0RL_cd_7963219a43724a61_0b000000@@UAEXAAVcdrStream@@@Z
?marshalArguments@_0RL_cd_7963219a43724a61_12000000@@UAEXAAVcdrStream@@@Z
?marshalArguments@_0RL_cd_7963219a43724a61_13000000@@UAEXAAVcdrStream@@@Z
?marshalArguments@_0RL_cd_7963219a43724a61_15000000@@UAEXAAVcdrStream@@@Z
?marshalArguments@_0RL_cd_7963219a43724a61_19000000@@UAEXAAVcdrStream@@@Z
?marshalArguments@_0RL_cd_7963219a43724a61_1a000000@@UAEXAAVcdrStream@@@Z
?marshalArguments@_0RL_cd_7963219a43724a61_1c000000@@UAEXAAVcdrStream@@@Z
?marshalArguments@_0RL_cd_7963219a43724a61_24000000@@UAEXAAVcdrStream@@@Z
?marshalArguments@_0RL_cd_7963219a43724a61_28000000@@UAEXAAVcdrStream@@@Z
?marshalArguments@_0RL_cd_7963219a43724a61_31000000@@UAEXAAVcdrStream@@@Z
?marshalArguments@_0RL_cd_7963219a43724a61_32000000@@UAEXAAVcdrStream@@@Z
?marshalArguments@_0RL_cd_7963219a43724a61_33000000@@UAEXAAVcdrStream@@@Z
?marshalArguments@_0RL_cd_7963219a43724a61_44000000@@UAEXAAVcdrStream@@@Z
?marshalArguments@_0RL_cd_7963219a43724a61_46000000@@UAEXAAVcdrStream@@@Z
?marshalArguments@_0RL_cd_7963219a43724a61_4b000000@@UAEXAAVcdrStream@@@Z
?marshalArguments@_0RL_cd_7963219a43724a61_51000000@@UAEXAAVcdrStream@@@Z
?marshalArguments@_0RL_cd_7963219a43724a61_52000000@@UAEXAAVcdrStream@@@Z
?marshalArguments@_0RL_cd_7963219a43724a61_59000000@@UAEXAAVcdrStream@@@Z
?marshalArguments@_0RL_cd_7963219a43724a61_60000000@@UAEXAAVcdrStream@@@Z
?marshalArguments@_0RL_cd_7963219a43724a61_71000000@@UAEXAAVcdrStream@@@Z
?marshalArguments@_0RL_cd_7963219a43724a61_72000000@@UAEXAAVcdrStream@@@Z
?marshalArguments@_0RL_cd_7963219a43724a61_83000000@@UAEXAAVcdrStream@@@Z
?marshalArguments@_0RL_cd_7963219a43724a61_85000000@@UAEXAAVcdrStream@@@Z
?marshalArguments@_0RL_cd_7963219a43724a61_8b000000@@UAEXAAVcdrStream@@@Z
?marshalArguments@_0RL_cd_7963219a43724a61_91000000@@UAEXAAVcdrStream@@@Z
?marshalArguments@_0RL_cd_7963219a43724a61_92000000@@UAEXAAVcdrStream@@@Z
?marshalArguments@_0RL_cd_7963219a43724a61_94000000@@UAEXAAVcdrStream@@@Z
?marshalArguments@_0RL_cd_7963219a43724a61_98000000@@UAEXAAVcdrStream@@@Z
?marshalArguments@_0RL_cd_7963219a43724a61_99000000@@UAEXAAVcdrStream@@@Z
?marshalArguments@_0RL_cd_7963219a43724a61_a3000000@@UAEXAAVcdrStream@@@Z
?marshalArguments@_0RL_cd_7963219a43724a61_a6000000@@UAEXAAVcdrStream@@@Z
?marshalArguments@_0RL_cd_7963219a43724a61_b1000000@@UAEXAAVcdrStream@@@Z
?marshalArguments@_0RL_cd_7963219a43724a61_b2000000@@UAEXAAVcdrStream@@@Z
?marshalArguments@_0RL_cd_7963219a43724a61_b9000000@@UAEXAAVcdrStream@@@Z
?marshalArguments@_0RL_cd_7963219a43724a61_c3000000@@UAEXAAVcdrStream@@@Z
?marshalArguments@_0RL_cd_7963219a43724a61_c5000000@@UAEXAAVcdrStream@@@Z
?marshalArguments@_0RL_cd_7963219a43724a61_ca000000@@UAEXAAVcdrStream@@@Z
?marshalArguments@_0RL_cd_7963219a43724a61_d1000000@@UAEXAAVcdrStream@@@Z
?marshalArguments@_0RL_cd_7963219a43724a61_d2000000@@UAEXAAVcdrStream@@@Z
?marshalArguments@_0RL_cd_7963219a43724a61_d4000000@@UAEXAAVcdrStream@@@Z
?marshalArguments@_0RL_cd_7963219a43724a61_d8000000@@UAEXAAVcdrStream@@@Z
?marshalArguments@_0RL_cd_7963219a43724a61_e3000000@@UAEXAAVcdrStream@@@Z
?marshalArguments@_0RL_cd_7963219a43724a61_e6000000@@UAEXAAVcdrStream@@@Z
?marshalArguments@_0RL_cd_7963219a43724a61_f1000000@@UAEXAAVcdrStream@@@Z
?marshalArguments@_0RL_cd_7963219a43724a61_f2000000@@UAEXAAVcdrStream@@@Z
?marshalArguments@_0RL_cd_7963219a43724a61_f9000000@@UAEXAAVcdrStream@@@Z
?marshalBoolean@cdrStream@@QAEX_N@Z
?marshalChar@cdrStream@@QAEXE@Z
?marshalContext@Context@CORBA@@SAXPAV12@PBQBDHAAVcdrStream@@@Z
?marshalDouble@cdrStream@@QAEXN@Z
?marshalFloat@cdrStream@@QAEXM@Z
?marshalLabel@TypeCode_union_helper@omni@@SAX_KPAVTypeCode@CORBA@@AAVcdrStream@@@Z
?marshalLong@cdrStream@@QAEXJ@Z
?marshalLongLong@cdrStream@@QAEX_J@Z
?marshalObjRef@AbstractInterfaceDef_Helper@CORBA@@SAXPAV_objref_AbstractInterfaceDef@2@AAVcdrStream@@@Z
?marshalObjRef@AliasDef_Helper@CORBA@@SAXPAV_objref_AliasDef@2@AAVcdrStream@@@Z
?marshalObjRef@ArrayDef_Helper@CORBA@@SAXPAV_objref_ArrayDef@2@AAVcdrStream@@@Z
?marshalObjRef@AttributeDef_Helper@CORBA@@SAXPAV_objref_AttributeDef@2@AAVcdrStream@@@Z
?marshalObjRef@ConstantDef_Helper@CORBA@@SAXPAV_objref_ConstantDef@2@AAVcdrStream@@@Z
?marshalObjRef@Contained_Helper@CORBA@@SAXPAV_objref_Contained@2@AAVcdrStream@@@Z
?marshalObjRef@Container_Helper@CORBA@@SAXPAV_objref_Container@2@AAVcdrStream@@@Z
?marshalObjRef@EnumDef_Helper@CORBA@@SAXPAV_objref_EnumDef@2@AAVcdrStream@@@Z
?marshalObjRef@ExceptionDef_Helper@CORBA@@SAXPAV_objref_ExceptionDef@2@AAVcdrStream@@@Z
?marshalObjRef@FixedDef_Helper@CORBA@@SAXPAV_objref_FixedDef@2@AAVcdrStream@@@Z
?marshalObjRef@IDLType_Helper@CORBA@@SAXPAV_objref_IDLType@2@AAVcdrStream@@@Z
?marshalObjRef@IRObject_Helper@CORBA@@SAXPAV_objref_IRObject@2@AAVcdrStream@@@Z
?marshalObjRef@InterfaceDef_Helper@CORBA@@SAXPAV_objref_InterfaceDef@2@AAVcdrStream@@@Z
?marshalObjRef@ModuleDef_Helper@CORBA@@SAXPAV_objref_ModuleDef@2@AAVcdrStream@@@Z
?marshalObjRef@NativeDef_Helper@CORBA@@SAXPAV_objref_NativeDef@2@AAVcdrStream@@@Z
?marshalObjRef@OperationDef_Helper@CORBA@@SAXPAV_objref_OperationDef@2@AAVcdrStream@@@Z
?marshalObjRef@PollableSet_Helper@CORBA@@SAXPAVPollableSet@2@AAVcdrStream@@@Z
?marshalObjRef@PrimitiveDef_Helper@CORBA@@SAXPAV_objref_PrimitiveDef@2@AAVcdrStream@@@Z
?marshalObjRef@ReplyHandler_Helper@Messaging@@SAXPAV_objref_ReplyHandler@2@AAVcdrStream@@@Z
?marshalObjRef@Repository_Helper@CORBA@@SAXPAV_objref_Repository@2@AAVcdrStream@@@Z
?marshalObjRef@SequenceDef_Helper@CORBA@@SAXPAV_objref_SequenceDef@2@AAVcdrStream@@@Z
?marshalObjRef@StringDef_Helper@CORBA@@SAXPAV_objref_StringDef@2@AAVcdrStream@@@Z
?marshalObjRef@StructDef_Helper@CORBA@@SAXPAV_objref_StructDef@2@AAVcdrStream@@@Z
?marshalObjRef@TypedefDef_Helper@CORBA@@SAXPAV_objref_TypedefDef@2@AAVcdrStream@@@Z
?marshalObjRef@UnionDef_Helper@CORBA@@SAXPAV_objref_UnionDef@2@AAVcdrStream@@@Z
?marshalObjRef@ValueBoxDef_Helper@CORBA@@SAXPAV_objref_ValueBoxDef@2@AAVcdrStream@@@Z
?marshalObjRef@ValueDef_Helper@CORBA@@SAXPAV_objref_ValueDef@2@AAVcdrStream@@@Z
?marshalObjRef@ValueMemberDef_Helper@CORBA@@SAXPAV_objref_ValueMemberDef@2@AAVcdrStream@@@Z
?marshalObjRef@WstringDef_Helper@CORBA@@SAXPAV_objref_WstringDef@2@AAVcdrStream@@@Z
?marshalOctet@cdrStream@@QAEXE@Z
?marshalReturnedValues@_0RL_cd_7963219a43724a61_00000000@@UAEXAAVcdrStream@@@Z
?marshalReturnedValues@_0RL_cd_7963219a43724a61_04000000@@UAEXAAVcdrStream@@@Z
?marshalReturnedValues@_0RL_cd_7963219a43724a61_06000000@@UAEXAAVcdrStream@@@Z
?marshalReturnedValues@_0RL_cd_7963219a43724a61_08000000@@UAEXAAVcdrStream@@@Z
?marshalReturnedValues@_0RL_cd_7963219a43724a61_11000000@@UAEXAAVcdrStream@@@Z
?marshalReturnedValues@_0RL_cd_7963219a43724a61_12000000@@UAEXAAVcdrStream@@@Z
?marshalReturnedValues@_0RL_cd_7963219a43724a61_13000000@@UAEXAAVcdrStream@@@Z
?marshalReturnedValues@_0RL_cd_7963219a43724a61_1a000000@@UAEXAAVcdrStream@@@Z
?marshalReturnedValues@_0RL_cd_7963219a43724a61_1c000000@@UAEXAAVcdrStream@@@Z
?marshalReturnedValues@_0RL_cd_7963219a43724a61_24000000@@UAEXAAVcdrStream@@@Z
?marshalReturnedValues@_0RL_cd_7963219a43724a61_26000000@@UAEXAAVcdrStream@@@Z
?marshalReturnedValues@_0RL_cd_7963219a43724a61_2b000000@@UAEXAAVcdrStream@@@Z
?marshalReturnedValues@_0RL_cd_7963219a43724a61_32000000@@UAEXAAVcdrStream@@@Z
?marshalReturnedValues@_0RL_cd_7963219a43724a61_33000000@@UAEXAAVcdrStream@@@Z
?marshalReturnedValues@_0RL_cd_7963219a43724a61_39000000@@UAEXAAVcdrStream@@@Z
?marshalReturnedValues@_0RL_cd_7963219a43724a61_40000000@@UAEXAAVcdrStream@@@Z
?marshalReturnedValues@_0RL_cd_7963219a43724a61_44000000@@UAEXAAVcdrStream@@@Z
?marshalReturnedValues@_0RL_cd_7963219a43724a61_51000000@@UAEXAAVcdrStream@@@Z
?marshalReturnedValues@_0RL_cd_7963219a43724a61_52000000@@UAEXAAVcdrStream@@@Z
?marshalReturnedValues@_0RL_cd_7963219a43724a61_53000000@@UAEXAAVcdrStream@@@Z
?marshalReturnedValues@_0RL_cd_7963219a43724a61_65000000@@UAEXAAVcdrStream@@@Z
?marshalReturnedValues@_0RL_cd_7963219a43724a61_6b000000@@UAEXAAVcdrStream@@@Z
?marshalReturnedValues@_0RL_cd_7963219a43724a61_71000000@@UAEXAAVcdrStream@@@Z
?marshalReturnedValues@_0RL_cd_7963219a43724a61_72000000@@UAEXAAVcdrStream@@@Z
?marshalReturnedValues@_0RL_cd_7963219a43724a61_74000000@@UAEXAAVcdrStream@@@Z
?marshalReturnedValues@_0RL_cd_7963219a43724a61_78000000@@UAEXAAVcdrStream@@@Z
?marshalReturnedValues@_0RL_cd_7963219a43724a61_79000000@@UAEXAAVcdrStream@@@Z
?marshalReturnedValues@_0RL_cd_7963219a43724a61_83000000@@UAEXAAVcdrStream@@@Z
?marshalReturnedValues@_0RL_cd_7963219a43724a61_86000000@@UAEXAAVcdrStream@@@Z
?marshalReturnedValues@_0RL_cd_7963219a43724a61_91000000@@UAEXAAVcdrStream@@@Z
?marshalReturnedValues@_0RL_cd_7963219a43724a61_92000000@@UAEXAAVcdrStream@@@Z
?marshalReturnedValues@_0RL_cd_7963219a43724a61_a3000000@@UAEXAAVcdrStream@@@Z
?marshalReturnedValues@_0RL_cd_7963219a43724a61_a5000000@@UAEXAAVcdrStream@@@Z
?marshalReturnedValues@_0RL_cd_7963219a43724a61_aa000000@@UAEXAAVcdrStream@@@Z
?marshalReturnedValues@_0RL_cd_7963219a43724a61_b1000000@@UAEXAAVcdrStream@@@Z
?marshalReturnedValues@_0RL_cd_7963219a43724a61_b2000000@@UAEXAAVcdrStream@@@Z
?marshalReturnedValues@_0RL_cd_7963219a43724a61_b4000000@@UAEXAAVcdrStream@@@Z
?marshalReturnedValues@_0RL_cd_7963219a43724a61_b8000000@@UAEXAAVcdrStream@@@Z
?marshalReturnedValues@_0RL_cd_7963219a43724a61_b9000000@@UAEXAAVcdrStream@@@Z
?marshalReturnedValues@_0RL_cd_7963219a43724a61_c0000000@@UAEXAAVcdrStream@@@Z
?marshalReturnedValues@_0RL_cd_7963219a43724a61_c3000000@@UAEXAAVcdrStream@@@Z
?marshalReturnedValues@_0RL_cd_7963219a43724a61_c6000000@@UAEXAAVcdrStream@@@Z
?marshalReturnedValues@_0RL_cd_7963219a43724a61_d1000000@@UAEXAAVcdrStream@@@Z
?marshalReturnedValues@_0RL_cd_7963219a43724a61_d2000000@@UAEXAAVcdrStream@@@Z
?marshalReturnedValues@_0RL_cd_7963219a43724a61_d9000000@@UAEXAAVcdrStream@@@Z
?marshalReturnedValues@_0RL_cd_7963219a43724a61_e3000000@@UAEXAAVcdrStream@@@Z
?marshalReturnedValues@_0RL_cd_7963219a43724a61_ea000000@@UAEXAAVcdrStream@@@Z
?marshalReturnedValues@_0RL_cd_7963219a43724a61_f0000000@@UAEXAAVcdrStream@@@Z
?marshalReturnedValues@_0RL_cd_7963219a43724a61_f1000000@@UAEXAAVcdrStream@@@Z
?marshalReturnedValues@_0RL_cd_7963219a43724a61_f2000000@@UAEXAAVcdrStream@@@Z
?marshalReturnedValues@_0RL_cd_7963219a43724a61_f4000000@@UAEXAAVcdrStream@@@Z
?marshalReturnedValues@_0RL_cd_7963219a43724a61_f8000000@@UAEXAAVcdrStream@@@Z
?marshalReturnedValues@_0RL_cd_7963219a43724a61_f9000000@@UAEXAAVcdrStream@@@Z
?marshalReturnedValues@_0RL_cd_7963219a43724a61_fb000000@@UAEXAAVcdrStream@@@Z
?marshalReturnedValues@serverRequestCallDescriptor@omni@@UAEXAAVcdrStream@@@Z
?marshalShort@cdrStream@@QAEXF@Z
?marshalString@cdrStream@@QAEXPBDH@Z
?marshalTypeCode@TypeCode@CORBA@@SAXPAV12@AAVcdrStream@@@Z
?marshalULong@cdrStream@@QAEXK@Z
?marshalULongLong@cdrStream@@QAEX_K@Z
?marshalUShort@cdrStream@@QAEXG@Z
?marshalWChar@cdrStream@@QAEX_W@Z
?marshalWString@cdrStream@@QAEXPB_WH@Z
?marshal_byte_swap@cdrStream@@QBE_NXZ
?matchPattern@ContextImpl@omni@@ABEHPBDAAK1@Z
?maximum@?$_CORBA_PseudoValue_Sequence@PAD@@QBEKXZ
?maximum@?$_CORBA_PseudoValue_Sequence@PAVNamedValue@CORBA@@@@QBEKXZ
?maximum@?$_CORBA_PseudoValue_Sequence@PAVTypeCode@CORBA@@@@QBEKXZ
?maximum@?$_CORBA_PseudoValue_Sequence@UEntry@ContextImpl@omni@@@@QBEKXZ
?maximum@_CORBA_Sequence_String@@QBEKXZ
?member@DynUnionImpl@omni@@UAEPAVDynAny@DynamicAny@@XZ
?member@omniNilDynUnion@omni@@UAEPAVDynAny@DynamicAny@@XZ
?member_count@TypeCode@CORBA@@QBEKXZ
?member_kind@DynUnionImpl@omni@@UAE?AW4TCKind@CORBA@@XZ
?member_kind@omniNilDynUnion@omni@@UAE?AW4TCKind@CORBA@@XZ
?member_label@TypeCode@CORBA@@QBEPAVAny@2@K@Z
?member_name@DynUnionImpl@omni@@UAEPADXZ
?member_name@TypeCode@CORBA@@QBEPBDK@Z
?member_name@omniNilDynUnion@omni@@UAEPADXZ
?member_type@TypeCode@CORBA@@QBEPAV12@K@Z
?member_visibility@TypeCode@CORBA@@QBEFK@Z
?members@_objref_EnumDef@CORBA@@QAEPAVEnumMemberSeq@2@XZ
?members@_objref_EnumDef@CORBA@@QAEXABVEnumMemberSeq@2@@Z
?members@_objref_ExceptionDef@CORBA@@QAEPAVStructMemberSeq@2@XZ
?members@_objref_ExceptionDef@CORBA@@QAEXABVStructMemberSeq@2@@Z
?members@_objref_StructDef@CORBA@@QAEPAVStructMemberSeq@2@XZ
?members@_objref_StructDef@CORBA@@QAEXABVStructMemberSeq@2@@Z
?members@_objref_UnionDef@CORBA@@QAEPAVUnionMemberSeq@2@XZ
?members@_objref_UnionDef@CORBA@@QAEXABVUnionMemberSeq@2@@Z
?minor@SystemException@CORBA@@QBEKXZ
?mode@_objref_AttributeDef@CORBA@@QAE?AW4AttributeMode@2@XZ
?mode@_objref_AttributeDef@CORBA@@QAEXW4AttributeMode@2@@Z
?mode@_objref_OperationDef@CORBA@@QAE?AW4OperationMode@2@XZ
?mode@_objref_OperationDef@CORBA@@QAEXW4OperationMode@2@@Z
?more@?$omnivector@PAVDynAnyImplBase@omni@@@@AAEXXZ
?move@_objref_Contained@CORBA@@QAEXPAV_objref_Container@2@PBD1@Z
?name@NamedValueImpl@omni@@UBEPBDXZ
?name@TypeCode@CORBA@@QBEPBDXZ
?name@_objref_Contained@CORBA@@QAEPADXZ
?name@_objref_Contained@CORBA@@QAEXPBD@Z
?name@omniNilNV@omni@@UBEPBDXZ
?nestLevel@cdrValueChunkStream@@QAEJXZ
?newObjRef@_pof_AbstractInterfaceDef@CORBA@@UAEPAVomniObjRef@@PAVomniIOR@@PAVomniIdentity@@@Z
?newObjRef@_pof_AliasDef@CORBA@@UAEPAVomniObjRef@@PAVomniIOR@@PAVomniIdentity@@@Z
?newObjRef@_pof_ArrayDef@CORBA@@UAEPAVomniObjRef@@PAVomniIOR@@PAVomniIdentity@@@Z
?newObjRef@_pof_AttributeDef@CORBA@@UAEPAVomniObjRef@@PAVomniIOR@@PAVomniIdentity@@@Z
?newObjRef@_pof_ConstantDef@CORBA@@UAEPAVomniObjRef@@PAVomniIOR@@PAVomniIdentity@@@Z
?newObjRef@_pof_Contained@CORBA@@UAEPAVomniObjRef@@PAVomniIOR@@PAVomniIdentity@@@Z
?newObjRef@_pof_Container@CORBA@@UAEPAVomniObjRef@@PAVomniIOR@@PAVomniIdentity@@@Z
?newObjRef@_pof_EnumDef@CORBA@@UAEPAVomniObjRef@@PAVomniIOR@@PAVomniIdentity@@@Z
?newObjRef@_pof_ExceptionDef@CORBA@@UAEPAVomniObjRef@@PAVomniIOR@@PAVomniIdentity@@@Z
?newObjRef@_pof_FixedDef@CORBA@@UAEPAVomniObjRef@@PAVomniIOR@@PAVomniIdentity@@@Z
?newObjRef@_pof_IDLType@CORBA@@UAEPAVomniObjRef@@PAVomniIOR@@PAVomniIdentity@@@Z
?newObjRef@_pof_IRObject@CORBA@@UAEPAVomniObjRef@@PAVomniIOR@@PAVomniIdentity@@@Z
?newObjRef@_pof_InterfaceDef@CORBA@@UAEPAVomniObjRef@@PAVomniIOR@@PAVomniIdentity@@@Z
?newObjRef@_pof_ModuleDef@CORBA@@UAEPAVomniObjRef@@PAVomniIOR@@PAVomniIdentity@@@Z
?newObjRef@_pof_NativeDef@CORBA@@UAEPAVomniObjRef@@PAVomniIOR@@PAVomniIdentity@@@Z
?newObjRef@_pof_OperationDef@CORBA@@UAEPAVomniObjRef@@PAVomniIOR@@PAVomniIdentity@@@Z
?newObjRef@_pof_PrimitiveDef@CORBA@@UAEPAVomniObjRef@@PAVomniIOR@@PAVomniIdentity@@@Z
?newObjRef@_pof_ReplyHandler@Messaging@@UAEPAVomniObjRef@@PAVomniIOR@@PAVomniIdentity@@@Z
?newObjRef@_pof_Repository@CORBA@@UAEPAVomniObjRef@@PAVomniIOR@@PAVomniIdentity@@@Z
?newObjRef@_pof_SequenceDef@CORBA@@UAEPAVomniObjRef@@PAVomniIOR@@PAVomniIdentity@@@Z
?newObjRef@_pof_StringDef@CORBA@@UAEPAVomniObjRef@@PAVomniIOR@@PAVomniIdentity@@@Z
?newObjRef@_pof_StructDef@CORBA@@UAEPAVomniObjRef@@PAVomniIOR@@PAVomniIdentity@@@Z
?newObjRef@_pof_TypedefDef@CORBA@@UAEPAVomniObjRef@@PAVomniIOR@@PAVomniIdentity@@@Z
?newObjRef@_pof_UnionDef@CORBA@@UAEPAVomniObjRef@@PAVomniIOR@@PAVomniIdentity@@@Z
?newObjRef@_pof_ValueBoxDef@CORBA@@UAEPAVomniObjRef@@PAVomniIOR@@PAVomniIdentity@@@Z
?newObjRef@_pof_ValueDef@CORBA@@UAEPAVomniObjRef@@PAVomniIOR@@PAVomniIdentity@@@Z
?newObjRef@_pof_ValueMemberDef@CORBA@@UAEPAVomniObjRef@@PAVomniIOR@@PAVomniIdentity@@@Z
?newObjRef@_pof_WstringDef@CORBA@@UAEPAVomniObjRef@@PAVomniIOR@@PAVomniIdentity@@@Z
?new_entry@TypeCode_alignTable@omni@@AAEIXZ
?next@DynAnyConstrBase@omni@@$4PPPPPPPM@7AE_NXZ
?next@DynAnyConstrBase@omni@@$4PPPPPPPM@A@AE_NXZ
?next@DynAnyConstrBase@omni@@$4PPPPPPPM@CM@AE_NXZ
?next@DynAnyConstrBase@omni@@$4PPPPPPPM@M@AE_NXZ
?next@DynAnyConstrBase@omni@@UAE_NXZ
?next@DynAnyImpl@omni@@$4PPPPPPPM@3AE_NXZ
?next@DynAnyImpl@omni@@$4PPPPPPPM@7AE_NXZ
?next@DynAnyImpl@omni@@$4PPPPPPPM@A@AE_NXZ
?next@DynAnyImpl@omni@@$4PPPPPPPM@M@AE_NXZ
?next@DynAnyImpl@omni@@UAE_NXZ
?next@DynUnionImpl@omni@@$4PPPPPPPM@A@AE_NXZ
?next@DynUnionImpl@omni@@UAE_NXZ
?next@omniNilDynAny@omni@@$4PPPPPPPM@A@AE_NXZ
?next@omniNilDynAny@omni@@UAE_NXZ
?nthComponentTC@DynArrayImpl@omni@@UAEPAVTypeCode_base@2@I@Z
?nthComponentTC@DynSequenceImpl@omni@@UAEPAVTypeCode_base@2@I@Z
?nthComponentTC@DynStructImpl@omni@@UAEPAVTypeCode_base@2@I@Z
?nthComponentTC@DynValueBoxImpl@omni@@UAEPAVTypeCode_base@2@I@Z
?nthComponentTC@DynValueImpl@omni@@UAEPAVTypeCode_base@2@I@Z
?number_left@PollableSetImpl@omniAMI@@$4PPPPPPPM@A@AEGXZ
?number_left@PollableSetImpl@omniAMI@@UAEGXZ
?number_left@_nil_PollableSet@CORBA@@$4PPPPPPPM@A@AEGXZ
?number_left@_nil_PollableSet@CORBA@@UAEGXZ
?objref@omniCallDescriptor@@QAEPAVomniObjRef@@XZ
?omniORB_4_2_dyn@omni@@3PBDB
?omni_dynAny_initialiser_@omni@@3AAVomniInitialiser@1@A
?omni_valueFactory_initialiser_@omni@@3AAVomniInitialiser@1@A
?onDispose@DynAnyConstrBase@omni@@UAEXXZ
?onDispose@DynAnyImplBase@omni@@UAEXXZ
?onDispose@DynUnionImpl@omni@@UAEXXZ
?op@omniCallDescriptor@@QBEPBDXZ
?operation@RequestImpl@omni@@UBEPBDXZ
?operation@omniNilRequest@omni@@UBEPBDXZ
?operation@omniServerRequest@omni@@UAEPBDXZ
?operation_name@PollerImpl@omniAMI@@$4PPPPPPPM@A@AEPADXZ
?operation_name@PollerImpl@omniAMI@@UAEPADXZ
?operation_name@omniCallHandle@@QBEPBDXZ
?operation_target@PollerImpl@omniAMI@@$4PPPPPPPM@A@AEPAVObject@CORBA@@XZ
?operation_target@PollerImpl@omniAMI@@UAEPAVObject@CORBA@@XZ
?original_type_def@_objref_AliasDef@CORBA@@QAEPAV_objref_IDLType@2@XZ
?original_type_def@_objref_AliasDef@CORBA@@QAEXPAV_objref_IDLType@2@@Z
?original_type_def@_objref_ValueBoxDef@CORBA@@QAEPAV_objref_IDLType@2@XZ
?original_type_def@_objref_ValueBoxDef@CORBA@@QAEXPAV_objref_IDLType@2@@Z
?out@TypeCode_member@CORBA@@QAEAAPAVTypeCode@2@XZ
?outMkr@cdrStream@@IAEKW4alignment_t@omni@@@Z
?outMkr@cdrStream@@IAEKXZ
?paramListType@TypeCode_marshaller@omni@@SA?AW4TypeCode_paramListType@2@K@Z
?param_count@TypeCode@CORBA@@QBEJXZ
?parameter@TypeCode@CORBA@@QBEPAVAny@2@J@Z
?params@_objref_OperationDef@CORBA@@QAEPAVParDescriptionSeq@2@XZ
?params@_objref_OperationDef@CORBA@@QAEXABVParDescriptionSeq@2@@Z
?parent@ContextImpl@omni@@UBEPAVContext@CORBA@@XZ
?parent@omniNilContext@omni@@UBEPAVContext@CORBA@@XZ
?poa@omniCallDescriptor@@QAEPAVomniOrbPOA@omni@@XZ
?poa@omniCallDescriptor@@QAEXPAVomniOrbPOA@omni@@@Z
?poa@omniCallHandle@@QAEPAVomniOrbPOA@omni@@XZ
?poll_next_response@ORB@CORBA@@QAE_NXZ
?poll_response@RequestImpl@omni@@UAE_NXZ
?poll_response@omniNilRequest@omni@@UAE_NXZ
?postinvoke_hook@omniCallHandle@@QAEPAVPostInvokeHook@1@XZ
?prepareSequenceRead@DynArrayImpl@omni@@UAE?AW4SeqLocation@DynAnyConstrBase@2@W4TCKind@CORBA@@@Z
?prepareSequenceRead@DynSequenceImpl@omni@@UAE?AW4SeqLocation@DynAnyConstrBase@2@W4TCKind@CORBA@@@Z
?prepareSequenceRead@DynStructImpl@omni@@UAE?AW4SeqLocation@DynAnyConstrBase@2@W4TCKind@CORBA@@@Z
?prepareSequenceRead@DynValueBoxImpl@omni@@UAE?AW4SeqLocation@DynAnyConstrBase@2@W4TCKind@CORBA@@@Z
?prepareSequenceRead@DynValueImpl@omni@@UAE?AW4SeqLocation@DynAnyConstrBase@2@W4TCKind@CORBA@@@Z
?prepareSequenceWrite@DynArrayImpl@omni@@UAE?AW4SeqLocation@DynAnyConstrBase@2@W4TCKind@CORBA@@K@Z
?prepareSequenceWrite@DynSequenceImpl@omni@@UAE?AW4SeqLocation@DynAnyConstrBase@2@W4TCKind@CORBA@@K@Z
?prepareSequenceWrite@DynStructImpl@omni@@UAE?AW4SeqLocation@DynAnyConstrBase@2@W4TCKind@CORBA@@K@Z
?prepareSequenceWrite@DynValueBoxImpl@omni@@UAE?AW4SeqLocation@DynAnyConstrBase@2@W4TCKind@CORBA@@K@Z
?prepareSequenceWrite@DynValueImpl@omni@@UAE?AW4SeqLocation@DynAnyConstrBase@2@W4TCKind@CORBA@@K@Z
?ptrStrMatch@omni@@YA_NPBD0@Z
?ptrToClass@cdrAnyMemoryStream@@UAEPAXPAH@Z
?push_back@?$omnivector@PAVDynAnyImplBase@omni@@@@QAEXABQAVDynAnyImplBase@omni@@@Z
?raiseException@omniAsyncCallDescriptor@@QAEXXZ
?raise_exception@ExceptionHolder@omniAMI@@$4PPPPPPPM@A@AEXXZ
?raise_exception@ExceptionHolder@omniAMI@@UAEXXZ
?readCurrent@DynAnyConstrBase@omni@@IAEAAVcdrAnyMemoryStream@@W4TCKind@CORBA@@@Z
?readCurrent@DynUnionImpl@omni@@AAEAAVcdrAnyMemoryStream@@W4TCKind@CORBA@@@Z
?refCountLock@DynAnyImplBase@omni@@0Vomni_tracedmutex@@A
?register_factory@_omni_ValueFactoryManager@@SAPAVValueFactoryBase@CORBA@@PBDKPAV23@_N@Z
?register_value_factory@ORB@CORBA@@QAEPAVValueFactoryBase@2@PBDPAV32@@Z
?release@AbstractInterfaceDef_Helper@CORBA@@SAXPAV_objref_AbstractInterfaceDef@2@@Z
?release@AliasDef_Helper@CORBA@@SAXPAV_objref_AliasDef@2@@Z
?release@ArrayDef_Helper@CORBA@@SAXPAV_objref_ArrayDef@2@@Z
?release@AttributeDef_Helper@CORBA@@SAXPAV_objref_AttributeDef@2@@Z
?release@CORBA@@YAXPAVAbstractBase@1@@Z
?release@CORBA@@YAXPAVContext@1@@Z
?release@CORBA@@YAXPAVContextList@1@@Z
?release@CORBA@@YAXPAVEnvironment@1@@Z
?release@CORBA@@YAXPAVExceptionList@1@@Z
?release@CORBA@@YAXPAVNVList@1@@Z
?release@CORBA@@YAXPAVNamedValue@1@@Z
?release@CORBA@@YAXPAVObject@1@@Z
?release@CORBA@@YAXPAVRequest@1@@Z
?release@CORBA@@YAXPAVTypeCode@1@@Z
?release@ConstantDef_Helper@CORBA@@SAXPAV_objref_ConstantDef@2@@Z
?release@Contained_Helper@CORBA@@SAXPAV_objref_Contained@2@@Z
?release@Container_Helper@CORBA@@SAXPAV_objref_Container@2@@Z
?release@DynAny_Helper@DynamicAny@@SAXPAVDynAny@2@@Z
?release@EnumDef_Helper@CORBA@@SAXPAV_objref_EnumDef@2@@Z
?release@ExceptionDef_Helper@CORBA@@SAXPAV_objref_ExceptionDef@2@@Z
?release@FixedDef_Helper@CORBA@@SAXPAV_objref_FixedDef@2@@Z
?release@IDLType_Helper@CORBA@@SAXPAV_objref_IDLType@2@@Z
?release@IRObject_Helper@CORBA@@SAXPAV_objref_IRObject@2@@Z
?release@InterfaceDef_Helper@CORBA@@SAXPAV_objref_InterfaceDef@2@@Z
?release@ModuleDef_Helper@CORBA@@SAXPAV_objref_ModuleDef@2@@Z
?release@NativeDef_Helper@CORBA@@SAXPAV_objref_NativeDef@2@@Z
?release@OperationDef_Helper@CORBA@@SAXPAV_objref_OperationDef@2@@Z
?release@PollableSet_Helper@CORBA@@SAXPAVPollableSet@2@@Z
?release@PrimitiveDef_Helper@CORBA@@SAXPAV_objref_PrimitiveDef@2@@Z
?release@ReplyHandler_Helper@Messaging@@SAXPAV_objref_ReplyHandler@2@@Z
?release@Repository_Helper@CORBA@@SAXPAV_objref_Repository@2@@Z
?release@SequenceDef_Helper@CORBA@@SAXPAV_objref_SequenceDef@2@@Z
?release@StringDef_Helper@CORBA@@SAXPAV_objref_StringDef@2@@Z
?release@StructDef_Helper@CORBA@@SAXPAV_objref_StructDef@2@@Z
?release@TypedefDef_Helper@CORBA@@SAXPAV_objref_TypedefDef@2@@Z
?release@UnionDef_Helper@CORBA@@SAXPAV_objref_UnionDef@2@@Z
?release@ValueBoxDef_Helper@CORBA@@SAXPAV_objref_ValueBoxDef@2@@Z
?release@ValueDef_Helper@CORBA@@SAXPAV_objref_ValueDef@2@@Z
?release@ValueMemberDef_Helper@CORBA@@SAXPAV_objref_ValueMemberDef@2@@Z
?release@WstringDef_Helper@CORBA@@SAXPAV_objref_WstringDef@2@@Z
?releaseDefault@ContextImpl@omni@@SAXXZ
?releaseRef@TypeCode_collector@omni@@SAXPAVTypeCode_base@2@@Z
?remFromSet@omniAsyncCallDescriptor@@QAEXPAVomni_tracedcondition@@@Z
?remove@ContextListImpl@omni@@UAEXK@Z
?remove@ExceptionListImpl@omni@@UAEXK@Z
?remove@NVListImpl@omni@@UAEXK@Z
?remove@PollableSetImpl@omniAMI@@$4PPPPPPPM@A@AEXPAVPollable@CORBA@@@Z
?remove@PollableSetImpl@omniAMI@@UAEXPAVPollable@CORBA@@@Z
?remove@_nil_PollableSet@CORBA@@$4PPPPPPPM@A@AEXPAVPollable@2@@Z
?remove@_nil_PollableSet@CORBA@@UAEXPAVPollable@2@@Z
?remove@omniNilCtList@omni@@UAEXK@Z
?remove@omniNilExList@omni@@UAEXK@Z
?remove@omniNilNVList@omni@@UAEXK@Z
?remove@omniTypeCodeCollection@omni@@QAEXPBDPAVTypeCode@CORBA@@@Z
?removeOptionalNames@TypeCode_alias@omni@@UAEXXZ
?removeOptionalNames@TypeCode_array@omni@@UAEXXZ
?removeOptionalNames@TypeCode_base@omni@@UAEXXZ
?removeOptionalNames@TypeCode_enum@omni@@UAEXXZ
?removeOptionalNames@TypeCode_except@omni@@UAEXXZ
?removeOptionalNames@TypeCode_indirect@omni@@UAEXXZ
?removeOptionalNames@TypeCode_objref@omni@@UAEXXZ
?removeOptionalNames@TypeCode_sequence@omni@@UAEXXZ
?removeOptionalNames@TypeCode_struct@omni@@UAEXXZ
?removeOptionalNames@TypeCode_union@omni@@UAEXXZ
?removeOptionalNames@TypeCode_value@omni@@UAEXXZ
?removeOptionalNames@TypeCode_value_box@omni@@UAEXXZ
?remove_ref@CORBA@@YAXPAVValueBase@1@@Z
?remove_ref@DIIPollable_Helper@CORBA@@SAXPAVDIIPollable@2@@Z
?remove_ref@ExceptionHolder_Helper@Messaging@@SAXPAVExceptionHolder@2@@Z
?remove_ref@Pollable_Helper@CORBA@@SAXPAVPollable@2@@Z
?remove_ref@Poller_Helper@Messaging@@SAXPAVPoller@2@@Z
?remove_ref@StringValue_Helper@CORBA@@SAXPAVStringValue@2@@Z
?remove_ref@ValueBase_Helper@CORBA@@SAXPAVValueBase@2@@Z
?remove_ref@WStringValue_Helper@CORBA@@SAXPAVWStringValue@2@@Z
?remove_ref@cdrAnyMemoryStream@@QAEXXZ
?replace@Any@CORBA@@QAEXPAVTypeCode@2@PAX_N@Z
?reserve@?$omnivector@PAVDynAnyImplBase@omni@@@@QAEXI@Z
?resizeTable@InputValueTracker@omni@@AAEXXZ
?resizeTable@OutputValueTracker@omni@@AAEXXZ
?result@DIICallDescriptor@omni@@QBEPAVNamedValue@CORBA@@XZ
?result@RequestImpl@omni@@UAEPAVNamedValue@CORBA@@XZ
?result@_cCORBA_mObject_i_cstring@omniStdCallDesc@@QAEPAVObject@CORBA@@XZ
?result@_objref_OperationDef@CORBA@@QAEPAVTypeCode@2@XZ
?result@omniNilRequest@omni@@UAEPAVNamedValue@CORBA@@XZ
?result@omni_interface_CallDesc@omni@@QAEPAVObject@CORBA@@XZ
?result_def@_objref_OperationDef@CORBA@@QAEPAV_objref_IDLType@2@XZ
?result_def@_objref_OperationDef@CORBA@@QAEXPAV_objref_IDLType@2@@Z
?return_value@RequestImpl@omni@@UAEAAVAny@CORBA@@XZ
?return_value@omniNilRequest@omni@@UAEAAVAny@CORBA@@XZ
?rewind@DynAnyConstrBase@omni@@$4PPPPPPPM@7AEXXZ
?rewind@DynAnyConstrBase@omni@@$4PPPPPPPM@A@AEXXZ
?rewind@DynAnyConstrBase@omni@@$4PPPPPPPM@CM@AEXXZ
?rewind@DynAnyConstrBase@omni@@$4PPPPPPPM@M@AEXXZ
?rewind@DynAnyConstrBase@omni@@UAEXXZ
?rewind@DynAnyImpl@omni@@$4PPPPPPPM@3AEXXZ
?rewind@DynAnyImpl@omni@@$4PPPPPPPM@7AEXXZ
?rewind@DynAnyImpl@omni@@$4PPPPPPPM@A@AEXXZ
?rewind@DynAnyImpl@omni@@$4PPPPPPPM@M@AEXXZ
?rewind@DynAnyImpl@omni@@UAEXXZ
?rewind@DynUnionImpl@omni@@$4PPPPPPPM@A@AEXXZ
?rewind@DynUnionImpl@omni@@UAEXXZ
?rewind@omniNilDynAny@omni@@$4PPPPPPPM@A@AEXXZ
?rewind@omniNilDynAny@omni@@UAEXXZ
?rewindInputPtr@cdrMemoryStream@@QAEXXZ
?rewindPtrs@cdrMemoryStream@@QAEXXZ
?scale@_objref_FixedDef@CORBA@@QAEFXZ
?scale@_objref_FixedDef@CORBA@@QAEXF@Z
?search@TypeCode_pairlist@omni@@SAPBVTypeCode_base@2@PBV12@PBV32@@Z
?seek@DynAnyConstrBase@omni@@$4PPPPPPPM@7AE_NJ@Z
?seek@DynAnyConstrBase@omni@@$4PPPPPPPM@A@AE_NJ@Z
?seek@DynAnyConstrBase@omni@@$4PPPPPPPM@CM@AE_NJ@Z
?seek@DynAnyConstrBase@omni@@$4PPPPPPPM@M@AE_NJ@Z
?seek@DynAnyConstrBase@omni@@UAE_NJ@Z
?seek@DynAnyImpl@omni@@$4PPPPPPPM@3AE_NJ@Z
?seek@DynAnyImpl@omni@@$4PPPPPPPM@7AE_NJ@Z
?seek@DynAnyImpl@omni@@$4PPPPPPPM@A@AE_NJ@Z
?seek@DynAnyImpl@omni@@$4PPPPPPPM@M@AE_NJ@Z
?seek@DynAnyImpl@omni@@UAE_NJ@Z
?seek@DynUnionImpl@omni@@$4PPPPPPPM@A@AE_NJ@Z
?seek@DynUnionImpl@omni@@UAE_NJ@Z
?seek@omniNilDynAny@omni@@$4PPPPPPPM@A@AE_NJ@Z
?seek@omniNilDynAny@omni@@UAE_NJ@Z
?seekTo@DynAnyConstrBase@omni@@IAEXI@Z
?send_deferred@RequestImpl@omni@@UAEXXZ
?send_deferred@omniNilRequest@omni@@UAEXXZ
?send_multiple_requests_deferred@ORB@CORBA@@QAEXABV?$_CORBA_Pseudo_Unbounded_Sequence@VRequest@CORBA@@V?$_CORBA_PseudoObj_Member@VRequest@CORBA@@V?$_CORBA_PseudoObj_Var@VRequest@CORBA@@@@@@@@@Z
?send_multiple_requests_oneway@ORB@CORBA@@QAEXABV?$_CORBA_Pseudo_Unbounded_Sequence@VRequest@CORBA@@V?$_CORBA_PseudoObj_Member@VRequest@CORBA@@V?$_CORBA_PseudoObj_Var@VRequest@CORBA@@@@@@@@@Z
?send_oneway@RequestImpl@omni@@UAEXXZ
?send_oneway@omniNilRequest@omni@@UAEXXZ
?servant@omniLocalIdentity@@QBEPAVomniServant@@XZ
?set@TypeCode_alignTable@omni@@QAEXABV12@@Z
?setCallDescriptor@omniCurrent@@QAEXPAVomniCallDescriptor@@@Z
?setInvalid@DynAnyImpl@omni@@QAEXXZ
?setNumComponents@DynAnyConstrBase@omni@@IAEXI@Z
?setNumEntries@TypeCode_alignTable@omni@@QAEXI@Z
?setOffset@TypeCode_offsetTable@omni@@QAEXJ@Z
?setValid@DynAnyImpl@omni@@QAEXXZ
?set_as_string@DynEnumImpl@omni@@UAEXPBD@Z
?set_as_string@DynUnionEnumDisc@omni@@UAEXPBD@Z
?set_as_string@omniNilDynEnum@omni@@UAEXPBD@Z
?set_as_ulong@DynEnumImpl@omni@@UAEXK@Z
?set_as_ulong@DynUnionEnumDisc@omni@@UAEXK@Z
?set_as_ulong@omniNilDynEnum@omni@@UAEXK@Z
?set_boxed_value@DynValueBoxImpl@omni@@UAEXABVAny@CORBA@@@Z
?set_boxed_value@omniNilDynValueBox@omni@@UAEXABVAny@CORBA@@@Z
?set_boxed_value_as_dyn_any@DynValueBoxImpl@omni@@UAEXPAVDynAny@DynamicAny@@@Z
?set_boxed_value_as_dyn_any@omniNilDynValueBox@omni@@UAEXPAVDynAny@DynamicAny@@@Z
?set_discriminator@DynUnionImpl@omni@@UAEXPAVDynAny@DynamicAny@@@Z
?set_discriminator@omniNilDynUnion@omni@@UAEXPAVDynAny@DynamicAny@@@Z
?set_elements@DynArrayImpl@omni@@UAEXABVAnySeq@DynamicAny@@@Z
?set_elements@DynSequenceImpl@omni@@UAEXABVAnySeq@DynamicAny@@@Z
?set_elements@omniNilDynArray@omni@@UAEXABVAnySeq@DynamicAny@@@Z
?set_elements@omniNilDynSequence@omni@@UAEXABVAnySeq@DynamicAny@@@Z
?set_elements_as_dyn_any@DynArrayImpl@omni@@UAEXABVDynAnySeq@DynamicAny@@@Z
?set_elements_as_dyn_any@DynSequenceImpl@omni@@UAEXABVDynAnySeq@DynamicAny@@@Z
?set_elements_as_dyn_any@omniNilDynArray@omni@@UAEXABVDynAnySeq@DynamicAny@@@Z
?set_elements_as_dyn_any@omniNilDynSequence@omni@@UAEXABVDynAnySeq@DynamicAny@@@Z
?set_exception@omniServerRequest@omni@@UAEXABVAny@CORBA@@@Z
?set_i_own@TypeCode_alignTable@omni@@AAEXI@Z
?set_length@DynSequenceImpl@omni@@UAEXK@Z
?set_length@omniNilDynSequence@omni@@UAEXK@Z
?set_members@DynStructImpl@omni@@UAEXABVNameValuePairSeq@DynamicAny@@@Z
?set_members@DynValueImpl@omni@@UAEXABVNameValuePairSeq@DynamicAny@@@Z
?set_members@omniNilDynStruct@omni@@UAEXABVNameValuePairSeq@DynamicAny@@@Z
?set_members@omniNilDynValue@omni@@UAEXABVNameValuePairSeq@DynamicAny@@@Z
?set_members_as_dyn_any@DynStructImpl@omni@@UAEXABVNameDynAnyPairSeq@DynamicAny@@@Z
?set_members_as_dyn_any@DynValueImpl@omni@@UAEXABVNameDynAnyPairSeq@DynamicAny@@@Z
?set_members_as_dyn_any@omniNilDynStruct@omni@@UAEXABVNameDynAnyPairSeq@DynamicAny@@@Z
?set_members_as_dyn_any@omniNilDynValue@omni@@UAEXABVNameDynAnyPairSeq@DynamicAny@@@Z
?set_one_value@ContextImpl@omni@@UAEXPBDABVAny@CORBA@@@Z
?set_one_value@omniNilContext@omni@@UAEXPBDABVAny@CORBA@@@Z
?set_oneway@omniCallDescriptor@@QAEX_N@Z
?set_result@omniServerRequest@omni@@UAEXABVAny@CORBA@@@Z
?set_return_type@RequestImpl@omni@@UAEXPAVTypeCode@CORBA@@@Z
?set_return_type@omniNilRequest@omni@@UAEXPAVTypeCode@CORBA@@@Z
?set_to_default_member@DynUnionImpl@omni@@UAEXXZ
?set_to_default_member@omniNilDynUnion@omni@@UAEXXZ
?set_to_initial_value@DynAnyConstrBase@omni@@UAEXXZ
?set_to_initial_value@DynAnyImpl@omni@@UAEXXZ
?set_to_initial_value@DynEnumImpl@omni@@UAEXXZ
?set_to_initial_value@DynFixedImpl@omni@@UAEXXZ
?set_to_initial_value@DynUnionDisc@omni@@UAEXXZ
?set_to_initial_value@DynUnionEnumDisc@omni@@UAEXXZ
?set_to_initial_value@DynUnionImpl@omni@@UAEXXZ
?set_to_initial_value@DynValueBoxImpl@omni@@UAEXXZ
?set_to_initial_value@DynValueImpl@omni@@UAEXXZ
?set_to_no_active_member@DynUnionImpl@omni@@UAEXXZ
?set_to_no_active_member@omniNilDynUnion@omni@@UAEXXZ
?set_to_null@DynValueBoxImpl@omni@@$4PPPPPPPM@A@AEXXZ
?set_to_null@DynValueBoxImpl@omni@@UAEXXZ
?set_to_null@DynValueImpl@omni@@$4PPPPPPPM@A@AEXXZ
?set_to_null@DynValueImpl@omni@@UAEXXZ
?set_to_null@omniNilDynValue@omni@@$4PPPPPPPM@A@AEXXZ
?set_to_null@omniNilDynValue@omni@@UAEXXZ
?set_to_null@omniNilDynValueBox@omni@@$4PPPPPPPM@A@AEXXZ
?set_to_null@omniNilDynValueBox@omni@@UAEXXZ
?set_to_null@omniNilDynValueCommon@omni@@UAEXXZ
?set_to_value@DynValueBoxImpl@omni@@$4PPPPPPPM@A@AEXXZ
?set_to_value@DynValueBoxImpl@omni@@UAEXXZ
?set_to_value@DynValueImpl@omni@@$4PPPPPPPM@A@AEXXZ
?set_to_value@DynValueImpl@omni@@UAEXXZ
?set_to_value@omniNilDynValue@omni@@$4PPPPPPPM@A@AEXXZ
?set_to_value@omniNilDynValue@omni@@UAEXXZ
?set_to_value@omniNilDynValueBox@omni@@$4PPPPPPPM@A@AEXXZ
?set_to_value@omniNilDynValueBox@omni@@UAEXXZ
?set_to_value@omniNilDynValueCommon@omni@@UAEXXZ
?set_value@DynFixedImpl@omni@@UAE_NPBD@Z
?set_value@DynUnionDisc@omni@@UAEX_K@Z
?set_value@DynUnionEnumDisc@omni@@UAEX_K@Z
?set_value@omniNilDynFixed@omni@@UAE_NPBD@Z
?set_values@ContextImpl@omni@@UAEXPAVNVList@CORBA@@@Z
?set_values@omniNilContext@omni@@UAEXPAVNVList@CORBA@@@Z
?size@?$omnivector@PAVDynAnyImplBase@omni@@@@QBEIXZ
?skip@tcParser@omni@@YAXQAVTypeCode@CORBA@@AAVcdrStream@@@Z
?skipUsingTC@omni@@YAXPAVTypeCode_base@1@AAVcdrStream@@@Z
?startTruncatable@OutputValueTracker@omni@@QAEXXZ
?state@omniServerRequest@omni@@QAE?AW4State@12@XZ
?storeExceptionInEnv@RequestImpl@omni@@QAEXXZ
?strMatch@omni@@YA_NPBD0@Z
?strip@TypeCode_indirect@omni@@SAPAVTypeCode_base@2@PAV32@@Z
?strip@TypeCode_indirect@omni@@SAPBVTypeCode_base@2@PBV32@@Z
?supported_interfaces@_objref_ValueDef@CORBA@@QAEPAVInterfaceDefSeq@2@XZ
?supported_interfaces@_objref_ValueDef@CORBA@@QAEXABVInterfaceDefSeq@2@@Z
?target@RequestImpl@omni@@UBEPAVObject@CORBA@@XZ
?target@omniNilRequest@omni@@UBEPAVObject@CORBA@@XZ
?tc@DynAnyImplBase@omni@@QBEPAVTypeCode_base@2@XZ
?tckind@DynAnyImplBase@omni@@QBE?AW4TCKind@CORBA@@XZ
?theFactory@DynAnyFactoryImpl@omni@@SAPAVDynAnyFactory@DynamicAny@@XZ
?the_empty@@3VcdrAnyMemoryStream@@A
?timedwait@omni_condition@@QAEHABUomni_time_t@@@Z
?to_any@DynAnyImplBase@omni@@$4PPPPPPPM@3AEPAVAny@CORBA@@XZ
?to_any@DynAnyImplBase@omni@@$4PPPPPPPM@7AEPAVAny@CORBA@@XZ
?to_any@DynAnyImplBase@omni@@$4PPPPPPPM@A@AEPAVAny@CORBA@@XZ
?to_any@DynAnyImplBase@omni@@$4PPPPPPPM@BA@AEPAVAny@CORBA@@XZ
?to_any@DynAnyImplBase@omni@@$4PPPPPPPM@CE@AEPAVAny@CORBA@@XZ
?to_any@DynAnyImplBase@omni@@$4PPPPPPPM@CM@AEPAVAny@CORBA@@XZ
?to_any@DynAnyImplBase@omni@@$4PPPPPPPM@DA@AEPAVAny@CORBA@@XZ
?to_any@DynAnyImplBase@omni@@$4PPPPPPPM@FA@AEPAVAny@CORBA@@XZ
?to_any@DynAnyImplBase@omni@@$4PPPPPPPM@M@AEPAVAny@CORBA@@XZ
?to_any@DynAnyImplBase@omni@@UAEPAVAny@CORBA@@XZ
?to_any@omniNilDynAny@omni@@$4PPPPPPPM@A@AEPAVAny@CORBA@@XZ
?to_any@omniNilDynAny@omni@@UAEPAVAny@CORBA@@XZ
?track@omniTypeCodeCollection@omni@@QAEXPAVTypeCode@CORBA@@@Z
?type@Any@CORBA@@QAEXPAVTypeCode@2@@Z
?type@Any@CORBA@@QBEPAVTypeCode@2@XZ
?type@DynAnyImplBase@omni@@$4PPPPPPPM@3BEPAVTypeCode@CORBA@@XZ
?type@DynAnyImplBase@omni@@$4PPPPPPPM@7BEPAVTypeCode@CORBA@@XZ
?type@DynAnyImplBase@omni@@$4PPPPPPPM@A@BEPAVTypeCode@CORBA@@XZ
?type@DynAnyImplBase@omni@@$4PPPPPPPM@BA@BEPAVTypeCode@CORBA@@XZ
?type@DynAnyImplBase@omni@@$4PPPPPPPM@CE@BEPAVTypeCode@CORBA@@XZ
?type@DynAnyImplBase@omni@@$4PPPPPPPM@CM@BEPAVTypeCode@CORBA@@XZ
?type@DynAnyImplBase@omni@@$4PPPPPPPM@DA@BEPAVTypeCode@CORBA@@XZ
?type@DynAnyImplBase@omni@@$4PPPPPPPM@FA@BEPAVTypeCode@CORBA@@XZ
?type@DynAnyImplBase@omni@@$4PPPPPPPM@M@BEPAVTypeCode@CORBA@@XZ
?type@DynAnyImplBase@omni@@UBEPAVTypeCode@CORBA@@XZ
?type@_objref_AttributeDef@CORBA@@QAEPAVTypeCode@2@XZ
?type@_objref_ConstantDef@CORBA@@QAEPAVTypeCode@2@XZ
?type@_objref_ExceptionDef@CORBA@@QAEPAVTypeCode@2@XZ
?type@_objref_IDLType@CORBA@@QAEPAVTypeCode@2@XZ
?type@_objref_ValueMemberDef@CORBA@@QAEPAVTypeCode@2@XZ
?type@omniNilDynAny@omni@@$4PPPPPPPM@A@BEPAVTypeCode@CORBA@@XZ
?type@omniNilDynAny@omni@@UBEPAVTypeCode@CORBA@@XZ
?type_def@_objref_AttributeDef@CORBA@@QAEPAV_objref_IDLType@2@XZ
?type_def@_objref_AttributeDef@CORBA@@QAEXPAV_objref_IDLType@2@@Z
?type_def@_objref_ConstantDef@CORBA@@QAEPAV_objref_IDLType@2@XZ
?type_def@_objref_ConstantDef@CORBA@@QAEXPAV_objref_IDLType@2@@Z
?type_def@_objref_ValueMemberDef@CORBA@@QAEPAV_objref_IDLType@2@XZ
?type_def@_objref_ValueMemberDef@CORBA@@QAEXPAV_objref_IDLType@2@@Z
?type_modifier@TypeCode@CORBA@@QBEFXZ
?typecode_initialiser@TypeCodeInitialiser@omni@@2V12@A
?unlock@omni_mutex@@QAEXXZ
?unmarshal@DIIPollable_Helper@CORBA@@SAPAVDIIPollable@2@AAVcdrStream@@@Z
?unmarshal@ExceptionHolder_Helper@Messaging@@SAPAVExceptionHolder@2@AAVcdrStream@@@Z
?unmarshal@Pollable_Helper@CORBA@@SAPAVPollable@2@AAVcdrStream@@@Z
?unmarshal@Poller_Helper@Messaging@@SAPAVPoller@2@AAVcdrStream@@@Z
?unmarshal@StringValue_Helper@CORBA@@SAPAVStringValue@2@AAVcdrStream@@@Z
?unmarshal@TypeCode_marshaller@omni@@SAPAVTypeCode_base@2@AAVcdrStream@@PAVTypeCode_offsetTable@2@@Z
?unmarshal@WStringValue_Helper@CORBA@@SAPAVWStringValue@2@AAVcdrStream@@@Z
?unmarshal@omniValueType@@SAPAVValueBase@CORBA@@PBDKPAVTypeCode@3@AAVcdrStream@@@Z
?unmarshalArguments@_0RL_cd_7963219a43724a61_04000000@@UAEXAAVcdrStream@@@Z
?unmarshalArguments@_0RL_cd_7963219a43724a61_0b000000@@UAEXAAVcdrStream@@@Z
?unmarshalArguments@_0RL_cd_7963219a43724a61_12000000@@UAEXAAVcdrStream@@@Z
?unmarshalArguments@_0RL_cd_7963219a43724a61_13000000@@UAEXAAVcdrStream@@@Z
?unmarshalArguments@_0RL_cd_7963219a43724a61_15000000@@UAEXAAVcdrStream@@@Z
?unmarshalArguments@_0RL_cd_7963219a43724a61_19000000@@UAEXAAVcdrStream@@@Z
?unmarshalArguments@_0RL_cd_7963219a43724a61_1a000000@@UAEXAAVcdrStream@@@Z
?unmarshalArguments@_0RL_cd_7963219a43724a61_1c000000@@UAEXAAVcdrStream@@@Z
?unmarshalArguments@_0RL_cd_7963219a43724a61_24000000@@UAEXAAVcdrStream@@@Z
?unmarshalArguments@_0RL_cd_7963219a43724a61_28000000@@UAEXAAVcdrStream@@@Z
?unmarshalArguments@_0RL_cd_7963219a43724a61_31000000@@UAEXAAVcdrStream@@@Z
?unmarshalArguments@_0RL_cd_7963219a43724a61_32000000@@UAEXAAVcdrStream@@@Z
?unmarshalArguments@_0RL_cd_7963219a43724a61_33000000@@UAEXAAVcdrStream@@@Z
?unmarshalArguments@_0RL_cd_7963219a43724a61_44000000@@UAEXAAVcdrStream@@@Z
?unmarshalArguments@_0RL_cd_7963219a43724a61_46000000@@UAEXAAVcdrStream@@@Z
?unmarshalArguments@_0RL_cd_7963219a43724a61_4b000000@@UAEXAAVcdrStream@@@Z
?unmarshalArguments@_0RL_cd_7963219a43724a61_51000000@@UAEXAAVcdrStream@@@Z
?unmarshalArguments@_0RL_cd_7963219a43724a61_52000000@@UAEXAAVcdrStream@@@Z
?unmarshalArguments@_0RL_cd_7963219a43724a61_59000000@@UAEXAAVcdrStream@@@Z
?unmarshalArguments@_0RL_cd_7963219a43724a61_60000000@@UAEXAAVcdrStream@@@Z
?unmarshalArguments@_0RL_cd_7963219a43724a61_71000000@@UAEXAAVcdrStream@@@Z
?unmarshalArguments@_0RL_cd_7963219a43724a61_72000000@@UAEXAAVcdrStream@@@Z
?unmarshalArguments@_0RL_cd_7963219a43724a61_83000000@@UAEXAAVcdrStream@@@Z
?unmarshalArguments@_0RL_cd_7963219a43724a61_85000000@@UAEXAAVcdrStream@@@Z
?unmarshalArguments@_0RL_cd_7963219a43724a61_8b000000@@UAEXAAVcdrStream@@@Z
?unmarshalArguments@_0RL_cd_7963219a43724a61_91000000@@UAEXAAVcdrStream@@@Z
?unmarshalArguments@_0RL_cd_7963219a43724a61_92000000@@UAEXAAVcdrStream@@@Z
?unmarshalArguments@_0RL_cd_7963219a43724a61_94000000@@UAEXAAVcdrStream@@@Z
?unmarshalArguments@_0RL_cd_7963219a43724a61_98000000@@UAEXAAVcdrStream@@@Z
?unmarshalArguments@_0RL_cd_7963219a43724a61_99000000@@UAEXAAVcdrStream@@@Z
?unmarshalArguments@_0RL_cd_7963219a43724a61_a3000000@@UAEXAAVcdrStream@@@Z
?unmarshalArguments@_0RL_cd_7963219a43724a61_a6000000@@UAEXAAVcdrStream@@@Z
?unmarshalArguments@_0RL_cd_7963219a43724a61_b1000000@@UAEXAAVcdrStream@@@Z
?unmarshalArguments@_0RL_cd_7963219a43724a61_b2000000@@UAEXAAVcdrStream@@@Z
?unmarshalArguments@_0RL_cd_7963219a43724a61_b9000000@@UAEXAAVcdrStream@@@Z
?unmarshalArguments@_0RL_cd_7963219a43724a61_c3000000@@UAEXAAVcdrStream@@@Z
?unmarshalArguments@_0RL_cd_7963219a43724a61_c5000000@@UAEXAAVcdrStream@@@Z
?unmarshalArguments@_0RL_cd_7963219a43724a61_ca000000@@UAEXAAVcdrStream@@@Z
?unmarshalArguments@_0RL_cd_7963219a43724a61_d1000000@@UAEXAAVcdrStream@@@Z
?unmarshalArguments@_0RL_cd_7963219a43724a61_d2000000@@UAEXAAVcdrStream@@@Z
?unmarshalArguments@_0RL_cd_7963219a43724a61_d4000000@@UAEXAAVcdrStream@@@Z
?unmarshalArguments@_0RL_cd_7963219a43724a61_d8000000@@UAEXAAVcdrStream@@@Z
?unmarshalArguments@_0RL_cd_7963219a43724a61_e3000000@@UAEXAAVcdrStream@@@Z
?unmarshalArguments@_0RL_cd_7963219a43724a61_e6000000@@UAEXAAVcdrStream@@@Z
?unmarshalArguments@_0RL_cd_7963219a43724a61_f1000000@@UAEXAAVcdrStream@@@Z
?unmarshalArguments@_0RL_cd_7963219a43724a61_f2000000@@UAEXAAVcdrStream@@@Z
?unmarshalArguments@_0RL_cd_7963219a43724a61_f9000000@@UAEXAAVcdrStream@@@Z
?unmarshalArguments@serverRequestCallDescriptor@omni@@UAEXAAVcdrStream@@@Z
?unmarshalBoolean@cdrStream@@QAE_NXZ
?unmarshalChar@cdrStream@@QAEEXZ
?unmarshalContext@Context@CORBA@@SAPAV12@AAVcdrStream@@@Z
?unmarshalDouble@cdrStream@@QAENXZ
?unmarshalFloat@cdrStream@@QAEMXZ
?unmarshalLabel@TypeCode_union_helper@omni@@SA_KPAVTypeCode@CORBA@@AAVcdrStream@@@Z
?unmarshalLong@cdrStream@@QAEJXZ
?unmarshalLongLong@cdrStream@@QAE_JXZ
?unmarshalObjRef@AbstractInterfaceDef_Helper@CORBA@@SAPAV_objref_AbstractInterfaceDef@2@AAVcdrStream@@@Z
?unmarshalObjRef@AliasDef_Helper@CORBA@@SAPAV_objref_AliasDef@2@AAVcdrStream@@@Z
?unmarshalObjRef@ArrayDef_Helper@CORBA@@SAPAV_objref_ArrayDef@2@AAVcdrStream@@@Z
?unmarshalObjRef@AttributeDef_Helper@CORBA@@SAPAV_objref_AttributeDef@2@AAVcdrStream@@@Z
?unmarshalObjRef@ConstantDef_Helper@CORBA@@SAPAV_objref_ConstantDef@2@AAVcdrStream@@@Z
?unmarshalObjRef@Contained_Helper@CORBA@@SAPAV_objref_Contained@2@AAVcdrStream@@@Z
?unmarshalObjRef@Container_Helper@CORBA@@SAPAV_objref_Container@2@AAVcdrStream@@@Z
?unmarshalObjRef@EnumDef_Helper@CORBA@@SAPAV_objref_EnumDef@2@AAVcdrStream@@@Z
?unmarshalObjRef@ExceptionDef_Helper@CORBA@@SAPAV_objref_ExceptionDef@2@AAVcdrStream@@@Z
?unmarshalObjRef@FixedDef_Helper@CORBA@@SAPAV_objref_FixedDef@2@AAVcdrStream@@@Z
?unmarshalObjRef@IDLType_Helper@CORBA@@SAPAV_objref_IDLType@2@AAVcdrStream@@@Z
?unmarshalObjRef@IRObject_Helper@CORBA@@SAPAV_objref_IRObject@2@AAVcdrStream@@@Z
?unmarshalObjRef@InterfaceDef_Helper@CORBA@@SAPAV_objref_InterfaceDef@2@AAVcdrStream@@@Z
?unmarshalObjRef@ModuleDef_Helper@CORBA@@SAPAV_objref_ModuleDef@2@AAVcdrStream@@@Z
?unmarshalObjRef@NativeDef_Helper@CORBA@@SAPAV_objref_NativeDef@2@AAVcdrStream@@@Z
?unmarshalObjRef@OperationDef_Helper@CORBA@@SAPAV_objref_OperationDef@2@AAVcdrStream@@@Z
?unmarshalObjRef@PollableSet_Helper@CORBA@@SAPAVPollableSet@2@AAVcdrStream@@@Z
?unmarshalObjRef@PrimitiveDef_Helper@CORBA@@SAPAV_objref_PrimitiveDef@2@AAVcdrStream@@@Z
?unmarshalObjRef@ReplyHandler_Helper@Messaging@@SAPAV_objref_ReplyHandler@2@AAVcdrStream@@@Z
?unmarshalObjRef@Repository_Helper@CORBA@@SAPAV_objref_Repository@2@AAVcdrStream@@@Z
?unmarshalObjRef@SequenceDef_Helper@CORBA@@SAPAV_objref_SequenceDef@2@AAVcdrStream@@@Z
?unmarshalObjRef@StringDef_Helper@CORBA@@SAPAV_objref_StringDef@2@AAVcdrStream@@@Z
?unmarshalObjRef@StructDef_Helper@CORBA@@SAPAV_objref_StructDef@2@AAVcdrStream@@@Z
?unmarshalObjRef@TypedefDef_Helper@CORBA@@SAPAV_objref_TypedefDef@2@AAVcdrStream@@@Z
?unmarshalObjRef@UnionDef_Helper@CORBA@@SAPAV_objref_UnionDef@2@AAVcdrStream@@@Z
?unmarshalObjRef@ValueBoxDef_Helper@CORBA@@SAPAV_objref_ValueBoxDef@2@AAVcdrStream@@@Z
?unmarshalObjRef@ValueDef_Helper@CORBA@@SAPAV_objref_ValueDef@2@AAVcdrStream@@@Z
?unmarshalObjRef@ValueMemberDef_Helper@CORBA@@SAPAV_objref_ValueMemberDef@2@AAVcdrStream@@@Z
?unmarshalObjRef@WstringDef_Helper@CORBA@@SAPAV_objref_WstringDef@2@AAVcdrStream@@@Z
?unmarshalOctet@cdrStream@@QAEEXZ
?unmarshalReturnedValues@DIICallDescriptor@omni@@UAEXAAVcdrStream@@@Z
?unmarshalReturnedValues@_0RL_cd_7963219a43724a61_00000000@@UAEXAAVcdrStream@@@Z
?unmarshalReturnedValues@_0RL_cd_7963219a43724a61_04000000@@UAEXAAVcdrStream@@@Z
?unmarshalReturnedValues@_0RL_cd_7963219a43724a61_06000000@@UAEXAAVcdrStream@@@Z
?unmarshalReturnedValues@_0RL_cd_7963219a43724a61_08000000@@UAEXAAVcdrStream@@@Z
?unmarshalReturnedValues@_0RL_cd_7963219a43724a61_11000000@@UAEXAAVcdrStream@@@Z
?unmarshalReturnedValues@_0RL_cd_7963219a43724a61_12000000@@UAEXAAVcdrStream@@@Z
?unmarshalReturnedValues@_0RL_cd_7963219a43724a61_13000000@@UAEXAAVcdrStream@@@Z
?unmarshalReturnedValues@_0RL_cd_7963219a43724a61_1a000000@@UAEXAAVcdrStream@@@Z
?unmarshalReturnedValues@_0RL_cd_7963219a43724a61_1c000000@@UAEXAAVcdrStream@@@Z
?unmarshalReturnedValues@_0RL_cd_7963219a43724a61_24000000@@UAEXAAVcdrStream@@@Z
?unmarshalReturnedValues@_0RL_cd_7963219a43724a61_26000000@@UAEXAAVcdrStream@@@Z
?unmarshalReturnedValues@_0RL_cd_7963219a43724a61_2b000000@@UAEXAAVcdrStream@@@Z
?unmarshalReturnedValues@_0RL_cd_7963219a43724a61_32000000@@UAEXAAVcdrStream@@@Z
?unmarshalReturnedValues@_0RL_cd_7963219a43724a61_33000000@@UAEXAAVcdrStream@@@Z
?unmarshalReturnedValues@_0RL_cd_7963219a43724a61_39000000@@UAEXAAVcdrStream@@@Z
?unmarshalReturnedValues@_0RL_cd_7963219a43724a61_40000000@@UAEXAAVcdrStream@@@Z
?unmarshalReturnedValues@_0RL_cd_7963219a43724a61_44000000@@UAEXAAVcdrStream@@@Z
?unmarshalReturnedValues@_0RL_cd_7963219a43724a61_51000000@@UAEXAAVcdrStream@@@Z
?unmarshalReturnedValues@_0RL_cd_7963219a43724a61_52000000@@UAEXAAVcdrStream@@@Z
?unmarshalReturnedValues@_0RL_cd_7963219a43724a61_53000000@@UAEXAAVcdrStream@@@Z
?unmarshalReturnedValues@_0RL_cd_7963219a43724a61_65000000@@UAEXAAVcdrStream@@@Z
?unmarshalReturnedValues@_0RL_cd_7963219a43724a61_6b000000@@UAEXAAVcdrStream@@@Z
?unmarshalReturnedValues@_0RL_cd_7963219a43724a61_71000000@@UAEXAAVcdrStream@@@Z
?unmarshalReturnedValues@_0RL_cd_7963219a43724a61_72000000@@UAEXAAVcdrStream@@@Z
?unmarshalReturnedValues@_0RL_cd_7963219a43724a61_74000000@@UAEXAAVcdrStream@@@Z
?unmarshalReturnedValues@_0RL_cd_7963219a43724a61_78000000@@UAEXAAVcdrStream@@@Z
?unmarshalReturnedValues@_0RL_cd_7963219a43724a61_79000000@@UAEXAAVcdrStream@@@Z
?unmarshalReturnedValues@_0RL_cd_7963219a43724a61_83000000@@UAEXAAVcdrStream@@@Z
?unmarshalReturnedValues@_0RL_cd_7963219a43724a61_86000000@@UAEXAAVcdrStream@@@Z
?unmarshalReturnedValues@_0RL_cd_7963219a43724a61_91000000@@UAEXAAVcdrStream@@@Z
?unmarshalReturnedValues@_0RL_cd_7963219a43724a61_92000000@@UAEXAAVcdrStream@@@Z
?unmarshalReturnedValues@_0RL_cd_7963219a43724a61_a3000000@@UAEXAAVcdrStream@@@Z
?unmarshalReturnedValues@_0RL_cd_7963219a43724a61_a5000000@@UAEXAAVcdrStream@@@Z
?unmarshalReturnedValues@_0RL_cd_7963219a43724a61_aa000000@@UAEXAAVcdrStream@@@Z
?unmarshalReturnedValues@_0RL_cd_7963219a43724a61_b1000000@@UAEXAAVcdrStream@@@Z
?unmarshalReturnedValues@_0RL_cd_7963219a43724a61_b2000000@@UAEXAAVcdrStream@@@Z
?unmarshalReturnedValues@_0RL_cd_7963219a43724a61_b4000000@@UAEXAAVcdrStream@@@Z
?unmarshalReturnedValues@_0RL_cd_7963219a43724a61_b8000000@@UAEXAAVcdrStream@@@Z
?unmarshalReturnedValues@_0RL_cd_7963219a43724a61_b9000000@@UAEXAAVcdrStream@@@Z
?unmarshalReturnedValues@_0RL_cd_7963219a43724a61_c0000000@@UAEXAAVcdrStream@@@Z
?unmarshalReturnedValues@_0RL_cd_7963219a43724a61_c3000000@@UAEXAAVcdrStream@@@Z
?unmarshalReturnedValues@_0RL_cd_7963219a43724a61_c6000000@@UAEXAAVcdrStream@@@Z
?unmarshalReturnedValues@_0RL_cd_7963219a43724a61_d1000000@@UAEXAAVcdrStream@@@Z
?unmarshalReturnedValues@_0RL_cd_7963219a43724a61_d2000000@@UAEXAAVcdrStream@@@Z
?unmarshalReturnedValues@_0RL_cd_7963219a43724a61_d9000000@@UAEXAAVcdrStream@@@Z
?unmarshalReturnedValues@_0RL_cd_7963219a43724a61_e3000000@@UAEXAAVcdrStream@@@Z
?unmarshalReturnedValues@_0RL_cd_7963219a43724a61_ea000000@@UAEXAAVcdrStream@@@Z
?unmarshalReturnedValues@_0RL_cd_7963219a43724a61_f0000000@@UAEXAAVcdrStream@@@Z
?unmarshalReturnedValues@_0RL_cd_7963219a43724a61_f1000000@@UAEXAAVcdrStream@@@Z
?unmarshalReturnedValues@_0RL_cd_7963219a43724a61_f2000000@@UAEXAAVcdrStream@@@Z
?unmarshalReturnedValues@_0RL_cd_7963219a43724a61_f4000000@@UAEXAAVcdrStream@@@Z
?unmarshalReturnedValues@_0RL_cd_7963219a43724a61_f8000000@@UAEXAAVcdrStream@@@Z
?unmarshalReturnedValues@_0RL_cd_7963219a43724a61_f9000000@@UAEXAAVcdrStream@@@Z
?unmarshalReturnedValues@_0RL_cd_7963219a43724a61_fb000000@@UAEXAAVcdrStream@@@Z
?unmarshalShort@cdrStream@@QAEFXZ
?unmarshalString@cdrStream@@QAEPADH@Z
?unmarshalTypeCode@TypeCode@CORBA@@SAPAV12@AAVcdrStream@@@Z
?unmarshalULong@cdrStream@@QAEKXZ
?unmarshalULongLong@cdrStream@@QAE_KXZ
?unmarshalUShort@cdrStream@@QAEGXZ
?unmarshalWChar@cdrStream@@QAE_WXZ
?unmarshalWString@cdrStream@@QAEPA_WH@Z
?unmarshal_byte_swap@cdrStream@@QBE_NXZ
?unregister_factory@_omni_ValueFactoryManager@@SAXPBDK@Z
?unregister_value_factory@ORB@CORBA@@QAEXPBD@Z
?userException@DIICallDescriptor@omni@@UAEXAAVcdrStream@@PAVIOP_C@2@PBD@Z
?valid@InputValueTracker@omni@@QAE_NXZ
?valid@OutputValueTracker@omni@@QAE_NXZ
?value@Any@CORBA@@QBEPBXXZ
?value@BidirectionalPolicy@BiDirPolicy@@UAEGXZ
?value@IdAssignmentPolicy@PortableServer@@UAE?AW4IdAssignmentPolicyValue@2@XZ
?value@IdUniquenessPolicy@PortableServer@@UAE?AW4IdUniquenessPolicyValue@2@XZ
?value@ImplicitActivationPolicy@PortableServer@@UAE?AW4ImplicitActivationPolicyValue@2@XZ
?value@LifespanPolicy@PortableServer@@UAE?AW4LifespanPolicyValue@2@XZ
?value@LocalShortcutPolicy@omniPolicy@@UAEGXZ
?value@NamedValueImpl@omni@@UBEPAVAny@CORBA@@XZ
?value@RequestProcessingPolicy@PortableServer@@UAE?AW4RequestProcessingPolicyValue@2@XZ
?value@ServantRetentionPolicy@PortableServer@@UAE?AW4ServantRetentionPolicyValue@2@XZ
?value@ThreadPolicy@PortableServer@@UAE?AW4ThreadPolicyValue@2@XZ
?value@_objref_ConstantDef@CORBA@@QAEPAVAny@2@XZ
?value@_objref_ConstantDef@CORBA@@QAEXABVAny@2@@Z
?value@omniNilNV@omni@@UBEPAVAny@CORBA@@XZ
?value@omni_refcount@@QAEHXZ
?valueSeq@cdrAnyMemoryStream@@QAEAAVValueBaseSeq@omniTypedefs@@XZ
?valueTracker@cdrStream@@QAEXPAVValueIndirectionTracker@omni@@@Z
?valueTracker@cdrStream@@QBEPAVValueIndirectionTracker@omni@@XZ
?version@_objref_Contained@CORBA@@QAEPADXZ
?version@_objref_Contained@CORBA@@QAEXPBD@Z
?visit@omniInterceptorP@omni@@SAXAAVinfo_T@createPolicy_T@omniInterceptors@2@@Z
?wait@omniAsyncCallDescriptor@@QAEXXZ
?wait@omniAsyncCallDescriptor@@QAE_NABUomni_time_t@@@Z
?writeCurrent@DynAnyConstrBase@omni@@IAEAAVcdrAnyMemoryStream@@W4TCKind@CORBA@@@Z
?writeCurrent@DynUnionImpl@omni@@AAEAAVcdrAnyMemoryStream@@W4TCKind@CORBA@@@Z
